(lp1
(lp2
S'1544972330-s8yTEAKTytXx7GoT3zwQJJBmRGPduIsRUkeZsHU'
p3
aS'eh8jUL3BopGn9arMncnKkGUQSDjyVcuEvJoPvHpPiqcHq'
p4
aS'6oqTpA9stfUAQnE4b0jR4v3Ug'
p5
aS'3nv9N3CR5ZkvWMXsmfWC4T6uaqdE7AglJcuDmXaTZO1yPmrcZF'
p6
aa(lp7
S'2919101675-Q7OzIqSVi2kKStOYOA2f8EB6NOLCTfmwMAMMb8e'
p8
aS'Ibezdb74dWxrgcIAR32HjYyMaZhpO73tFSZjQ2L2fgEwn'
p9
aS'RUHZPYJU9vmx2IYLksvIPk119'
p10
aS'uombeq5ceiKySkQBvUBBsjmYKAsDSk9XM2IH6lTHztWYQ7VwaN'
p11
aa(lp12
S'2919101675-Q7OzIqSVi2kKStOYOA2f8EB6NOLCTfmwMAMMb8e'
p13
aS'Ibezdb74dWxrgcIAR32HjYyMaZhpO73tFSZjQ2L2fgEwn'
p14
aS'RUHZPYJU9vmx2IYLksvIPk119'
p15
aS'uombeq5ceiKySkQBvUBBsjmYKAsDSk9XM2IH6lTHztWYQ7VwaN'
p16
aa(lp17
S'2924422067-eYlR7ckcFY0MC4WHpIhqyuhTSgfUaZR47EZuZJR'
p18
aS'NE7p8PfKCjqFuPRBrWRK1E2MI3dfeZfoIQjmzVkB2fEdj'
p19
aS'51MbK4Ee4xuSKA7rMFGeimzsz'
p20
aS'Wre1m5nKssn7rbi7HgU7ioNYRHWkRiwvQDTN93pUt2gN5XfFPi'
p21
aa.