(lp1
ccopy_reg
_reconstructor
p2
(ctweepy.models
Status
p3
c__builtin__
object
p4
NtRp5
(dp6
S'favorited'
p7
I00
sS'contributors'
p8
NsS'truncated'
p9
I00
sS'text'
p10
V@mtodd @dddagradi yas pls
p11
sS'source_url'
p12
Vhttp://twitter.com/download/iphone
p13
sS'is_quote_status'
p14
I00
sS'in_reply_to_status_id'
p15
I690962047798898689
sS'user'
p16
g2
(ctweepy.models
User
p17
g4
NtRp18
(dp19
S'follow_request_sent'
p20
I00
sS'has_extended_profile'
p21
I00
sS'profile_use_background_image'
p22
I01
sS'profile_sidebar_fill_color'
p23
V252429
p24
sS'id'
p25
I21170138
sS'verified'
p26
I00
sS'entities'
p27
(dp28
Vurl
p29
(dp30
Vurls
p31
(lp32
(dp33
g29
Vhttps://t.co/43c4yJPxHK
p34
sVindices
p35
(lp36
I0
aI23
asVexpanded_url
p37
Vhttp://current.sh
p38
sVdisplay_url
p39
Vcurrent.sh
p40
sassVdescription
p41
(dp42
g31
(lp43
sssS'profile_image_url_https'
p44
Vhttps://pbs.twimg.com/profile_images/685889035277963264/6kzNHj0N_normal.jpg
p45
sS'_json'
p46
(dp47
Vfollow_request_sent
p48
I00
sVhas_extended_profile
p49
I00
sVprofile_use_background_image
p50
I01
sVdefault_profile_image
p51
I00
sVid
p52
I21170138
sVprofile_background_image_url_https
p53
Vhttps://abs.twimg.com/images/themes/theme9/bg.gif
p54
sVverified
p55
I00
sVprofile_text_color
p56
V666666
p57
sVprofile_image_url_https
p58
g45
sVprofile_sidebar_fill_color
p59
g24
sVentities
p60
g28
sVfollowers_count
p61
I2066
sVprofile_sidebar_border_color
p62
V181A1E
p63
sVid_str
p64
V21170138
p65
sVprofile_background_color
p66
V1A1B1F
p67
sVlisted_count
p68
I110
sVis_translation_enabled
p69
I00
sVutc_offset
p70
I-28800
sVstatuses_count
p71
I10167
sg41
VCo-Founder & CTO @currentsh
p72
sVfriends_count
p73
I404
sVlocation
p74
VSan Francisco, CA
p75
sVprofile_link_color
p76
V9266CC
p77
sVprofile_image_url
p78
Vhttp://pbs.twimg.com/profile_images/685889035277963264/6kzNHj0N_normal.jpg
p79
sVfollowing
p80
I00
sVgeo_enabled
p81
I01
sVprofile_banner_url
p82
Vhttps://pbs.twimg.com/profile_banners/21170138/1452367124
p83
sVprofile_background_image_url
p84
Vhttp://abs.twimg.com/images/themes/theme9/bg.gif
p85
sVscreen_name
p86
Vjlsuttles
p87
sVlang
p88
Ven
p89
sVprofile_background_tile
p90
I00
sVfavourites_count
p91
I4875
sVname
p92
V\u2728Jessica Suttles\u2728
p93
sVnotifications
p94
I00
sg29
Vhttps://t.co/43c4yJPxHK
p95
sVcreated_at
p96
VWed Feb 18 04:49:31 +0000 2009
p97
sVcontributors_enabled
p98
I00
sVtime_zone
p99
VTijuana
p100
sVprotected
p101
I00
sVdefault_profile
p102
I00
sVis_translator
p103
I00
ssS'contributors_enabled'
p104
I00
sS'profile_text_color'
p105
g57
sS'followers_count'
p106
I2066
sS'profile_sidebar_border_color'
p107
g63
sS'id_str'
p108
g65
sS'default_profile_image'
p109
I00
sS'listed_count'
p110
I110
sS'is_translation_enabled'
p111
I00
sS'utc_offset'
p112
I-28800
sS'statuses_count'
p113
I10167
sS'description'
p114
g72
sS'friends_count'
p115
I404
sS'location'
p116
g75
sS'profile_link_color'
p117
g77
sS'profile_image_url'
p118
g79
sS'notifications'
p119
I00
sS'geo_enabled'
p120
I01
sS'profile_background_color'
p121
g67
sS'profile_banner_url'
p122
g83
sS'profile_background_image_url'
p123
g85
sS'screen_name'
p124
g87
sS'lang'
p125
g89
sS'following'
p126
I00
sS'profile_background_tile'
p127
I00
sS'favourites_count'
p128
I4875
sS'name'
p129
g93
sS'url'
p130
g95
sS'created_at'
p131
cdatetime
datetime
p132
(S'\x07\xd9\x02\x12\x041\x1f\x00\x00\x00'
tRp133
sS'profile_background_image_url_https'
p134
g54
sS'time_zone'
p135
g100
sS'protected'
p136
I00
sS'default_profile'
p137
I00
sS'is_translator'
p138
I00
sbsS'geo'
p139
Nsg25
I690972774160998400
sS'favorite_count'
p140
I0
sS'source'
p141
VTwitter for iPhone
p142
sg125
Ven
p143
sS'author'
p144
g18
sg131
g132
(S'\x07\xe0\x01\x17\x13\x02\x01\x00\x00\x00'
tRp145
sg46
(dp146
Vcontributors
p147
NsVtruncated
p148
I00
sVtext
p149
g11
sVis_quote_status
p150
I00
sVin_reply_to_status_id
p151
I690962047798898689
sg52
I690972774160998400
sVfavorite_count
p152
I0
sVsource
p153
V<a href="http://twitter.com/download/iphone" rel="nofollow">Twitter for iPhone</a>
p154
sVretweeted
p155
I00
sVcoordinates
p156
Nsg60
(dp157
Vsymbols
p158
(lp159
sVuser_mentions
p160
(lp161
(dp162
g52
I5933482
sg35
(lp163
I0
aI6
asg64
V5933482
p164
sg86
Vmtodd
p165
sg92
VMatt MattTodd Todd
p166
sa(dp167
g52
I13237062
sg35
(lp168
I7
aI17
asg64
V13237062
p169
sg86
Vdddagradi
p170
sg92
VDD-8 \u26aa\ufe0f
p171
sasVhashtags
p172
(lp173
sg31
(lp174
ssVin_reply_to_screen_name
p175
Vmtodd
p176
sg64
V690972774160998400
p177
sVretweet_count
p178
I0
sVin_reply_to_user_id
p179
I5933482
sVfavorited
p180
I00
sVuser
p181
g47
sVgeo
p182
NsVin_reply_to_user_id_str
p183
V5933482
p184
sg88
g143
sg96
VSat Jan 23 19:02:01 +0000 2016
p185
sVin_reply_to_status_id_str
p186
V690962047798898689
p187
sVplace
p188
NssS'coordinates'
p189
NsS'in_reply_to_user_id_str'
p190
g184
sg27
g157
sS'in_reply_to_status_id_str'
p191
g187
sS'in_reply_to_screen_name'
p192
g176
sS'in_reply_to_user_id'
p193
I5933482
sS'retweeted'
p194
I00
sS'place'
p195
NsS'retweet_count'
p196
I0
sg108
g177
sbag2
(g3
g4
NtRp197
(dp198
g7
I00
sg8
Nsg9
I00
sg10
V@searls brown chicken brown cow
p199
sg12
Vhttp://twitter.com/download/iphone
p200
sg14
I00
sg15
I690885410436689920
sg16
g2
(g17
g4
NtRp201
(dp202
g20
I00
sg21
I00
sg22
I01
sg23
V252429
p203
sg25
I21170138
sg26
I00
sg27
(dp204
g29
(dp205
g31
(lp206
(dp207
g29
Vhttps://t.co/43c4yJPxHK
p208
sg35
(lp209
I0
aI23
asg37
Vhttp://current.sh
p210
sg39
Vcurrent.sh
p211
sassg41
(dp212
g31
(lp213
sssg44
Vhttps://pbs.twimg.com/profile_images/685889035277963264/6kzNHj0N_normal.jpg
p214
sg46
(dp215
g48
I00
sg49
I00
sg50
I01
sg51
I00
sg52
I21170138
sg53
Vhttps://abs.twimg.com/images/themes/theme9/bg.gif
p216
sg55
I00
sg56
V666666
p217
sg58
g214
sg59
g203
sg60
g204
sg61
I2066
sg62
V181A1E
p218
sg64
V21170138
p219
sg66
V1A1B1F
p220
sg68
I110
sg69
I00
sg70
I-28800
sg71
I10167
sg41
VCo-Founder & CTO @currentsh
p221
sg73
I404
sg74
VSan Francisco, CA
p222
sg76
V9266CC
p223
sg78
Vhttp://pbs.twimg.com/profile_images/685889035277963264/6kzNHj0N_normal.jpg
p224
sg80
I00
sg81
I01
sg82
Vhttps://pbs.twimg.com/profile_banners/21170138/1452367124
p225
sg84
Vhttp://abs.twimg.com/images/themes/theme9/bg.gif
p226
sg86
Vjlsuttles
p227
sg88
Ven
p228
sg90
I00
sg91
I4875
sg92
V\u2728Jessica Suttles\u2728
p229
sg94
I00
sg29
Vhttps://t.co/43c4yJPxHK
p230
sg96
VWed Feb 18 04:49:31 +0000 2009
p231
sg98
I00
sg99
VTijuana
p232
sg101
I00
sg102
I00
sg103
I00
ssg104
I00
sg105
g217
sg106
I2066
sg107
g218
sg108
g219
sg109
I00
sg110
I110
sg111
I00
sg112
I-28800
sg113
I10167
sg114
g221
sg115
I404
sg116
g222
sg117
g223
sg118
g224
sg119
I00
sg120
I01
sg121
g220
sg122
g225
sg123
g226
sg124
g227
sg125
g228
sg126
I00
sg127
I00
sg128
I4875
sg129
g229
sg130
g230
sg131
g132
(S'\x07\xd9\x02\x12\x041\x1f\x00\x00\x00'
tRp233
sg134
g216
sg135
g232
sg136
I00
sg137
I00
sg138
I00
sbsg139
Nsg25
I690935720060407809
sg140
I2
sg141
VTwitter for iPhone
p234
sg125
Ven
p235
sg144
g201
sg131
g132
(S'\x07\xe0\x01\x17\x10"/\x00\x00\x00'
tRp236
sg46
(dp237
g147
Nsg148
I00
sg149
g199
sg150
I00
sg151
I690885410436689920
sg52
I690935720060407809
sg152
I2
sg153
V<a href="http://twitter.com/download/iphone" rel="nofollow">Twitter for iPhone</a>
p238
sg155
I00
sg156
Nsg60
(dp239
g158
(lp240
sg160
(lp241
(dp242
g52
I9038902
sg35
(lp243
I0
aI7
asg64
V9038902
p244
sg86
Vsearls
p245
sg92
VJustin Searls
p246
sasg172
(lp247
sg31
(lp248
ssg175
Vsearls
p249
sg64
V690935720060407809
p250
sg178
I0
sg179
I9038902
sg180
I00
sg181
g215
sg182
Nsg183
V9038902
p251
sg88
g235
sg96
VSat Jan 23 16:34:47 +0000 2016
p252
sg186
V690885410436689920
p253
sg188
Nssg189
Nsg190
g251
sg27
g239
sg191
g253
sg192
g249
sg193
I9038902
sg194
I00
sg195
Nsg196
I0
sg108
g250
sbag2
(g3
g4
NtRp254
(dp255
g7
I00
sg8
Nsg9
I00
sg10
V@dddagradi congratsss
p256
sg12
Vhttp://twitter.com/download/iphone
p257
sg14
I00
sg15
I690707886402437120
sg16
g2
(g17
g4
NtRp258
(dp259
g20
I00
sg21
I00
sg22
I01
sg23
V252429
p260
sg25
I21170138
sg26
I00
sg27
(dp261
g29
(dp262
g31
(lp263
(dp264
g29
Vhttps://t.co/43c4yJPxHK
p265
sg35
(lp266
I0
aI23
asg37
Vhttp://current.sh
p267
sg39
Vcurrent.sh
p268
sassg41
(dp269
g31
(lp270
sssg44
Vhttps://pbs.twimg.com/profile_images/685889035277963264/6kzNHj0N_normal.jpg
p271
sg46
(dp272
g48
I00
sg49
I00
sg50
I01
sg51
I00
sg52
I21170138
sg53
Vhttps://abs.twimg.com/images/themes/theme9/bg.gif
p273
sg55
I00
sg56
V666666
p274
sg58
g271
sg59
g260
sg60
g261
sg61
I2066
sg62
V181A1E
p275
sg64
V21170138
p276
sg66
V1A1B1F
p277
sg68
I110
sg69
I00
sg70
I-28800
sg71
I10167
sg41
VCo-Founder & CTO @currentsh
p278
sg73
I404
sg74
VSan Francisco, CA
p279
sg76
V9266CC
p280
sg78
Vhttp://pbs.twimg.com/profile_images/685889035277963264/6kzNHj0N_normal.jpg
p281
sg80
I00
sg81
I01
sg82
Vhttps://pbs.twimg.com/profile_banners/21170138/1452367124
p282
sg84
Vhttp://abs.twimg.com/images/themes/theme9/bg.gif
p283
sg86
Vjlsuttles
p284
sg88
Ven
p285
sg90
I00
sg91
I4875
sg92
V\u2728Jessica Suttles\u2728
p286
sg94
I00
sg29
Vhttps://t.co/43c4yJPxHK
p287
sg96
VWed Feb 18 04:49:31 +0000 2009
p288
sg98
I00
sg99
VTijuana
p289
sg101
I00
sg102
I00
sg103
I00
ssg104
I00
sg105
g274
sg106
I2066
sg107
g275
sg108
g276
sg109
I00
sg110
I110
sg111
I00
sg112
I-28800
sg113
I10167
sg114
g278
sg115
I404
sg116
g279
sg117
g280
sg118
g281
sg119
I00
sg120
I01
sg121
g277
sg122
g282
sg123
g283
sg124
g284
sg125
g285
sg126
I00
sg127
I00
sg128
I4875
sg129
g286
sg130
g287
sg131
g132
(S'\x07\xd9\x02\x12\x041\x1f\x00\x00\x00'
tRp290
sg134
g273
sg135
g289
sg136
I00
sg137
I00
sg138
I00
sbsg139
Nsg25
I690723330861637632
sg140
I1
sg141
VTwitter for iPhone
p291
sg125
Ven
p292
sg144
g258
sg131
g132
(S'\x07\xe0\x01\x17\x02\x1e1\x00\x00\x00'
tRp293
sg46
(dp294
g147
Nsg148
I00
sg149
g256
sg150
I00
sg151
I690707886402437120
sg52
I690723330861637632
sg152
I1
sg153
V<a href="http://twitter.com/download/iphone" rel="nofollow">Twitter for iPhone</a>
p295
sg155
I00
sg156
Nsg60
(dp296
g158
(lp297
sg160
(lp298
(dp299
g52
I13237062
sg35
(lp300
I0
aI10
asg64
V13237062
p301
sg86
Vdddagradi
p302
sg92
VDD-8 \u26aa\ufe0f
p303
sasg172
(lp304
sg31
(lp305
ssg175
Vdddagradi
p306
sg64
V690723330861637632
p307
sg178
I0
sg179
I13237062
sg180
I00
sg181
g272
sg182
Nsg183
V13237062
p308
sg88
g292
sg96
VSat Jan 23 02:30:49 +0000 2016
p309
sg186
V690707886402437120
p310
sg188
Nssg189
Nsg190
g308
sg27
g296
sg191
g310
sg192
g306
sg193
I13237062
sg194
I00
sg195
Nsg196
I0
sg108
g307
sbag2
(g3
g4
NtRp311
(dp312
g7
I00
sg8
Nsg9
I00
sg10
V@searls "in bed"
p313
sg12
Vhttp://twitter.com/download/iphone
p314
sg14
I00
sg15
I690709755162132481
sg16
g2
(g17
g4
NtRp315
(dp316
g20
I00
sg21
I00
sg22
I01
sg23
V252429
p317
sg25
I21170138
sg26
I00
sg27
(dp318
g29
(dp319
g31
(lp320
(dp321
g29
Vhttps://t.co/43c4yJPxHK
p322
sg35
(lp323
I0
aI23
asg37
Vhttp://current.sh
p324
sg39
Vcurrent.sh
p325
sassg41
(dp326
g31
(lp327
sssg44
Vhttps://pbs.twimg.com/profile_images/685889035277963264/6kzNHj0N_normal.jpg
p328
sg46
(dp329
g48
I00
sg49
I00
sg50
I01
sg51
I00
sg52
I21170138
sg53
Vhttps://abs.twimg.com/images/themes/theme9/bg.gif
p330
sg55
I00
sg56
V666666
p331
sg58
g328
sg59
g317
sg60
g318
sg61
I2066
sg62
V181A1E
p332
sg64
V21170138
p333
sg66
V1A1B1F
p334
sg68
I110
sg69
I00
sg70
I-28800
sg71
I10167
sg41
VCo-Founder & CTO @currentsh
p335
sg73
I404
sg74
VSan Francisco, CA
p336
sg76
V9266CC
p337
sg78
Vhttp://pbs.twimg.com/profile_images/685889035277963264/6kzNHj0N_normal.jpg
p338
sg80
I00
sg81
I01
sg82
Vhttps://pbs.twimg.com/profile_banners/21170138/1452367124
p339
sg84
Vhttp://abs.twimg.com/images/themes/theme9/bg.gif
p340
sg86
Vjlsuttles
p341
sg88
Ven
p342
sg90
I00
sg91
I4875
sg92
V\u2728Jessica Suttles\u2728
p343
sg94
I00
sg29
Vhttps://t.co/43c4yJPxHK
p344
sg96
VWed Feb 18 04:49:31 +0000 2009
p345
sg98
I00
sg99
VTijuana
p346
sg101
I00
sg102
I00
sg103
I00
ssg104
I00
sg105
g331
sg106
I2066
sg107
g332
sg108
g333
sg109
I00
sg110
I110
sg111
I00
sg112
I-28800
sg113
I10167
sg114
g335
sg115
I404
sg116
g336
sg117
g337
sg118
g338
sg119
I00
sg120
I01
sg121
g334
sg122
g339
sg123
g340
sg124
g341
sg125
g342
sg126
I00
sg127
I00
sg128
I4875
sg129
g343
sg130
g344
sg131
g132
(S'\x07\xd9\x02\x12\x041\x1f\x00\x00\x00'
tRp347
sg134
g330
sg135
g346
sg136
I00
sg137
I00
sg138
I00
sbsg139
Nsg25
I690723091962429441
sg140
I2
sg141
VTwitter for iPhone
p348
sg125
Ven
p349
sg144
g315
sg131
g132
(S'\x07\xe0\x01\x17\x02\x1d4\x00\x00\x00'
tRp350
sg46
(dp351
g147
Nsg148
I00
sg149
g313
sg150
I00
sg151
I690709755162132481
sg52
I690723091962429441
sg152
I2
sg153
V<a href="http://twitter.com/download/iphone" rel="nofollow">Twitter for iPhone</a>
p352
sg155
I00
sg156
Nsg60
(dp353
g158
(lp354
sg160
(lp355
(dp356
g52
I9038902
sg35
(lp357
I0
aI7
asg64
V9038902
p358
sg86
Vsearls
p359
sg92
VJustin Searls
p360
sasg172
(lp361
sg31
(lp362
ssg175
Vsearls
p363
sg64
V690723091962429441
p364
sg178
I0
sg179
I9038902
sg180
I00
sg181
g329
sg182
Nsg183
V9038902
p365
sg88
g349
sg96
VSat Jan 23 02:29:52 +0000 2016
p366
sg186
V690709755162132481
p367
sg188
Nssg189
Nsg190
g365
sg27
g353
sg191
g367
sg192
g363
sg193
I9038902
sg194
I00
sg195
Nsg196
I0
sg108
g364
sbag2
(g3
g4
NtRp368
(dp369
g7
I00
sg8
Nsg9
I00
sg10
V@_zzak \u2764\ufe0f
p370
sg12
Vhttp://twitter.com/download/iphone
p371
sg14
I00
sg15
I690344439546441728
sg16
g2
(g17
g4
NtRp372
(dp373
g20
I00
sg21
I00
sg22
I01
sg23
V252429
p374
sg25
I21170138
sg26
I00
sg27
(dp375
g29
(dp376
g31
(lp377
(dp378
g29
Vhttps://t.co/43c4yJPxHK
p379
sg35
(lp380
I0
aI23
asg37
Vhttp://current.sh
p381
sg39
Vcurrent.sh
p382
sassg41
(dp383
g31
(lp384
sssg44
Vhttps://pbs.twimg.com/profile_images/685889035277963264/6kzNHj0N_normal.jpg
p385
sg46
(dp386
g48
I00
sg49
I00
sg50
I01
sg51
I00
sg52
I21170138
sg53
Vhttps://abs.twimg.com/images/themes/theme9/bg.gif
p387
sg55
I00
sg56
V666666
p388
sg58
g385
sg59
g374
sg60
g375
sg61
I2066
sg62
V181A1E
p389
sg64
V21170138
p390
sg66
V1A1B1F
p391
sg68
I110
sg69
I00
sg70
I-28800
sg71
I10167
sg41
VCo-Founder & CTO @currentsh
p392
sg73
I404
sg74
VSan Francisco, CA
p393
sg76
V9266CC
p394
sg78
Vhttp://pbs.twimg.com/profile_images/685889035277963264/6kzNHj0N_normal.jpg
p395
sg80
I00
sg81
I01
sg82
Vhttps://pbs.twimg.com/profile_banners/21170138/1452367124
p396
sg84
Vhttp://abs.twimg.com/images/themes/theme9/bg.gif
p397
sg86
Vjlsuttles
p398
sg88
Ven
p399
sg90
I00
sg91
I4875
sg92
V\u2728Jessica Suttles\u2728
p400
sg94
I00
sg29
Vhttps://t.co/43c4yJPxHK
p401
sg96
VWed Feb 18 04:49:31 +0000 2009
p402
sg98
I00
sg99
VTijuana
p403
sg101
I00
sg102
I00
sg103
I00
ssg104
I00
sg105
g388
sg106
I2066
sg107
g389
sg108
g390
sg109
I00
sg110
I110
sg111
I00
sg112
I-28800
sg113
I10167
sg114
g392
sg115
I404
sg116
g393
sg117
g394
sg118
g395
sg119
I00
sg120
I01
sg121
g391
sg122
g396
sg123
g397
sg124
g398
sg125
g399
sg126
I00
sg127
I00
sg128
I4875
sg129
g400
sg130
g401
sg131
g132
(S'\x07\xd9\x02\x12\x041\x1f\x00\x00\x00'
tRp404
sg134
g387
sg135
g403
sg136
I00
sg137
I00
sg138
I00
sbsg139
Nsg25
I690353253419241473
sg140
I0
sg141
VTwitter for iPhone
p405
sg125
Vund
p406
sg144
g372
sg131
g132
(S'\x07\xe0\x01\x16\x02\x00\x10\x00\x00\x00'
tRp407
sg46
(dp408
g147
Nsg148
I00
sg149
g370
sg150
I00
sg151
I690344439546441728
sg52
I690353253419241473
sg152
I0
sg153
V<a href="http://twitter.com/download/iphone" rel="nofollow">Twitter for iPhone</a>
p409
sg155
I00
sg156
Nsg60
(dp410
g158
(lp411
sg160
(lp412
(dp413
g52
I920539489
sg35
(lp414
I0
aI6
asg64
V920539489
p415
sg86
V_zzak
p416
sg92
VZachary Scott
p417
sasg172
(lp418
sg31
(lp419
ssg175
V_zzak
p420
sg64
V690353253419241473
p421
sg178
I0
sg179
I920539489
sg180
I00
sg181
g386
sg182
Nsg183
V920539489
p422
sg88
g406
sg96
VFri Jan 22 02:00:16 +0000 2016
p423
sg186
V690344439546441728
p424
sg188
Nssg189
Nsg190
g422
sg27
g410
sg191
g424
sg192
g420
sg193
I920539489
sg194
I00
sg195
Nsg196
I0
sg108
g421
sbag2
(g3
g4
NtRp425
(dp426
g7
I00
sg8
Nsg9
I00
sg10
VIt also came with a bonus cat toy /cc @zacharybainter https://t.co/MhT9cTouAf
p427
sg12
Vhttp://twitter.com/download/iphone
p428
sS'possibly_sensitive'
p429
I00
sg14
I00
sg15
I690341493396107265
sg16
g2
(g17
g4
NtRp430
(dp431
g20
I00
sg21
I00
sg22
I01
sg23
V252429
p432
sg25
I21170138
sg26
I00
sg27
(dp433
g29
(dp434
g31
(lp435
(dp436
g29
Vhttps://t.co/43c4yJPxHK
p437
sg35
(lp438
I0
aI23
asg37
Vhttp://current.sh
p439
sg39
Vcurrent.sh
p440
sassg41
(dp441
g31
(lp442
sssg44
Vhttps://pbs.twimg.com/profile_images/685889035277963264/6kzNHj0N_normal.jpg
p443
sg46
(dp444
g48
I00
sg49
I00
sg50
I01
sg51
I00
sg52
I21170138
sg53
Vhttps://abs.twimg.com/images/themes/theme9/bg.gif
p445
sg55
I00
sg56
V666666
p446
sg58
g443
sg59
g432
sg60
g433
sg61
I2066
sg62
V181A1E
p447
sg64
V21170138
p448
sg66
V1A1B1F
p449
sg68
I110
sg69
I00
sg70
I-28800
sg71
I10167
sg41
VCo-Founder & CTO @currentsh
p450
sg73
I404
sg74
VSan Francisco, CA
p451
sg76
V9266CC
p452
sg78
Vhttp://pbs.twimg.com/profile_images/685889035277963264/6kzNHj0N_normal.jpg
p453
sg80
I00
sg81
I01
sg82
Vhttps://pbs.twimg.com/profile_banners/21170138/1452367124
p454
sg84
Vhttp://abs.twimg.com/images/themes/theme9/bg.gif
p455
sg86
Vjlsuttles
p456
sg88
Ven
p457
sg90
I00
sg91
I4875
sg92
V\u2728Jessica Suttles\u2728
p458
sg94
I00
sg29
Vhttps://t.co/43c4yJPxHK
p459
sg96
VWed Feb 18 04:49:31 +0000 2009
p460
sg98
I00
sg99
VTijuana
p461
sg101
I00
sg102
I00
sg103
I00
ssg104
I00
sg105
g446
sg106
I2066
sg107
g447
sg108
g448
sg109
I00
sg110
I110
sg111
I00
sg112
I-28800
sg113
I10167
sg114
g450
sg115
I404
sg116
g451
sg117
g452
sg118
g453
sg119
I00
sg120
I01
sg121
g449
sg122
g454
sg123
g455
sg124
g456
sg125
g457
sg126
I00
sg127
I00
sg128
I4875
sg129
g458
sg130
g459
sg131
g132
(S'\x07\xd9\x02\x12\x041\x1f\x00\x00\x00'
tRp462
sg134
g445
sg135
g461
sg136
I00
sg137
I00
sg138
I00
sbsg139
Nsg25
I690342063322353664
sg140
I4
sg141
VTwitter for iPhone
p463
sg125
Ven
p464
sg144
g430
sg131
g132
(S'\x07\xe0\x01\x16\x01\x0f0\x00\x00\x00'
tRp465
sg46
(dp466
g147
Nsg148
I00
sg149
g427
sg150
I00
sg151
I690341493396107265
sg52
I690342063322353664
sg152
I4
sg153
V<a href="http://twitter.com/download/iphone" rel="nofollow">Twitter for iPhone</a>
p467
sg155
I00
sg156
Nsg60
(dp468
g158
(lp469
sg160
(lp470
(dp471
g52
I1532055104
sg35
(lp472
I38
aI53
asg64
V1532055104
p473
sg86
Vzacharybainter
p474
sg92
VZachary Bainter 
p475
sasg172
(lp476
sg31
(lp477
sVmedia
p478
(lp479
(dp480
g37
Vhttp://twitter.com/jlsuttles/status/690342063322353664/photo/1
p481
sg39
Vpic.twitter.com/MhT9cTouAf
p482
sg29
Vhttps://t.co/MhT9cTouAf
p483
sVmedia_url_https
p484
Vhttps://pbs.twimg.com/media/CZSWcNcWkAA5uaY.jpg
p485
sg64
V690342054283612160
p486
sVsizes
p487
(dp488
Vlarge
p489
(dp490
Vh
I1024
sVresize
p491
Vfit
p492
sVw
I768
ssVsmall
p493
(dp494
Vh
I453
sg491
Vfit
p495
sVw
I340
ssVmedium
p496
(dp497
Vh
I800
sg491
Vfit
p498
sVw
I600
ssVthumb
p499
(dp500
Vh
I150
sg491
Vcrop
p501
sVw
I150
sssg35
(lp502
I54
aI77
asVtype
p503
Vphoto
p504
sg52
I690342054283612160
sVmedia_url
p505
Vhttp://pbs.twimg.com/media/CZSWcNcWkAA5uaY.jpg
p506
sassg175
Vjlsuttles
p507
sg64
V690342063322353664
p508
sg178
I0
sg179
I21170138
sg180
I00
sg181
g444
sg182
Nsg183
V21170138
p509
sVpossibly_sensitive
p510
I00
sg88
g464
sg96
VFri Jan 22 01:15:48 +0000 2016
p511
sg186
V690341493396107265
p512
sg188
NsVextended_entities
p513
(dp514
g478
(lp515
(dp516
g37
Vhttp://twitter.com/jlsuttles/status/690342063322353664/photo/1
p517
sg39
Vpic.twitter.com/MhT9cTouAf
p518
sg29
Vhttps://t.co/MhT9cTouAf
p519
sg484
Vhttps://pbs.twimg.com/media/CZSWcNcWkAA5uaY.jpg
p520
sg64
V690342054283612160
p521
sg487
(dp522
g489
(dp523
Vh
I1024
sg491
Vfit
p524
sVw
I768
ssg493
(dp525
Vh
I453
sg491
Vfit
p526
sVw
I340
ssg496
(dp527
Vh
I800
sg491
Vfit
p528
sVw
I600
ssg499
(dp529
Vh
I150
sg491
Vcrop
p530
sVw
I150
sssg35
(lp531
I54
aI77
asg503
Vphoto
p532
sg52
I690342054283612160
sg505
Vhttp://pbs.twimg.com/media/CZSWcNcWkAA5uaY.jpg
p533
sasssg189
Nsg190
g509
sg27
g468
sg191
g512
sg192
g507
sg193
I21170138
sS'extended_entities'
p534
g514
sg194
I00
sg195
Nsg196
I0
sg108
g508
sbag2
(g3
g4
NtRp535
(dp536
g7
I00
sg8
Nsg9
I00
sg10
VOMG look at this thoughtful gift from my financial advisor @zacharybainter   \u2764\ufe0f\U0001f49b\U0001f49a\U0001f499\U0001f49c\U0001f496 https://t.co/46TfJgXbTJ
p537
sg12
Vhttp://twitter.com/download/iphone
p538
sg429
I00
sg14
I00
sg15
Nsg16
g2
(g17
g4
NtRp539
(dp540
g20
I00
sg21
I00
sg22
I01
sg23
V252429
p541
sg25
I21170138
sg26
I00
sg27
(dp542
g29
(dp543
g31
(lp544
(dp545
g29
Vhttps://t.co/43c4yJPxHK
p546
sg35
(lp547
I0
aI23
asg37
Vhttp://current.sh
p548
sg39
Vcurrent.sh
p549
sassg41
(dp550
g31
(lp551
sssg44
Vhttps://pbs.twimg.com/profile_images/685889035277963264/6kzNHj0N_normal.jpg
p552
sg46
(dp553
g48
I00
sg49
I00
sg50
I01
sg51
I00
sg52
I21170138
sg53
Vhttps://abs.twimg.com/images/themes/theme9/bg.gif
p554
sg55
I00
sg56
V666666
p555
sg58
g552
sg59
g541
sg60
g542
sg61
I2066
sg62
V181A1E
p556
sg64
V21170138
p557
sg66
V1A1B1F
p558
sg68
I110
sg69
I00
sg70
I-28800
sg71
I10167
sg41
VCo-Founder & CTO @currentsh
p559
sg73
I404
sg74
VSan Francisco, CA
p560
sg76
V9266CC
p561
sg78
Vhttp://pbs.twimg.com/profile_images/685889035277963264/6kzNHj0N_normal.jpg
p562
sg80
I00
sg81
I01
sg82
Vhttps://pbs.twimg.com/profile_banners/21170138/1452367124
p563
sg84
Vhttp://abs.twimg.com/images/themes/theme9/bg.gif
p564
sg86
Vjlsuttles
p565
sg88
Ven
p566
sg90
I00
sg91
I4875
sg92
V\u2728Jessica Suttles\u2728
p567
sg94
I00
sg29
Vhttps://t.co/43c4yJPxHK
p568
sg96
VWed Feb 18 04:49:31 +0000 2009
p569
sg98
I00
sg99
VTijuana
p570
sg101
I00
sg102
I00
sg103
I00
ssg104
I00
sg105
g555
sg106
I2066
sg107
g556
sg108
g557
sg109
I00
sg110
I110
sg111
I00
sg112
I-28800
sg113
I10167
sg114
g559
sg115
I404
sg116
g560
sg117
g561
sg118
g562
sg119
I00
sg120
I01
sg121
g558
sg122
g563
sg123
g564
sg124
g565
sg125
g566
sg126
I00
sg127
I00
sg128
I4875
sg129
g567
sg130
g568
sg131
g132
(S'\x07\xd9\x02\x12\x041\x1f\x00\x00\x00'
tRp571
sg134
g554
sg135
g570
sg136
I00
sg137
I00
sg138
I00
sbsg139
Nsg25
I690341493396107265
sg140
I6
sg141
VTwitter for iPhone
p572
sg125
Ven
p573
sg144
g539
sg131
g132
(S'\x07\xe0\x01\x16\x01\r \x00\x00\x00'
tRp574
sg46
(dp575
g147
Nsg148
I00
sg149
g537
sg150
I00
sg151
Nsg52
I690341493396107265
sg152
I6
sg153
V<a href="http://twitter.com/download/iphone" rel="nofollow">Twitter for iPhone</a>
p576
sg155
I00
sg156
Nsg60
(dp577
g158
(lp578
sg160
(lp579
(dp580
g52
I1532055104
sg35
(lp581
I59
aI74
asg64
V1532055104
p582
sg86
Vzacharybainter
p583
sg92
VZachary Bainter 
p584
sasg172
(lp585
sg31
(lp586
sg478
(lp587
(dp588
g37
Vhttp://twitter.com/jlsuttles/status/690341493396107265/photo/1
p589
sg39
Vpic.twitter.com/46TfJgXbTJ
p590
sg29
Vhttps://t.co/46TfJgXbTJ
p591
sg484
Vhttps://pbs.twimg.com/media/CZSV6fHWkAEpPTP.jpg
p592
sg64
V690341474911817729
p593
sg487
(dp594
g493
(dp595
Vh
I453
sg491
Vfit
p596
sVw
I340
ssg489
(dp597
Vh
I1024
sg491
Vfit
p598
sVw
I768
ssg496
(dp599
Vh
I800
sg491
Vfit
p600
sVw
I600
ssg499
(dp601
Vh
I150
sg491
Vcrop
p602
sVw
I150
sssg35
(lp603
I85
aI108
asg503
Vphoto
p604
sg52
I690341474911817729
sg505
Vhttp://pbs.twimg.com/media/CZSV6fHWkAEpPTP.jpg
p605
sassg175
Nsg64
V690341493396107265
p606
sg178
I0
sg179
Nsg180
I00
sg181
g553
sg182
Nsg183
Nsg510
I00
sg88
g573
sg96
VFri Jan 22 01:13:32 +0000 2016
p607
sg186
Nsg188
Nsg513
(dp608
g478
(lp609
(dp610
g37
Vhttp://twitter.com/jlsuttles/status/690341493396107265/photo/1
p611
sg39
Vpic.twitter.com/46TfJgXbTJ
p612
sg29
Vhttps://t.co/46TfJgXbTJ
p613
sg484
Vhttps://pbs.twimg.com/media/CZSV6fHWkAEpPTP.jpg
p614
sg64
V690341474911817729
p615
sg487
(dp616
g493
(dp617
Vh
I453
sg491
Vfit
p618
sVw
I340
ssg489
(dp619
Vh
I1024
sg491
Vfit
p620
sVw
I768
ssg496
(dp621
Vh
I800
sg491
Vfit
p622
sVw
I600
ssg499
(dp623
Vh
I150
sg491
Vcrop
p624
sVw
I150
sssg35
(lp625
I85
aI108
asg503
Vphoto
p626
sg52
I690341474911817729
sg505
Vhttp://pbs.twimg.com/media/CZSV6fHWkAEpPTP.jpg
p627
sasssg189
Nsg190
Nsg27
g577
sg191
Nsg192
Nsg193
Nsg534
g608
sg194
I00
sg195
Nsg196
I0
sg108
g606
sbag2
(g3
g4
NtRp628
(dp629
g7
I00
sg8
Nsg9
I00
sg10
VRT @mattetti: Rock star @evanphx shredding code on his laptop showing how to auto generate testing mocks #golang https://t.co/k2SuTbhKqv
p630
sg12
Vhttp://twitter.com
p631
sg429
I00
sg14
I00
sg15
Nsg16
g2
(g17
g4
NtRp632
(dp633
g20
I00
sg21
I00
sg22
I01
sg23
V252429
p634
sg25
I21170138
sg26
I00
sg27
(dp635
g29
(dp636
g31
(lp637
(dp638
g29
Vhttps://t.co/43c4yJPxHK
p639
sg35
(lp640
I0
aI23
asg37
Vhttp://current.sh
p641
sg39
Vcurrent.sh
p642
sassg41
(dp643
g31
(lp644
sssg44
Vhttps://pbs.twimg.com/profile_images/685889035277963264/6kzNHj0N_normal.jpg
p645
sg46
(dp646
g48
I00
sg49
I00
sg50
I01
sg51
I00
sg52
I21170138
sg53
Vhttps://abs.twimg.com/images/themes/theme9/bg.gif
p647
sg55
I00
sg56
V666666
p648
sg58
g645
sg59
g634
sg60
g635
sg61
I2066
sg62
V181A1E
p649
sg64
V21170138
p650
sg66
V1A1B1F
p651
sg68
I110
sg69
I00
sg70
I-28800
sg71
I10167
sg41
VCo-Founder & CTO @currentsh
p652
sg73
I404
sg74
VSan Francisco, CA
p653
sg76
V9266CC
p654
sg78
Vhttp://pbs.twimg.com/profile_images/685889035277963264/6kzNHj0N_normal.jpg
p655
sg80
I00
sg81
I01
sg82
Vhttps://pbs.twimg.com/profile_banners/21170138/1452367124
p656
sg84
Vhttp://abs.twimg.com/images/themes/theme9/bg.gif
p657
sg86
Vjlsuttles
p658
sg88
Ven
p659
sg90
I00
sg91
I4875
sg92
V\u2728Jessica Suttles\u2728
p660
sg94
I00
sg29
Vhttps://t.co/43c4yJPxHK
p661
sg96
VWed Feb 18 04:49:31 +0000 2009
p662
sg98
I00
sg99
VTijuana
p663
sg101
I00
sg102
I00
sg103
I00
ssg104
I00
sg105
g648
sg106
I2066
sg107
g649
sg108
g650
sg109
I00
sg110
I110
sg111
I00
sg112
I-28800
sg113
I10167
sg114
g652
sg115
I404
sg116
g653
sg117
g654
sg118
g655
sg119
I00
sg120
I01
sg121
g651
sg122
g656
sg123
g657
sg124
g658
sg125
g659
sg126
I00
sg127
I00
sg128
I4875
sg129
g660
sg130
g661
sg131
g132
(S'\x07\xd9\x02\x12\x041\x1f\x00\x00\x00'
tRp664
sg134
g647
sg135
g663
sg136
I00
sg137
I00
sg138
I00
sbsg139
Nsg25
I690236564522205186
sg140
I0
sg125
Ven
p665
sS'retweeted_status'
p666
g2
(g3
g4
NtRp667
(dp668
g7
I00
sg8
Nsg9
I00
sg10
VRock star @evanphx shredding code on his laptop showing how to auto generate testing mocks #golang https://t.co/k2SuTbhKqv
p669
sg12
Vhttp://twitter.com/download/android
p670
sg429
I00
sg14
I00
sg15
Nsg16
g2
(g17
g4
NtRp671
(dp672
g20
I00
sg21
I00
sg22
I00
sg23
VDDFFCC
p673
sg25
I16476741
sg26
I00
sg27
(dp674
g29
(dp675
g31
(lp676
(dp677
g29
Vhttp://t.co/NmjabOSIbw
p678
sg35
(lp679
I0
aI22
asg37
Vhttp://matt.aimonetti.net/
p680
sg39
Vmatt.aimonetti.net
p681
sassg41
(dp682
g31
(lp683
sssg44
Vhttps://pbs.twimg.com/profile_images/640746802300391424/_xoi1dGN_normal.jpg
p684
sg46
(dp685
g48
I00
sg49
I00
sg50
I00
sg51
I00
sg52
I16476741
sg53
Vhttps://pbs.twimg.com/profile_background_images/3633097/merbist_twitter.gif
p686
sg55
I00
sg56
V333333
p687
sg58
g684
sg59
g673
sg60
g674
sg61
I7843
sg62
VBDDCAD
p688
sg64
V16476741
p689
sg66
VAAC7E6
p690
sg68
I683
sg69
I00
sg70
I-28800
sg71
I27511
sg41
V@Splice co-founder - Tech entrepreneur - Author, Speaker, Technologist - Formerly LivingSocial | Sony PlayStation | ...
p691
sg73
I1164
sg74
VSanta Monica, CA
p692
sg76
V0084B4
p693
sg78
Vhttp://pbs.twimg.com/profile_images/640746802300391424/_xoi1dGN_normal.jpg
p694
sg80
I00
sg81
I01
sg82
Vhttps://pbs.twimg.com/profile_banners/16476741/1441600915
p695
sg84
Vhttp://pbs.twimg.com/profile_background_images/3633097/merbist_twitter.gif
p696
sg86
Vmattetti
p697
sg88
Ven
p698
sg90
I00
sg91
I3505
sg92
VMatt Aimonetti
p699
sg94
I00
sg29
Vhttp://t.co/NmjabOSIbw
p700
sg96
VFri Sep 26 23:07:57 +0000 2008
p701
sg98
I00
sg99
VPacific Time (US & Canada)
p702
sg101
I00
sg102
I00
sg103
I00
ssg104
I00
sg105
g687
sg106
I7843
sg107
g688
sg108
g689
sg109
I00
sg110
I683
sg111
I00
sg112
I-28800
sg113
I27511
sg114
g691
sg115
I1164
sg116
g692
sg117
g693
sg118
g694
sg119
I00
sg120
I01
sg121
g690
sg122
g695
sg123
g696
sg124
g697
sg125
g698
sg126
I00
sg127
I00
sg128
I3505
sg129
g699
sg130
g700
sg131
g132
(S'\x07\xd8\t\x1a\x17\x079\x00\x00\x00'
tRp703
sg134
g686
sg135
g702
sg136
I00
sg137
I00
sg138
I00
sbsg139
Nsg25
I690026759643906049
sg140
I31
sg141
VTwitter for Android
p704
sg125
Ven
p705
sg144
g671
sg131
g132
(S'\x07\xe0\x01\x15\x04\x166\x00\x00\x00'
tRp706
sg46
(dp707
g147
Nsg148
I00
sg149
g669
sg150
I00
sg151
Nsg52
I690026759643906049
sg152
I31
sg153
V<a href="http://twitter.com/download/android" rel="nofollow">Twitter for Android</a>
p708
sg155
I00
sg156
Nsg60
(dp709
g158
(lp710
sg160
(lp711
(dp712
g52
I5444392
sg35
(lp713
I10
aI18
asg64
V5444392
p714
sg86
Vevanphx
p715
sg92
VEvan Phoenix
p716
sasg172
(lp717
(dp718
g35
(lp719
I91
aI98
asg149
Vgolang
p720
sasg31
(lp721
sg478
(lp722
(dp723
g37
Vhttp://twitter.com/mattetti/status/690026759643906049/photo/1
p724
sg39
Vpic.twitter.com/k2SuTbhKqv
p725
sg29
Vhttps://t.co/k2SuTbhKqv
p726
sg484
Vhttps://pbs.twimg.com/media/CZN3qhvXEAEpSNQ.jpg
p727
sg64
V690026740413042689
p728
sg487
(dp729
g489
(dp730
Vh
I1365
sg491
Vfit
p731
sVw
I1024
ssg493
(dp732
Vh
I453
sg491
Vfit
p733
sVw
I340
ssg496
(dp734
Vh
I800
sg491
Vfit
p735
sVw
I600
ssg499
(dp736
Vh
I150
sg491
Vcrop
p737
sVw
I150
sssg35
(lp738
I99
aI122
asg503
Vphoto
p739
sg52
I690026740413042689
sg505
Vhttp://pbs.twimg.com/media/CZN3qhvXEAEpSNQ.jpg
p740
sassg175
Nsg64
V690026759643906049
p741
sg178
I11
sg179
Nsg180
I00
sg181
g685
sg182
Nsg183
Nsg510
I00
sg88
g705
sg96
VThu Jan 21 04:22:54 +0000 2016
p742
sg186
Nsg188
Nsg513
(dp743
g478
(lp744
(dp745
g37
Vhttp://twitter.com/mattetti/status/690026759643906049/photo/1
p746
sg39
Vpic.twitter.com/k2SuTbhKqv
p747
sg29
Vhttps://t.co/k2SuTbhKqv
p748
sg484
Vhttps://pbs.twimg.com/media/CZN3qhvXEAEpSNQ.jpg
p749
sg64
V690026740413042689
p750
sg487
(dp751
g489
(dp752
Vh
I1365
sg491
Vfit
p753
sVw
I1024
ssg493
(dp754
Vh
I453
sg491
Vfit
p755
sVw
I340
ssg496
(dp756
Vh
I800
sg491
Vfit
p757
sVw
I600
ssg499
(dp758
Vh
I150
sg491
Vcrop
p759
sVw
I150
sssg35
(lp760
I99
aI122
asg503
Vphoto
p761
sg52
I690026740413042689
sg505
Vhttp://pbs.twimg.com/media/CZN3qhvXEAEpSNQ.jpg
p762
sasssg189
Nsg190
Nsg27
g709
sg191
Nsg192
Nsg193
Nsg534
g743
sg194
I00
sg195
Nsg196
I11
sg108
g741
sbsg27
(dp763
g158
(lp764
sg160
(lp765
(dp766
g52
I16476741
sg35
(lp767
I3
aI12
asg64
V16476741
p768
sg86
Vmattetti
p769
sg92
VMatt Aimonetti
p770
sa(dp771
g52
I5444392
sg35
(lp772
I24
aI32
asg64
V5444392
p773
sg86
Vevanphx
p774
sg92
VEvan Phoenix
p775
sasg172
(lp776
(dp777
g35
(lp778
I105
aI112
asg149
Vgolang
p779
sasg31
(lp780
sg478
(lp781
(dp782
Vsource_user_id
p783
I16476741
sVsource_status_id_str
p784
V690026759643906049
p785
sg37
Vhttp://twitter.com/mattetti/status/690026759643906049/photo/1
p786
sg39
Vpic.twitter.com/k2SuTbhKqv
p787
sg29
Vhttps://t.co/k2SuTbhKqv
p788
sg484
Vhttps://pbs.twimg.com/media/CZN3qhvXEAEpSNQ.jpg
p789
sVsource_user_id_str
p790
V16476741
p791
sVsource_status_id
p792
I690026759643906049
sg64
V690026740413042689
p793
sg487
(dp794
g489
(dp795
Vh
I1365
sg491
Vfit
p796
sVw
I1024
ssg493
(dp797
Vh
I453
sg491
Vfit
p798
sVw
I340
ssg496
(dp799
Vh
I800
sg491
Vfit
p800
sVw
I600
ssg499
(dp801
Vh
I150
sg491
Vcrop
p802
sVw
I150
sssg35
(lp803
I113
aI136
asg503
Vphoto
p804
sg52
I690026740413042689
sg505
Vhttp://pbs.twimg.com/media/CZN3qhvXEAEpSNQ.jpg
p805
sassg131
g132
(S'\x07\xe0\x01\x15\x12\x10#\x00\x00\x00'
tRp806
sg144
g632
sg46
(dp807
g147
Nsg148
I00
sg149
g630
sg150
I00
sg151
Nsg52
I690236564522205186
sg152
I0
sg153
V<a href="http://twitter.com" rel="nofollow">Twitter Web Client</a>
p808
sg155
I00
sg156
Nsg60
g763
sg175
Nsg64
V690236564522205186
p809
sg178
I11
sg179
Nsg180
I00
sVretweeted_status
p810
g707
sg181
g646
sg182
Nsg183
Nsg510
I00
sg88
g665
sg96
VThu Jan 21 18:16:35 +0000 2016
p811
sg186
Nsg188
Nsg513
(dp812
g478
(lp813
(dp814
g783
I16476741
sg784
V690026759643906049
p815
sg37
Vhttp://twitter.com/mattetti/status/690026759643906049/photo/1
p816
sg39
Vpic.twitter.com/k2SuTbhKqv
p817
sg29
Vhttps://t.co/k2SuTbhKqv
p818
sg484
Vhttps://pbs.twimg.com/media/CZN3qhvXEAEpSNQ.jpg
p819
sg790
V16476741
p820
sg792
I690026759643906049
sg64
V690026740413042689
p821
sg487
(dp822
g489
(dp823
Vh
I1365
sg491
Vfit
p824
sVw
I1024
ssg493
(dp825
Vh
I453
sg491
Vfit
p826
sVw
I340
ssg496
(dp827
Vh
I800
sg491
Vfit
p828
sVw
I600
ssg499
(dp829
Vh
I150
sg491
Vcrop
p830
sVw
I150
sssg35
(lp831
I113
aI136
asg503
Vphoto
p832
sg52
I690026740413042689
sg505
Vhttp://pbs.twimg.com/media/CZN3qhvXEAEpSNQ.jpg
p833
sasssg189
Nsg190
Nsg141
VTwitter Web Client
p834
sg191
Nsg192
Nsg193
Nsg534
g812
sg194
I00
sg195
Nsg196
I11
sg108
g809
sbag2
(g3
g4
NtRp835
(dp836
g7
I00
sg8
Nsg9
I00
sg10
V@jessicaspacekat teach me how to always be getting cuter
p837
sg12
Vhttp://twitter.com
p838
sg14
I00
sg15
I689922309180686336
sg16
g2
(g17
g4
NtRp839
(dp840
g20
I00
sg21
I00
sg22
I01
sg23
V252429
p841
sg25
I21170138
sg26
I00
sg27
(dp842
g29
(dp843
g31
(lp844
(dp845
g29
Vhttps://t.co/43c4yJPxHK
p846
sg35
(lp847
I0
aI23
asg37
Vhttp://current.sh
p848
sg39
Vcurrent.sh
p849
sassg41
(dp850
g31
(lp851
sssg44
Vhttps://pbs.twimg.com/profile_images/685889035277963264/6kzNHj0N_normal.jpg
p852
sg46
(dp853
g48
I00
sg49
I00
sg50
I01
sg51
I00
sg52
I21170138
sg53
Vhttps://abs.twimg.com/images/themes/theme9/bg.gif
p854
sg55
I00
sg56
V666666
p855
sg58
g852
sg59
g841
sg60
g842
sg61
I2066
sg62
V181A1E
p856
sg64
V21170138
p857
sg66
V1A1B1F
p858
sg68
I110
sg69
I00
sg70
I-28800
sg71
I10167
sg41
VCo-Founder & CTO @currentsh
p859
sg73
I404
sg74
VSan Francisco, CA
p860
sg76
V9266CC
p861
sg78
Vhttp://pbs.twimg.com/profile_images/685889035277963264/6kzNHj0N_normal.jpg
p862
sg80
I00
sg81
I01
sg82
Vhttps://pbs.twimg.com/profile_banners/21170138/1452367124
p863
sg84
Vhttp://abs.twimg.com/images/themes/theme9/bg.gif
p864
sg86
Vjlsuttles
p865
sg88
Ven
p866
sg90
I00
sg91
I4875
sg92
V\u2728Jessica Suttles\u2728
p867
sg94
I00
sg29
Vhttps://t.co/43c4yJPxHK
p868
sg96
VWed Feb 18 04:49:31 +0000 2009
p869
sg98
I00
sg99
VTijuana
p870
sg101
I00
sg102
I00
sg103
I00
ssg104
I00
sg105
g855
sg106
I2066
sg107
g856
sg108
g857
sg109
I00
sg110
I110
sg111
I00
sg112
I-28800
sg113
I10167
sg114
g859
sg115
I404
sg116
g860
sg117
g861
sg118
g862
sg119
I00
sg120
I01
sg121
g858
sg122
g863
sg123
g864
sg124
g865
sg125
g866
sg126
I00
sg127
I00
sg128
I4875
sg129
g867
sg130
g868
sg131
g132
(S'\x07\xd9\x02\x12\x041\x1f\x00\x00\x00'
tRp871
sg134
g854
sg135
g870
sg136
I00
sg137
I00
sg138
I00
sbsg139
Nsg25
I689923239489830912
sg140
I1
sg141
VTwitter Web Client
p872
sg125
Ven
p873
sg144
g839
sg131
g132
(S'\x07\xe0\x01\x14\x15\x1f!\x00\x00\x00'
tRp874
sg46
(dp875
g147
Nsg148
I00
sg149
g837
sg150
I00
sg151
I689922309180686336
sg52
I689923239489830912
sg152
I1
sg153
V<a href="http://twitter.com" rel="nofollow">Twitter Web Client</a>
p876
sg155
I00
sg156
Nsg60
(dp877
g158
(lp878
sg160
(lp879
(dp880
g52
I39397462
sg35
(lp881
I0
aI16
asg64
V39397462
p882
sg86
Vjessicaspacekat
p883
sg92
Vjessicaspacekat
p884
sasg172
(lp885
sg31
(lp886
ssg175
Vjessicaspacekat
p887
sg64
V689923239489830912
p888
sg178
I0
sg179
I39397462
sg180
I00
sg181
g853
sg182
Nsg183
V39397462
p889
sg88
g873
sg96
VWed Jan 20 21:31:33 +0000 2016
p890
sg186
V689922309180686336
p891
sg188
Nssg189
Nsg190
g889
sg27
g877
sg191
g891
sg192
g887
sg193
I39397462
sg194
I00
sg195
Nsg196
I0
sg108
g888
sbag2
(g3
g4
NtRp892
(dp893
g7
I00
sg8
Nsg9
I00
sg10
V@infraredflower Cute!!
p894
sg12
Vhttp://twitter.com
p895
sg14
I00
sg15
I689910298501771265
sg16
g2
(g17
g4
NtRp896
(dp897
g20
I00
sg21
I00
sg22
I01
sg23
V252429
p898
sg25
I21170138
sg26
I00
sg27
(dp899
g29
(dp900
g31
(lp901
(dp902
g29
Vhttps://t.co/43c4yJPxHK
p903
sg35
(lp904
I0
aI23
asg37
Vhttp://current.sh
p905
sg39
Vcurrent.sh
p906
sassg41
(dp907
g31
(lp908
sssg44
Vhttps://pbs.twimg.com/profile_images/685889035277963264/6kzNHj0N_normal.jpg
p909
sg46
(dp910
g48
I00
sg49
I00
sg50
I01
sg51
I00
sg52
I21170138
sg53
Vhttps://abs.twimg.com/images/themes/theme9/bg.gif
p911
sg55
I00
sg56
V666666
p912
sg58
g909
sg59
g898
sg60
g899
sg61
I2066
sg62
V181A1E
p913
sg64
V21170138
p914
sg66
V1A1B1F
p915
sg68
I110
sg69
I00
sg70
I-28800
sg71
I10167
sg41
VCo-Founder & CTO @currentsh
p916
sg73
I404
sg74
VSan Francisco, CA
p917
sg76
V9266CC
p918
sg78
Vhttp://pbs.twimg.com/profile_images/685889035277963264/6kzNHj0N_normal.jpg
p919
sg80
I00
sg81
I01
sg82
Vhttps://pbs.twimg.com/profile_banners/21170138/1452367124
p920
sg84
Vhttp://abs.twimg.com/images/themes/theme9/bg.gif
p921
sg86
Vjlsuttles
p922
sg88
Ven
p923
sg90
I00
sg91
I4875
sg92
V\u2728Jessica Suttles\u2728
p924
sg94
I00
sg29
Vhttps://t.co/43c4yJPxHK
p925
sg96
VWed Feb 18 04:49:31 +0000 2009
p926
sg98
I00
sg99
VTijuana
p927
sg101
I00
sg102
I00
sg103
I00
ssg104
I00
sg105
g912
sg106
I2066
sg107
g913
sg108
g914
sg109
I00
sg110
I110
sg111
I00
sg112
I-28800
sg113
I10167
sg114
g916
sg115
I404
sg116
g917
sg117
g918
sg118
g919
sg119
I00
sg120
I01
sg121
g915
sg122
g920
sg123
g921
sg124
g922
sg125
g923
sg126
I00
sg127
I00
sg128
I4875
sg129
g924
sg130
g925
sg131
g132
(S'\x07\xd9\x02\x12\x041\x1f\x00\x00\x00'
tRp928
sg134
g911
sg135
g927
sg136
I00
sg137
I00
sg138
I00
sbsg139
Nsg25
I689915680863354880
sg140
I1
sg141
VTwitter Web Client
p929
sg125
Ven
p930
sg144
g896
sg131
g132
(S'\x07\xe0\x01\x14\x15\x01\x1e\x00\x00\x00'
tRp931
sg46
(dp932
g147
Nsg148
I00
sg149
g894
sg150
I00
sg151
I689910298501771265
sg52
I689915680863354880
sg152
I1
sg153
V<a href="http://twitter.com" rel="nofollow">Twitter Web Client</a>
p933
sg155
I00
sg156
Nsg60
(dp934
g158
(lp935
sg160
(lp936
(dp937
g52
I43943
sg35
(lp938
I0
aI15
asg64
V43943
p939
sg86
Vinfraredflower
p940
sg92
VElizabeth Ford
p941
sasg172
(lp942
sg31
(lp943
ssg175
Vinfraredflower
p944
sg64
V689915680863354880
p945
sg178
I0
sg179
I43943
sg180
I00
sg181
g910
sg182
Nsg183
V43943
p946
sg88
g930
sg96
VWed Jan 20 21:01:30 +0000 2016
p947
sg186
V689910298501771265
p948
sg188
Nssg189
Nsg190
g946
sg27
g934
sg191
g948
sg192
g944
sg193
I43943
sg194
I00
sg195
Nsg196
I0
sg108
g945
sbag2
(g3
g4
NtRp949
(dp950
g7
I00
sg8
Nsg9
I00
sg10
V@SaltineJustine \U0001f525\U0001f525\U0001f525 burn it down \U0001f525\U0001f525\U0001f525
p951
sg12
Vhttp://twitter.com
p952
sg14
I00
sg15
I689879629956538369
sg16
g2
(g17
g4
NtRp953
(dp954
g20
I00
sg21
I00
sg22
I01
sg23
V252429
p955
sg25
I21170138
sg26
I00
sg27
(dp956
g29
(dp957
g31
(lp958
(dp959
g29
Vhttps://t.co/43c4yJPxHK
p960
sg35
(lp961
I0
aI23
asg37
Vhttp://current.sh
p962
sg39
Vcurrent.sh
p963
sassg41
(dp964
g31
(lp965
sssg44
Vhttps://pbs.twimg.com/profile_images/685889035277963264/6kzNHj0N_normal.jpg
p966
sg46
(dp967
g48
I00
sg49
I00
sg50
I01
sg51
I00
sg52
I21170138
sg53
Vhttps://abs.twimg.com/images/themes/theme9/bg.gif
p968
sg55
I00
sg56
V666666
p969
sg58
g966
sg59
g955
sg60
g956
sg61
I2066
sg62
V181A1E
p970
sg64
V21170138
p971
sg66
V1A1B1F
p972
sg68
I110
sg69
I00
sg70
I-28800
sg71
I10167
sg41
VCo-Founder & CTO @currentsh
p973
sg73
I404
sg74
VSan Francisco, CA
p974
sg76
V9266CC
p975
sg78
Vhttp://pbs.twimg.com/profile_images/685889035277963264/6kzNHj0N_normal.jpg
p976
sg80
I00
sg81
I01
sg82
Vhttps://pbs.twimg.com/profile_banners/21170138/1452367124
p977
sg84
Vhttp://abs.twimg.com/images/themes/theme9/bg.gif
p978
sg86
Vjlsuttles
p979
sg88
Ven
p980
sg90
I00
sg91
I4875
sg92
V\u2728Jessica Suttles\u2728
p981
sg94
I00
sg29
Vhttps://t.co/43c4yJPxHK
p982
sg96
VWed Feb 18 04:49:31 +0000 2009
p983
sg98
I00
sg99
VTijuana
p984
sg101
I00
sg102
I00
sg103
I00
ssg104
I00
sg105
g969
sg106
I2066
sg107
g970
sg108
g971
sg109
I00
sg110
I110
sg111
I00
sg112
I-28800
sg113
I10167
sg114
g973
sg115
I404
sg116
g974
sg117
g975
sg118
g976
sg119
I00
sg120
I01
sg121
g972
sg122
g977
sg123
g978
sg124
g979
sg125
g980
sg126
I00
sg127
I00
sg128
I4875
sg129
g981
sg130
g982
sg131
g132
(S'\x07\xd9\x02\x12\x041\x1f\x00\x00\x00'
tRp985
sg134
g968
sg135
g984
sg136
I00
sg137
I00
sg138
I00
sbsg139
Nsg25
I689882806235754496
sg140
I1
sg141
VTwitter Web Client
p986
sg125
Ven
p987
sg144
g953
sg131
g132
(S'\x07\xe0\x01\x14\x1225\x00\x00\x00'
tRp988
sg46
(dp989
g147
Nsg148
I00
sg149
g951
sg150
I00
sg151
I689879629956538369
sg52
I689882806235754496
sg152
I1
sg153
V<a href="http://twitter.com" rel="nofollow">Twitter Web Client</a>
p990
sg155
I00
sg156
Nsg60
(dp991
g158
(lp992
sg160
(lp993
(dp994
g52
I18210275
sg35
(lp995
I0
aI15
asg64
V18210275
p996
sg86
VSaltineJustine
p997
sg92
VJustine Arreche
p998
sasg172
(lp999
sg31
(lp1000
ssg175
VSaltineJustine
p1001
sg64
V689882806235754496
p1002
sg178
I0
sg179
I18210275
sg180
I00
sg181
g967
sg182
Nsg183
V18210275
p1003
sg88
g987
sg96
VWed Jan 20 18:50:53 +0000 2016
p1004
sg186
V689879629956538369
p1005
sg188
Nssg189
Nsg190
g1003
sg27
g991
sg191
g1005
sg192
g1001
sg193
I18210275
sg194
I00
sg195
Nsg196
I0
sg108
g1002
sba.