(lp1
(dp2
S'text'
p3
(lp4
Vhere's
p5
aVwhat
p6
aVour
p7
aVinstagram
p8
aVcommunity
p9
aVpacked
p10
aVfor
p11
aVthis
p12
aVyear's
p13
aVces
p14
aV.
aVhttps://t.co/m47bn7fyih
p15
aV#travel
p16
aV#tech
p17
asS'created_at'
p18
cdatetime
datetime
p19
(S'\x07\xe0\x01\x17\x112\x1a\x00\x00\x00'
tRp20
sS'lat/long'
p21
NsS'name'
p22
VAshleyLaurel
p23
sa(dp24
g3
(lp25
Vnike's
p26
aVjapanese-inspired
p27
aVcherry
p28
aVblossom
p29
aVrange
p30
aVwill
p31
aVignite
p32
aVyour
p33
aVinner
p34
aVflower
p35
aVchild
p36
aV.
aVhttps://t.co/boz7bchryz
p37
aV#fashion
p38
aV#wishlist
p39
asg18
g19
(S'\x07\xe0\x01\x17\x01(\x14\x00\x00\x00'
tRp40
sg21
Nsg22
VAshleyLaurel
p41
sa(dp42
g3
(lp43
Von-demand
p44
aVcustomer
p45
aVexperiences
p46
aVare
p47
aVin
p48
aVdemand
p49
aV.
aVhttps://t.co/zw4uiccxaw
p50
asg18
g19
(S'\x07\xe0\x01\x16\x15\x015\x00\x00\x00'
tRp51
sg21
Nsg22
VAshleyLaurel
p52
sa(dp53
g3
(lp54
V@theslinshady
p55
aVhaha
p56
aVno
p57
aVworries
p58
aV!
aVi
aVdidn't
p59
aVknow
p60
aVyou
p61
aVwere
p62
aVeither
p63
aV!
aV:)
p64
asg18
g19
(S'\x07\xe0\x01\x16\x14;\x19\x00\x00\x00'
tRp65
sg21
Nsg22
VAshleyLaurel
p66
sa(dp67
g3
(lp68
Vhow
p69
aVmobile
p70
aVis
p71
aVreshaping
p72
aVthe
p73
aVentire
p74
aVshopping
p75
aVexperience
p76
aV.
aVhttps://t.co/jj3vngszsc
p77
aV#mcommerce
p78
asg18
g19
(S'\x07\xe0\x01\x16\x14\x14\x0e\x00\x00\x00'
tRp79
sg21
Nsg22
VAshleyLaurel
p80
sa(dp81
g3
(lp82
V@theslinshady
p83
aV*
aVcough
p84
aV*
asg18
g19
(S'\x07\xe0\x01\x16\x14\x00*\x00\x00\x00'
tRp85
sg21
Nsg22
VAshleyLaurel
p86
sa(dp87
g3
(lp88
Vhunted
p89
aVthe
p90
aVsoundcase
p91
aVon
p92
aV@producthunt
p93
aVhttps://t.co/apchddj7az.
p94
aV#fashiontech
p95
aV#wearables
p96
asg18
g19
(S'\x07\xe0\x01\x16\x13(\r\x00\x00\x00'
tRp97
sg21
Nsg22
VAshleyLaurel
p98
sa(dp99
g3
(lp100
Vyou
p101
aVcan
p102
aV\u2019
aVt
aVachieve
p103
aVyour
p104
aVgoals
p105
aVwithout
p106
aVthe
p107
aVright
p108
aVsupport
p109
aV.
aVhttps://t.co/rrfczpgqcq
p110
asg18
g19
(S'\x07\xe0\x01\x16\x11 \x05\x00\x00\x00'
tRp111
sg21
Nsg22
VAshleyLaurel
p112
sa(dp113
g3
(lp114
Vrad
p115
aVspeaker
p116
aVsystem
p117
aV+
aVfunctionality
p118
aVof
p119
aVa
aVbriefcase
p120
aV=
aVthe
p121
aVsoundcase
p122
aVhttps://t.co/rlia7novqy
p123
asg18
g19
(S'\x07\xe0\x01\x16\x11\x12.\x00\x00\x00'
tRp124
sg21
Nsg22
VAshleyLaurel
p125
sa(dp126
g3
(lp127
V@bosefina
p128
aVlol
p129
aVyay
p130
aV!
aV#ftw
p131
asg18
g19
(S'\x07\xe0\x01\x16\x0137\x00\x00\x00'
tRp132
sg21
Nsg22
VAshleyLaurel
p133
sa(dp134
g3
(lp135
V@uber_support
p136
aV\U0001f60e
asg18
g19
(S'\x07\xe0\x01\x16\x01.\x1a\x00\x00\x00'
tRp137
sg21
Nsg22
VAshleyLaurel
p138
sa(dp139
g3
(lp140
Vmy
p141
aV@uber
p142
aVdriver
p143
aVis
p144
aVplaying
p145
aVbeastie
p146
aVboys
p147
aV.
aV#tbt
p148
asg18
g19
(S'\x07\xe0\x01\x16\x01,\x12\x00\x00\x00'
tRp149
sg21
Nsg22
VAshleyLaurel
p150
sa(dp151
g3
(lp152
Vrt
p153
aV@staringispolite
p154
aV:
aVi
aVlike
p155
aVto
p156
aVimagine
p157
aV@producthunt
p158
aVboard
p159
aVmtgs
p160
aVare
p161
aVspent
p162
aVhuddled
p163
aVaround
p164
aV@rrhoover
p165
aV'
aVs
aVphone
p166
aVas
p167
aVhe
p168
aVdemos
p169
aVapps
p170
aV.
aVplus
p171
aVkittens
p172
aV.
aVh
aV\u2026
asg18
g19
(S'\x07\xe0\x01\x15\x14#\x07\x00\x00\x00'
tRp173
sg21
Nsg22
VAshleyLaurel
p174
sa(dp175
g3
(lp176
Vrt
p177
aV@cbsnews
p178
aV:
aVon
p179
aV#squirrelappreciationday
p180
aV,
aVphotos
p181
aVof
p182
aVsquirrels
p183
aVgoing
p184
aVcompletely
p185
aVnuts
p186
aV:
aVhttps://t.co/91y5kezxqy
p187
aVhttps://t.co/14g9iwzyo4
p188
asg18
g19
(S'\x07\xe0\x01\x15\x14!\x07\x00\x00\x00'
tRp189
sg21
Nsg22
VAshleyLaurel
p190
sa(dp191
g3
(lp192
V5
aVannoying
p193
aVdirect
p194
aVmessages
p195
aVon
p196
aVtwitter
p197
aV(
aVand
p198
aVwhy
p199
aVyou
p200
aVshould
p201
aVstop
p202
aVusing
p203
aVall
p204
aVof
p205
aVthem
p206
aV)
aV.
aVhttps://t.co/mf5phmohra
p207
asg18
g19
(S'\x07\xe0\x01\x15\x14 \x00\x00\x00\x00'
tRp208
sg21
Nsg22
VAshleyLaurel
p209
sa(dp210
g3
(lp211
Vpink
p212
aVpick
p213
aVme
p214
aVup
p215
aV!
aVhttps://t.co/wbftcsky8t
p216
asg18
g19
(S'\x07\xe0\x01\x15\x13\x18\x01\x00\x00\x00'
tRp217
sg21
Nsg22
VAshleyLaurel
p218
sa(dp219
g3
(lp220
V5
aValmost
p221
aVeffortless
p222
aVways
p223
aVto
p224
aVbecome
p225
aVa
aVmorning
p226
aVperson
p227
aV.
aVhttps://t.co/1p3xmyvpec
p228
asg18
g19
(S'\x07\xe0\x01\x15\x0f\x1f;\x00\x00\x00'
tRp229
sg21
Nsg22
VAshleyLaurel
p230
sa(dp231
g3
(lp232
Vmigraine
p233
aV.
aV\U0001f623
asg18
g19
(S'\x07\xe0\x01\x15\x02\x19\x1f\x00\x00\x00'
tRp234
sg21
Nsg22
VAshleyLaurel
p235
sa(dp236
g3
(lp237
V7
aVhandy
p238
aVexcel
p239
aVtricks
p240
aVthat'll
p241
aVimpress
p242
aVyour
p243
aVboss
p244
aV.
aVhttps://t.co/moscqcjn5b
p245
aVhttps://t.co/noolktsmzl
p246
asg18
g19
(S'\x07\xe0\x01\x15\x00\x014\x00\x00\x00'
tRp247
sg21
Nsg22
VAshleyLaurel
p248
sa(dp249
g3
(lp250
Vhow
p251
aVcrm
p252
aVarrived
p253
aVat
p254
aVthe
p255
aVcore
p256
aVof
p257
aVthe
p258
aVcustomer-centric
p259
aVworld
p260
aV.
aVhttps://t.co/nf0ss1vyqx
p261
aVhttps://t.co/aneodwqt22
p262
asg18
g19
(S'\x07\xe0\x01\x14\x16\x01-\x00\x00\x00'
tRp263
sg21
Nsg22
VAshleyLaurel
p264
sa(dp265
g3
(lp266
Vrt
p267
aV@venturebeat
p268
aV:
aVmarketers
p269
aVto
p270
aVimplement
p271
aVemail
p272
aVand
p273
aVfacebook
p274
aVbuy
p275
aVbuttons
p276
aVin
p277
aV2016
p278
aVhttps://t.co/uw04sadrib
p279
aVhttps://t.co/ya1jotbscq
p280
asg18
g19
(S'\x07\xe0\x01\x14\x13-2\x00\x00\x00'
tRp281
sg21
Nsg22
VAshleyLaurel
p282
sa(dp283
g3
(lp284
V@bosefina
p285
aVi
aVwas
p286
aVjust
p287
aVthinking
p288
aVthat
p289
aV!
asg18
g19
(S'\x07\xe0\x01\x14\x13#\x0e\x00\x00\x00'
tRp290
sg21
Nsg22
VAshleyLaurel
p291
sa(dp292
g3
(lp293
Vrt
p294
aV@everythinggoats
p295
aV:
aVwhen
p296
aVpeople
p297
aVwaiting
p298
aVon
p299
aVyour
p300
aVdownfall
p301
aVbut
p302
aVyou
p303
aV\u2019
aVre
p304
aVa
aVgoat
p305
aVhttps://t.co/x8rncmtmtr
p306
asg18
g19
(S'\x07\xe0\x01\x14\x13"4\x00\x00\x00'
tRp307
sg21
Nsg22
VAshleyLaurel
p308
sa(dp309
g3
(lp310
Viot
p311
aVstartup
p312
aV@theneura
p313
aVraises
p314
aV$
aV11
p315
aVmillion
p316
aVto
p317
aVcreate
p318
aVdigital
p319
aVidentities
p320
aVfrom
p321
aVconsumers
p322
aV'
aVconnected
p323
aVdevices
p324
aV.
aVhttps://t.co/x7n2lbr6ss
p325
asg18
g19
(S'\x07\xe0\x01\x14\x13\x01)\x00\x00\x00'
tRp326
sg21
Nsg22
VAshleyLaurel
p327
sa(dp328
g3
(lp329
Vsony
p330
aVbuilds
p331
aVmultifunctional
p332
aVlight
p333
aV,
aVa
aVceiling
p334
aVlamp
p335
aVthat
p336
aVacts
p337
aVas
p338
aVa
aVsmart
p339
aVhome
p340
aVhub
p341
aV.
aVhttps://t.co/hsyrnmnleb
p342
asg18
g19
(S'\x07\xe0\x01\x14\x11\x01;\x00\x00\x00'
tRp343
sg21
Nsg22
VAshleyLaurel
p344
sa(dp345
g3
(lp346
Vninth
p347
aVplanet
p348
aVmay
p349
aVexist
p350
aVin
p351
aVsolar
p352
aVsystem
p353
aVbeyond
p354
aVpluto
p355
aV,
aVscientists
p356
aVreport
p357
aV.
aVhttps://t.co/ffv6npvsuw
p358
aVhttps://t.co/hrxfbarlry
p359
asg18
g19
(S'\x07\xe0\x01\x14\x100\x11\x00\x00\x00'
tRp360
sg21
Nsg22
VAshleyLaurel
p361
sa(dp362
g3
(lp363
V9
aVfacebook
p364
aVad
p365
aVcampaign
p366
aVexamples
p367
aVcritiqued
p368
aVfor
p369
aVconversion
p370
aV.
aVhttps://t.co/wiboawxkb4
p371
asg18
g19
(S'\x07\xe0\x01\x14\x10#$\x00\x00\x00'
tRp372
sg21
Nsg22
VAshleyLaurel
p373
sa(dp374
g3
(lp375
Vrt
p376
aV@fashiontechme
p377
aV:
aVinternet
p378
aVof
p379
aVthings
p380
aV:
aV10
p381
aVmost
p382
aVinnovative
p383
aVcompanies
p384
aVhttps://t.co/syuu1dwqwh
p385
aV#wearables
p386
aV#iot
p387
aVhttps://t.co/j0ajj2eaot
p388
asg18
g19
(S'\x07\xe0\x01\x13\x169\n\x00\x00\x00'
tRp389
sg21
Nsg22
VAshleyLaurel
p390
sa(dp391
g3
(lp392
Vjust
p393
aVstumbled
p394
aVacross
p395
aVa
aVfashion
p396
aVinstallation
p397
aV&
aVamp
p398
aV;
aVmade
p399
aVfriends
p400
aVwith
p401
aVa
aVlocal
p402
aVphotographer
p403
aV.
aV#bestlunchbreakever
p404
aV#citylife
p405
asg18
g19
(S'\x07\xe0\x01\x13\x16&!\x00\x00\x00'
tRp406
sg21
Nsg22
VAshleyLaurel
p407
sa(dp408
g3
(lp409
Vthe
p410
aVluxury
p411
aVbrand
p412
aVbalancing
p413
aVact
p414
aV.
aVhttps://t.co/xiqrwolt1s
p415
aV#fashion
p416
aV#commerce
p417
asg18
g19
(S'\x07\xe0\x01\x13\x12\x1e\x1b\x00\x00\x00'
tRp418
sg21
Nsg22
VAshleyLaurel
p419
sa(dp420
g3
(lp421
Vrt
p422
aV@forbes
p423
aV:
aVretailers
p424
aVmust
p425
aVaccept
p426
aVthat
p427
aVtoday's
p428
aVstores
p429
aVare
p430
aV"
aVobsolete
p431
aV"
aVand
p432
aVembrace
p433
aVthe
p434
aVideas
p435
aVof
p436
aVtomorrow
p437
aVhttps://t.co/mb2dkougvz
p438
aVhttps://t.co
p439
aV\u2026
asg18
g19
(S'\x07\xe0\x01\x13\x12\x04\x04\x00\x00\x00'
tRp440
sg21
Nsg22
VAshleyLaurel
p441
sa(dp442
g3
(lp443
V[
aVinfographic
p444
aV]
aVcontent
p445
aVmarketing
p446
aVpredictions
p447
aVfor
p448
aV2016
p449
aV.
aVhttps://t.co/jnyhavjjm5
p450
asg18
g19
(S'\x07\xe0\x01\x13\x11\x19\x1b\x00\x00\x00'
tRp451
sg21
Nsg22
VAshleyLaurel
p452
sa(dp453
g3
(lp454
Vrt
p455
aV@cspenn
p456
aV:
aV#the5
p457
aV:
aVseven
p458
aVuseful
p459
aVmicrosoft
p460
aVexcel
p461
aVfeatures
p462
aVyou
p463
aVmay
p464
aVnot
p465
aVbe
p466
aVusing
p467
aVvia
p468
aV@lifehacker
p469
aV:
aVhttps://t.co/ejphwv5iaq
p470
aVhttps://t.co/y9aeu6f
p471
aV\u2026
asg18
g19
(S'\x07\xe0\x01\x13\x10),\x00\x00\x00'
tRp472
sg21
Nsg22
VAshleyLaurel
p473
sa(dp474
g3
(lp475
V9
aVthings
p476
aVthat
p477
aVmatter
p478
aVin
p479
aVtravel
p480
aVtechnology
p481
aVin
p482
aV2016
p483
aV.
aVhttps://t.co/6xdttgcdhj
p484
asg18
g19
(S'\x07\xe0\x01\x13\x10\x017\x00\x00\x00'
tRp485
sg21
Nsg22
VAshleyLaurel
p486
sa(dp487
g3
(lp488
Vwhat's
p489
aVthe
p490
aVright
p491
aVmarketing
p492
aVbudget
p493
aV?
aVhttps://t.co/petbkit4zo
p494
asg18
g19
(S'\x07\xe0\x01\x13\x0f\x1f+\x00\x00\x00'
tRp495
sg21
Nsg22
VAshleyLaurel
p496
sa(dp497
g3
(lp498
Voh
p499
aV:
aV"
aVguess
p500
aVwhat
p501
aV?
aV!
aVmy
p502
aVselfie
p503
aVstick
p504
aVdoesn't
p505
aVwork
p506
aV!
aV"
aV\U0001f61e
asg18
g19
(S'\x07\xe0\x01\x13\x01 "\x00\x00\x00'
tRp507
sg21
Nsg22
VAshleyLaurel
p508
sa(dp509
g3
(lp510
Vrt
p511
aV@gerrymoran
p512
aV:
aVtop
p513
aV15
p514
aVsmartphone
p515
aVapps
p516
aV#contentmarketing
p517
aV#socialmedia
p518
aVhttps://t.co/c0hbuberig
p519
asg18
g19
(S'\x07\xe0\x01\x13\x00\r \x00\x00\x00'
tRp520
sg21
Nsg22
VAshleyLaurel
p521
sa(dp522
g3
(lp523
Vwhen
p524
aVit
p525
aVcomes
p526
aVto
p527
aVsocial
p528
aVmedia
p529
aVtoday
p530
aV,
aVthe
p531
aVkey
p532
aVis
p533
aVto
p534
aVfocus
p535
aVon
p536
aVthe
p537
aVvisual
p538
aV.
aVhttps://t.co/f4wfldrhjz
p539
asg18
g19
(S'\x07\xe0\x01\x13\x00\x016\x00\x00\x00'
tRp540
sg21
Nsg22
VAshleyLaurel
p541
sa(dp542
g3
(lp543
Vis
p544
aVthat
p545
aVchart
p546
aVsaying
p547
aVwhat
p548
aVyou
p549
aVthink
p550
aVit
p551
aV\u2019
aVs
aVsaying
p552
aV?
aVhttps://t.co/jzmn4aowoa
p553
aV#data
p554
asg18
g19
(S'\x07\xe0\x01\x12\x17\x1e2\x00\x00\x00'
tRp555
sg21
Nsg22
VAshleyLaurel
p556
sa(dp557
g3
(lp558
Vhow
p559
aVmuch
p560
aVchocolate
p561
aVis
p562
aVtoo
p563
aVmuch
p564
aVchocolate
p565
aVto
p566
aVenjoy
p567
aVon
p568
aVa
aVmonday
p569
aVafternoon
p570
aV?
aV\U0001f36b
aV#notsorry
p571
asg18
g19
(S'\x07\xe0\x01\x12\x17\x0f\x18\x00\x00\x00'
tRp572
sg21
Nsg22
VAshleyLaurel
p573
sa(dp574
g3
(lp575
Vrt
p576
aV@accenture
p577
aV:
aVrt
p578
aV@wef
p579
aVdigital
p580
aVdisruption
p581
aVhas
p582
aVonly
p583
aVjust
p584
aVbegun
p585
aVhttps://t.co/lgmjlnlp4q
p586
aV@accenture
p587
aV#technology
p588
aV#4ir
p589
aV#wef
p590
aVhttps://t.co/goxjq
p591
aV\u2026
asg18
g19
(S"\x07\xe0\x01\x12\x17\r'\x00\x00\x00"
tRp592
sg21
Nsg22
VAshleyLaurel
p593
sa(dp594
g3
(lp595
Vgoogle's
p596
aVdrone-delivery
p597
aVprogram
p598
aV,
aVproject
p599
aVwing
p600
aV,
aVmay
p601
aVprovide
p602
aVresidential
p603
aVdelivery
p604
aVwithin
p605
aVjust
p606
aVa
aVfew
p607
aVyears
p608
aVhttps://t.co/9kjhvmtpqh
p609
asg18
g19
(S'\x07\xe0\x01\x12\x15\x01*\x00\x00\x00'
tRp610
sg21
Nsg22
VAshleyLaurel
p611
sa(dp612
g3
(lp613
Vrt
p614
aV@fashnerd
p615
aV:
aVfashnerd
p616
aV|
aViris
p617
aVapfel
p618
aV,
aVthe
p619
aVapple
p620
aVof
p621
aVfashion
p622
aV\u2019
aVs
aVeye
p623
aVdesigning
p624
aVfor
p625
aVwisewear
p626
aVhttps://t.co/iskavac4ht
p627
aV#wearables
p628
aVhttps://t.co/vjvc
p629
aV\u2026
asg18
g19
(S'\x07\xe0\x01\x12\x11\x1a\r\x00\x00\x00'
tRp630
sg21
Nsg22
VAshleyLaurel
p631
sa(dp632
g3
(lp633
V30
p634
aVwebsites
p635
aVthat
p636
aVwill
p637
aVmake
p638
aVyou
p639
aVunbelievably
p640
aVsmarter
p641
aV.
aVhttps://t.co/2gjwshoaoi
p642
asg18
g19
(S'\x07\xe0\x01\x12\x10\x1f\x07\x00\x00\x00'
tRp643
sg21
Nsg22
VAshleyLaurel
p644
sa(dp645
g3
(lp646
V.
aV@nasa
p647
aVis
p648
aVworking
p649
aVon
p650
aVits
p651
aVnext
p652
aVgreat
p653
aVspace
p654
aVobservatory
p655
aV.
aVhttps://t.co/3wfhmnmag2
p656
asg18
g19
(S'\x07\xe0\x01\x12\x0f\x015\x00\x00\x00'
tRp657
sg21
Nsg22
VAshleyLaurel
p658
sa(dp659
g3
(lp660
Vrt
p661
aV@lvstruck
p662
aV:
aValways
p663
aVastounded
p664
aVby
p665
aVthis
p666
aVstatistic
p667
aV:
aV"
aV40
p668
aV%
aVof
p669
aVamerica's
p670
aVworkforce
p671
aVwill
p672
aVbe
p673
aVfreelancers
p674
aVby
p675
aV2020
p676
aV"
aVhttps://t.co/wvfpk1viql
p677
aVvia
p678
aV@qz
p679
asg18
g19
(S'\x07\xe0\x01\x12\x06\x1c\x00\x00\x00\x00'
tRp680
sg21
Nsg22
VAshleyLaurel
p681
sa(dp682
g3
(lp683
Vfacebook
p684
aVreleases
p685
aVguide
p686
aVon
p687
aVtransformational
p688
aVtrends
p689
aVand
p690
aVwhat
p691
aVthey
p692
aVmean
p693
aVfor
p694
aVmarketers
p695
aV.
aVhttps://t.co/b18gybd39t
p696
aV#socialmedia
p697
asg18
g19
(S'\x07\xe0\x01\x11\x16\x19\x0c\x00\x00\x00'
tRp698
sg21
Nsg22
VAshleyLaurel
p699
sa(dp700
g3
(lp701
Vrt
p702
aV@staringispolite
p703
aV:
aVme
p704
aV:
aV*
aVsees
p705
aVthis
p706
aVgoat
p707
aVunicorn
p708
aVin
p709
aVtwitter
p710
aVstream
p711
aV*
aV@ashleylaurel
p712
aV:
aVlook
p713
aVwhat
p714
aVi
aVfound
p715
aV!
aV*
aVshows
p716
aVme
p717
aVthe
p718
aVsame
p719
aVgoat
p720
aV*
aV\U0001f602
aVhttps://t.
p721
aV\u2026
asg18
g19
(S'\x07\xe0\x01\x11\x13()\x00\x00\x00'
tRp722
sg21
Nsg22
VAshleyLaurel
p723
sa(dp724
g3
(lp725
V@everythinggoats
p726
aV:D
p727
aV@staringispolite
p728
aV@rrhoover
p729
asg18
g19
(S'\x07\xe0\x01\x11\x13$\x19\x00\x00\x00'
tRp730
sg21
Nsg22
VAshleyLaurel
p731
sa(dp732
g3
(lp733
Vcatching
p734
aVup
p735
aVon
p736
aVsome
p737
aVboring
p738
aVthings
p739
aVover
p740
aVthe
p741
aVweekend
p742
aVis
p743
aVnever
p744
aVbad
p745
aVwhen
p746
aVyou're
p747
aValso
p748
aVplanning
p749
aVa
aVfew
p750
aVupcoming
p751
aVvacations
p752
aV!
aV#workhardplayhard
p753
asg18
g19
(S'\x07\xe0\x01\x11\x13\x07)\x00\x00\x00'
tRp754
sg21
Nsg22
VAshleyLaurel
p755
sa(dp756
g3
(lp757
Vrt
p758
aV@staringispolite
p759
aV:
aVr
aV.
aVt
aV.
aV#changeaconsonantspoilamovie
p760
aVhttps://t.co/uwibult0yn
p761
asg18
g19
(S'\x07\xe0\x01\x11\x01\x063\x00\x00\x00'
tRp762
sg21
Nsg22
VAshleyLaurel
p763
sa(dp764
g3
(lp765
Vrt
p766
aV@creatorsproject
p767
aV:
aVwatch
p768
aVleds
p769
aVlight
p770
aVup
p771
aVthis
p772
aVinteractive
p773
aVtextile
p774
aVinstallation
p775
aVhttps://t.co/ytxeiw7mhx
p776
aVhttps://t.co/mocnooshey
p777
asg18
g19
(S'\x07\xe0\x01\x10\x11\x0f\x04\x00\x00\x00'
tRp778
sg21
Nsg22
VAshleyLaurel
p779
sa(dp780
g3
(lp781
Vbeen
p782
aVpinning
p783
aVa
aVlot
p784
aVof
p785
aVtravel
p786
aVinspired
p787
aVcontent
p788
aVlately
p789
aVas
p790
aVi
aVlook
p791
aVforward
p792
aVto
p793
aVsome
p794
aVupcoming
p795
aVtrips
p796
aVthis
p797
aVyear
p798
aV.
aVhttps://t.co/ookqapufai
p799
aV#pinterest
p800
asg18
g19
(S'\x07\xe0\x01\x10\x10\x1f\x1b\x00\x00\x00'
tRp801
sg21
Nsg22
VAshleyLaurel
p802
sa(dp803
g3
(lp804
Vtoday's
p805
aVwork
p806
aVview
p807
aV.
aV#sanfrancisco
p808
aV#tgif
p809
aV@
aVthe
p810
aVwestin
p811
aVst
p812
aV.
aVfrancis
p813
aVhttps://t.co/hl2cpo7drf
p814
asg18
g19
(S'\x07\xe0\x01\x0f\x158\x0f\x00\x00\x00'
tRp815
sg21
(lp816
F-122.4084244
aF37.787601500000001
asg22
VAshleyLaurel
p817
sa(dp818
g3
(lp819
V.
aV@facebook
p820
aVwants
p821
aVto
p822
aVkill
p823
aVthe
p824
aVneed
p825
aVfor
p826
aVphone
p827
aVnumbers
p828
aVthis
p829
aVyear
p830
aV.
aVhttps://t.co/qw9dwo1auh
p831
asg18
g19
(S'\x07\xe0\x01\x0f\x13\x01/\x00\x00\x00'
tRp832
sg21
Nsg22
VAshleyLaurel
p833
sa(dp834
g3
(lp835
Vto
p836
aVwin
p837
aVconsumer
p838
aVtrust
p839
aVyou
p840
aVmust
p841
aVensure
p842
aVtheir
p843
aVdata
p844
aVis
p845
aVsecure
p846
aV.
aVhttps://t.co/wdrmd6y5cf
p847
aVhttps://t.co/fpm5ywzjr2
p848
asg18
g19
(S'\x07\xe0\x01\x0f\x12\x02\x05\x00\x00\x00'
tRp849
sg21
Nsg22
VAshleyLaurel
p850
sa(dp851
g3
(lp852
Vthe
p853
aVstate
p854
aVof
p855
aVsocial
p856
aVmedia
p857
aVmarketing
p858
aV.
aV#socialmedia
p859
aV#infographic
p860
aVhttps://t.co/ajs3gysgpt
p861
asg18
g19
(S'\x07\xe0\x01\x0f\x0f\x016\x00\x00\x00'
tRp862
sg21
Nsg22
VAshleyLaurel
p863
sa(dp864
g3
(lp865
Vrt
p866
aV@weareinterlaced
p867
aV:
aVwould
p868
aVyou
p869
aVwear
p870
aVsamsung
p871
aV\u2019
aVs
aVsmart
p872
aVclothes
p873
aV?
aVhttps://t.co/fdmxldou1o
p874
aV#fashiontech
p875
aV#wearables
p876
aV#ces2016
p877
aVhttps://t.co/jgpsaogz
p878
aV\u2026
asg18
g19
(S'\x07\xe0\x01\x0f\x0e\x070\x00\x00\x00'
tRp879
sg21
Nsg22
VAshleyLaurel
p880
sa(dp881
g3
(lp882
Vbeyond
p883
aVhybrid
p884
aV:
aVthe
p885
aVintelligent
p886
aVbusiness
p887
aVcloud
p888
aV.
aVhttps://t.co/yighogb8ua
p889
asg18
g19
(S'\x07\xe0\x01\x0f\x02\x01,\x00\x00\x00'
tRp890
sg21
Nsg22
VAshleyLaurel
p891
sa(dp892
g3
(lp893
Vthe
p894
aVtop
p895
aV25
p896
aVmost
p897
aVread
p898
aVwikipedia
p899
aVarticles
p900
aVof
p901
aV2015
p902
aV.
aV#tbt
p903
aVhttps://t.co/aip8qvmb8m
p904
asg18
g19
(S'\x07\xe0\x01\x0f\x00\x015\x00\x00\x00'
tRp905
sg21
Nsg22
VAshleyLaurel
p906
sa(dp907
g3
(lp908
Vhrl
p909
aVlaboratories
p910
aVteam
p911
aVachieves
p912
aVbreakthrough
p913
aVwith
p914
aVceramics
p915
aV3
aVdprinting
p916
aVtechnology
p917
aV.
aVhttps://t.co/vagod6uzkt
p918
asg18
g19
(S'\x07\xe0\x01\x0e\x17\x01-\x00\x00\x00'
tRp919
sg21
Nsg22
VAshleyLaurel
p920
sa(dp921
g3
(lp922
Vnetworking
p923
aVin
p924
aV2016
p925
aV:
aVstop
p926
aVasking
p927
aVpeople
p928
aVto
p929
aVcoffee
p930
aV,
aVby
p931
aV@jesskeys_
p932
aV.
aVhttps://t.co/h3jsughjsr
p933
aV#business
p934
asg18
g19
(S"\x07\xe0\x01\x0e\x16\n'\x00\x00\x00"
tRp935
sg21
Nsg22
VAshleyLaurel
p936
sa(dp937
g3
(lp938
Vastronaut
p939
aV@stationcdrkelly
p940
aVdemonstrating
p941
aVhow
p942
aVwater
p943
aVbehaves
p944
aVwhen
p945
aVit
p946
aV\u2019
aVs
aVfreed
p947
aVfrom
p948
aVthe
p949
aVconstraints
p950
aVof
p951
aVgravity
p952
aV:
aVhttps://t.co/vpmwdbkdan
p953
aV#space
p954
asg18
g19
(S'\x07\xe0\x01\x0e\x13\x19\x1b\x00\x00\x00'
tRp955
sg21
Nsg22
VAshleyLaurel
p956
sa(dp957
g3
(lp958
V.
aV@pixelsquid360
p959
aVturns
p960
aVstock
p961
aVphotos
p962
aVinto
p963
aVamazing
p964
aV3
aVd
aVimages
p965
aV.
aVhttps://t.co/buxrskzkan
p966
asg18
g19
(S'\x07\xe0\x01\x0e\x13\x01,\x00\x00\x00'
tRp967
sg21
Nsg22
VAshleyLaurel
p968
sa(dp969
g3
(lp970
Vsubscription
p971
aVservices
p972
aVare
p973
aVcreating
p974
aVwinners
p975
aVand
p976
aVlowers
p977
aVin
p978
aVthe
p979
aVretail
p980
aVspace
p981
aV.
aVhttps://t.co/g6qmdoatbf
p982
asg18
g19
(S'\x07\xe0\x01\x0e\x11\x01/\x00\x00\x00'
tRp983
sg21
Nsg22
VAshleyLaurel
p984
sa(dp985
g3
(lp986
Vrt
p987
aV@nivo0o0
p988
aV:
aVmy
p989
aVinterview
p990
aVw
aV@buffer
p991
aVon
p992
aVhow
p993
aV@producthunt
p994
aV'
aVs
aVbeen
p995
aVusing
p996
aV\U0001f351
aVhttps://t.co/lh5qp6lvn6
p997
aVcommunity
p998
aVapproach
p999
aV+
aVmagic
p1000
aVwords
p1001
aV\u2728
aVhttps://t
p1002
aV\u2026
asg18
g19
(S'\x07\xe0\x01\x0e\x04\x1c\x0e\x00\x00\x00'
tRp1003
sg21
Nsg22
VAshleyLaurel
p1004
sa(dp1005
g3
(lp1006
Vaudio-technica
p1007
aVmade
p1008
aVa
aVturntable
p1009
aVfor
p1010
aVyour
p1011
aVwireless
p1012
aVspeaker
p1013
aVsetup
p1014
aV.
aVhttps://t.co/73alhkcdnr
p1015
asg18
g19
(S'\x07\xe0\x01\r\x16\x02\x02\x00\x00\x00'
tRp1016
sg21
Nsg22
VAshleyLaurel
p1017
sa(dp1018
g3
(lp1019
Vrt
p1020
aV@moz
p1021
aV:
aVhere
p1022
aV\u2019
aVs
aVhow
p1023
aVbrands
p1024
aVexecute
p1025
aVtruly
p1026
aVawesome
p1027
aVtactics
p1028
aVfor
p1029
aVemail
p1030
aVmarketing
p1031
aVhttps://t.co/tdjm0y6enu
p1032
aVby
p1033
aV@nikkielizdemere
p1034
aVhttps://t.co/otual
p1035
aV\u2026
asg18
g19
(S'\x07\xe0\x01\r\x15\x1e\x00\x00\x00\x00'
tRp1036
sg21
Nsg22
VAshleyLaurel
p1037
sa(dp1038
g3
(lp1039
Vrt
p1040
aV@accenturehitech
p1041
aV:
aVas
p1042
aVthe
p1043
aV#wearables
p1044
aVmarket
p1045
aVgrows
p1046
aV,
aVdevelopers
p1047
aVare
p1048
aVlooking
p1049
aVto
p1050
aVproducts
p1051
aVdesigned
p1052
aVfor
p1053
aVthe
p1054
aVfeet
p1055
aVhttps://t.co/cpvqbelcih
p1056
asg18
g19
(S'\x07\xe0\x01\r\x13)\x0f\x00\x00\x00'
tRp1057
sg21
Nsg22
VAshleyLaurel
p1058
sa(dp1059
g3
(lp1060
Vhow
p1061
aVthis
p1062
aVnew
p1063
aVtype
p1064
aVof
p1065
aV#3d
p1066
aVprinted
p1067
aVmaterial
p1068
aVmay
p1069
aVbe
p1070
aVbeneficial
p1071
aVto
p1072
aVthe
p1073
aVaerospace
p1074
aVindustry
p1075
aV.
aVhttps://t.co/zwvmo5peie
p1076
asg18
g19
(S'\x07\xe0\x01\r\x11\x015\x00\x00\x00'
tRp1077
sg21
Nsg22
VAshleyLaurel
p1078
sa(dp1079
g3
(lp1080
V5
aVtrends
p1081
aVthat
p1082
aVwill
p1083
aVtransform
p1084
aVproject
p1085
aVmanagement
p1086
aVthis
p1087
aVyear
p1088
aV.
aVhttps://t.co/luhaovs4l2
p1089
asg18
g19
(S'\x07\xe0\x01\r\x10\x02\t\x00\x00\x00'
tRp1090
sg21
Nsg22
VAshleyLaurel
p1091
sa(dp1092
g3
(lp1093
Vwhen
p1094
aVtying
p1095
aVengagement
p1096
aVw
aV/
aVadvertising
p1097
aV,
aVthe
p1098
aVkey
p1099
aVis
p1100
aVto
p1101
aVunderstand
p1102
aVhow
p1103
aVbrand
p1104
aVawareness
p1105
aVand
p1106
aVpreference
p1107
aVtakes
p1108
aVshape
p1109
aV.
aVhttps://t.co/dbqaaf9y4u
p1110
asg18
g19
(S'\x07\xe0\x01\r\x0f\x01+\x00\x00\x00'
tRp1111
sg21
Nsg22
VAshleyLaurel
p1112
sa(dp1113
g3
(lp1114
Vapple
p1115
aVbuys
p1116
aVemotient
p1117
aV,
aVan
p1118
aVemotion-reading
p1119
aVartificial
p1120
aVintelligence
p1121
aVcompany
p1122
aV.
aVhttps://t.co/i83tmqeblp
p1123
asg18
g19
(S'\x07\xe0\x01\r\x00\x015\x00\x00\x00'
tRp1124
sg21
Nsg22
VAshleyLaurel
p1125
sa(dp1126
g3
(lp1127
Vrt
p1128
aV@racked
p1129
aV:
aVhey
p1130
aV,
aVtech
p1131
aVcompanies
p1132
aV:
aVputting
p1133
aVjewels
p1134
aVon
p1135
aVsmartwatches
p1136
aVdoesn
p1137
aV\u2019
aVt
aVmake
p1138
aVwomen
p1139
aVwant
p1140
aVthem
p1141
aV.
aVhttps://t.co/9q6wivtpjm
p1142
aVhttps://t.co/a7ppkjsq
p1143
aV\u2026
asg18
g19
(S'\x07\xe0\x01\x0c\x17-7\x00\x00\x00'
tRp1144
sg21
Nsg22
VAshleyLaurel
p1145
sa(dp1146
g3
(lp1147
Vrt
p1148
aV@rachelloumiller
p1149
aV:
aVfive
p1150
aVfundamentals
p1151
aVto
p1152
aVusing
p1153
aV#youtube
p1154
aVfor
p1155
aVyour
p1156
aV#business
p1157
aVhttps://t.co/crrlviyd3r
p1158
aVhttps://t.co/dotcx7qwh2
p1159
asg18
g19
(S'\x07\xe0\x01\x0c\x16\x11\x1d\x00\x00\x00'
tRp1160
sg21
Nsg22
VAshleyLaurel
p1161
sa(dp1162
g3
(lp1163
Vwhat
p1164
aVtips
p1165
aVcan
p1166
aVpenguins
p1167
aVoffer
p1168
aVthe
p1169
aVaircraft
p1170
aVindustry
p1171
aV?
aVhttps://t.co/hgzs5b4cdw
p1172
asg18
g19
(S'\x07\xe0\x01\x0c\x15\x02"\x00\x00\x00'
tRp1173
sg21
Nsg22
VAshleyLaurel
p1174
sa(dp1175
g3
(lp1176
Vbeautiful
p1177
aV!
aVhttps://t.co/hx7yfm7p61
p1178
asg18
g19
(S'\x07\xe0\x01\x0c\x13\x036\x00\x00\x00'
tRp1179
sg21
Nsg22
VAshleyLaurel
p1180
sa(dp1181
g3
(lp1182
Vfive
p1183
aVcreative
p1184
aVgarments
p1185
aVfrom
p1186
aVthe
p1187
aV@fashionwareshow
p1188
aVat
p1189
aV#ces2016
p1190
aV.
aVhttps://t.co/u9xbg5rq2z
p1191
asg18
g19
(S'\x07\xe0\x01\x0c\x12\x02\x12\x00\x00\x00'
tRp1192
sg21
Nsg22
VAshleyLaurel
p1193
sa(dp1194
g3
(lp1195
Vhappy
p1196
aVbirthday
p1197
aVto
p1198
aVauthor
p1199
aVcharles
p1200
aVperrault
p1201
aV.
aVhttps://t.co/nvnikkovfp
p1202
aV#googledoodle
p1203
aVhttps://t.co/q4jkx5y9d4
p1204
asg18
g19
(S'\x07\xe0\x01\x0c\x10&,\x00\x00\x00'
tRp1205
sg21
Nsg22
VAshleyLaurel
p1206
sa(dp1207
g3
(lp1208
Vrt
p1209
aV@moz
p1210
aV:
aV10
p1211
aVpredictions
p1212
aVfor
p1213
aV2016
p1214
aVin
p1215
aVseo
p1216
aV&
aVamp
p1217
aV;
aVweb
p1218
aVmarketing
p1219
aVhttps://t.co/bqw5nqxxj2
p1220
aVby
p1221
aV@randfish
p1222
aVhttps://t.co/mrcia5jgvt
p1223
asg18
g19
(S'\x07\xe0\x01\x0c\x06\x13\x0c\x00\x00\x00'
tRp1224
sg21
Nsg22
VAshleyLaurel
p1225
sa(dp1226
g3
(lp1227
Vrt
p1228
aV@venturebeat
p1229
aV:
aVretailers
p1230
aVstruggle
p1231
aVwith
p1232
aVpersonalization
p1233
aV,
aVyesmail
p1234
aVstudy
p1235
aVfinds
p1236
aVhttps://t.co/4zzxgqcrh4
p1237
aVhttps://t.co/wfsjtvljda
p1238
asg18
g19
(S'\x07\xe0\x01\x0c\x04\x11\x08\x00\x00\x00'
tRp1239
sg21
Nsg22
VAshleyLaurel
p1240
sa(dp1241
g3
(lp1242
V@mdeziel
p1243
aV@tribe2point0
p1244
aVhosts
p1245
aVa
aVweekly
p1246
aVchat
p1247
aVabout
p1248
aVpinterest
p1249
aVfocused
p1250
aVon
p1251
aVbest
p1252
aVpractices
p1253
aV,
aVnew
p1254
aVtools
p1255
aV,
aVmarketing
p1256
aVideas
p1257
aV,
aVetc
p1258
aV.
aVcalled
p1259
aV#pinchat
p1260
aV.
asg18
g19
(S'\x07\xe0\x01\x0b\x16\x03\x17\x00\x00\x00'
tRp1261
sg21
Nsg22
VAshleyLaurel
p1262
sa(dp1263
g3
(lp1264
Vbusy
p1265
aVday
p1266
aVtoday
p1267
aV.
aV#monday
p1268
aVhttps://t.co/goyxfo779j
p1269
asg18
g19
(S'\x07\xe0\x01\x0b\x10\x1a,\x00\x00\x00'
tRp1270
sg21
Nsg22
VAshleyLaurel
p1271
sa(dp1272
g3
(lp1273
V8
aVways
p1274
aVto
p1275
aVfind
p1276
aVcontentment
p1277
aVin
p1278
aVyour
p1279
aV20
p1280
aVs
aVand
p1281
aV30
p1282
aVs
aV,
aVby
p1283
aV@theeverygirl_
p1284
aV.
aVhttps://t.co/awpjxhfwpf
p1285
asg18
g19
(S'\x07\xe0\x01\x0b\x0f\x0f5\x00\x00\x00'
tRp1286
sg21
Nsg22
VAshleyLaurel
p1287
sa(dp1288
g3
(lp1289
Vjapan
p1290
aV\u2019
aVs
aVfashion
p1291
aVrental
p1292
aVservice
p1293
aVaircloset
p1294
aVsnags
p1295
aV$
aV8
aVm
aV.
aVhttps://t.co/vgexouc0h9
p1296
asg18
g19
(S'\x07\xe0\x01\x0b\x05!(\x00\x00\x00'
tRp1297
sg21
Nsg22
VAshleyLaurel
p1298
sa(dp1299
g3
(lp1300
V@operaqueenie
p1301
aVwhat
p1302
aVa
aVstory
p1303
aV!
aV!
aVcongratulations
p1304
aVto
p1305
aVyou
p1306
aVand
p1307
aV@polotek
p1308
aV.
asg18
g19
(S'\x07\xe0\x01\n\x02\x1e\x1b\x00\x00\x00'
tRp1309
sg21
Nsg22
VAshleyLaurel
p1310
sa(dp1311
g3
(lp1312
Vsuper
p1313
aVcool
p1314
aV#wearabletech
p1315
aVinvention
p1316
aV.
aVhttps://t.co/pepzj5rgqu
p1317
asg18
g19
(S'\x07\xe0\x01\t\x141\t\x00\x00\x00'
tRp1318
sg21
Nsg22
VAshleyLaurel
p1319
sa(dp1320
g3
(lp1321
Vfashion
p1322
aVand
p1323
aVjewelry
p1324
aVat
p1325
aV#ces2016
p1326
aV.
aVhttps://t.co/sw4zqwiliw
p1327
asg18
g19
(S'\x07\xe0\x01\t\x00\x02"\x00\x00\x00'
tRp1328
sg21
Nsg22
VAshleyLaurel
p1329
sa(dp1330
g3
(lp1331
Vrt
p1332
aV@fashnerd
p1333
aV:
aV#ces2016
p1334
aV:
aVfashionware
p1335
aV,
aVthe
p1336
aVart
p1337
aVof
p1338
aVcommunicating
p1339
aVtechnology
p1340
aVhttps://t.co/0wkvl15mqf
p1341
aV@fashionwareshow
p1342
aV#fashiontech
p1343
aVhttps://t.co
p1344
aV\u2026
asg18
g19
(S'\x07\xe0\x01\x08\x13\x1b\x03\x00\x00\x00'
tRp1345
sg21
Nsg22
VAshleyLaurel
p1346
sa(dp1347
g3
(lp1348
Vthe
p1349
aVthree
p1350
aVpillars
p1351
aVof
p1352
aVsocial
p1353
aVin
p1354
aV2016
p1355
aV:
aVdata
p1356
aV,
aVcreative
p1357
aV,
aVand
p1358
aVamplification
p1359
aV.
aVhttps://t.co/nzh7zydip6
p1360
aV#socialmedia
p1361
asg18
g19
(S'\x07\xe0\x01\x08\x12\x05\x0b\x00\x00\x00'
tRp1362
sg21
Nsg22
VAshleyLaurel
p1363
sa(dp1364
g3
(lp1365
V@lgus
p1366
aVso
p1367
aV,
aVso
p1368
aVcool
p1369
aV.
aVnow
p1370
aVit
p1371
aVjust
p1372
aVneeds
p1373
aVto
p1374
aVlaunch
p1375
aVso
p1376
aVi
aVcan
p1377
aVbuy
p1378
aVone
p1379
aV!
asg18
g19
(S'\x07\xe0\x01\x08\x113+\x00\x00\x00'
tRp1380
sg21
Nsg22
VAshleyLaurel
p1381
sa(dp1382
g3
(lp1383
Vlg
p1384
aVunveiling
p1385
aV18
p1386
aV-
aVinch
p1387
aVconcept
p1388
aV#tv
p1389
aVdisplay
p1390
aVso
p1391
aVthin
p1392
aVit
p1393
aVcan
p1394
aVroll
p1395
aVup
p1396
aVlike
p1397
aVa
aVnewspaper
p1398
aV.
aV#ces2016
p1399
aVhttps://t.co/8gegxxlzwe
p1400
asg18
g19
(S'\x07\xe0\x01\x08\x11\x015\x00\x00\x00'
tRp1401
sg21
Nsg22
VAshleyLaurel
p1402
sa(dp1403
g3
(lp1404
Vwho
p1405
aVwants
p1406
aVto
p1407
aVgo
p1408
aVto
p1409
aVprague
p1410
aVwith
p1411
aVme
p1412
aV?
aVworld
p1413
aV\u2019
aVs
aVlargest
p1414
aVprivate
p1415
aVapple
p1416
aVexhibition
p1417
aVopens
p1418
aVthere
p1419
aVwith
p1420
aV472
p1421
aVexhibits
p1422
aV.
aVhttps://t.co/ayaacqskav
p1423
asg18
g19
(S'\x07\xe0\x01\x07\x17\x010\x00\x00\x00'
tRp1424
sg21
Nsg22
VAshleyLaurel
p1425
sa(dp1426
g3
(lp1427
Vrt
p1428
aV@accenturehitech
p1429
aV:
aVreally
p1430
aVinnovative
p1431
aVsmoke
p1432
aVdetector
p1433
aVfrom
p1434
aV@halosmartlabs
p1435
aVat
p1436
aV#ces2016
p1437
aV#haloatces
p1438
aVhttps://t.co/f7zjqvut0c
p1439
asg18
g19
(S'\x07\xe0\x01\x07\x16\x1a)\x00\x00\x00'
tRp1440
sg21
Nsg22
VAshleyLaurel
p1441
sa(dp1442
g3
(lp1443
V@accenturehitech
p1444
aV@halosmartlabs
p1445
aVwant
p1446
aV!
asg18
g19
(S'\x07\xe0\x01\x07\x16\x19 \x00\x00\x00'
tRp1447
sg21
Nsg22
VAshleyLaurel
p1448
sa(dp1449
g3
(lp1450
Vrt
p1451
aV@accenturemedia
p1452
aV:
aVnew
p1453
aV'
aVfeel
p1454
aV'
aV#wearable
p1455
aVis
p1456
aVdesigned
p1457
aVto
p1458
aVtrack
p1459
aVyour
p1460
aVemotions
p1461
aVand
p1462
aVhelp
p1463
aVimprove
p1464
aVyour
p1465
aVmood
p1466
aV#ces2016
p1467
aVhttps://t.co/h6vyohdsvu
p1468
aVhtt
p1469
aV\u2026
asg18
g19
(S'\x07\xe0\x01\x07\x16\x02)\x00\x00\x00'
tRp1470
sg21
Nsg22
VAshleyLaurel
p1471
sa(dp1472
g3
(lp1473
Vrt
p1474
aV@fashionandmash
p1475
aV:
aVgiven
p1476
aVit's
p1477
aV#ces2016
p1478
aV-
aVcheck
p1479
aVout
p1480
aVthis
p1481
aVstory
p1482
aVon
p1483
aVkey
p1484
aVconsiderations
p1485
aVfor
p1486
aVstarting
p1487
aVa
aV#wearabletech
p1488
aVcompany
p1489
aVhttps://t.co/8kvj
p1490
aV\u2026
asg18
g19
(S'\x07\xe0\x01\x07\x12\x121\x00\x00\x00'
tRp1491
sg21
Nsg22
VAshleyLaurel
p1492
sa(dp1493
g3
(lp1494
Vrt
p1495
aV@bof
p1496
aV:
aVhow
p1497
aVyves
p1498
aVsalomon
p1499
aVtransformed
p1500
aVits
p1501
aVbusiness
p1502
aVwith
p1503
aVone
p1504
aVcoat
p1505
aVhttps://t.co/1fflbm23np
p1506
aVhttps://t.co/mj4vp1vh6h
p1507
asg18
g19
(S'\x07\xe0\x01\x07\x10%\x16\x00\x00\x00'
tRp1508
sg21
Nsg22
VAshleyLaurel
p1509
sa(dp1510
g3
(lp1511
Vkathleen
p1512
aVkennedy
p1513
aV:
aVhow
p1514
aVthis
p1515
aV@starwars
p1516
aVproducer
p1517
aVwent
p1518
aVfrom
p1519
aVsecretary
p1520
aVto
p1521
aVhollywood
p1522
aVstudio
p1523
aVboss
p1524
aV.
aV#inspiration
p1525
aVhttps://t.co/cc7pecxbtg
p1526
asg18
g19
(S'\x07\xe0\x01\x07\x10\x01:\x00\x00\x00'
tRp1527
sg21
Nsg22
VAshleyLaurel
p1528
sa(dp1529
g3
(lp1530
Vrt
p1531
aV@accenturecomms
p1532
aV:
aVlive
p1533
aVfrom
p1534
aV#ces2016
p1535
aV@sonyelectronics
p1536
aVfocusing
p1537
aVon
p1538
aVnew
p1539
aV#wearabletech
p1540
aVhttps://t.co/9wraqbjawq
p1541
asg18
g19
(S'\x07\xe0\x01\x07\x00!\x02\x00\x00\x00'
tRp1542
sg21
Nsg22
VAshleyLaurel
p1543
sa(dp1544
g3
(lp1545
V@victorgaxiola
p1546
aVthx
p1547
aV!
asg18
g19
(S'\x07\xe0\x01\x06\x13\x1a\x1e\x00\x00\x00'
tRp1548
sg21
Nsg22
VAshleyLaurel
p1549
sa(dp1550
g3
(lp1551
V5
aVstories
p1552
aVto
p1553
aVwatch
p1554
aVat
p1555
aV#ces2016
p1556
aV.
aVhttps://t.co/mhfngdhqyl
p1557
asg18
g19
(S'\x07\xe0\x01\x06\x13\x19\x02\x00\x00\x00'
tRp1558
sg21
Nsg22
VAshleyLaurel
p1559
sa(dp1560
g3
(lp1561
V.
aV@time
p1562
aV:
aV5
aVthings
p1563
aVto
p1564
aVexpect
p1565
aVfrom
p1566
aV#ces2016
p1567
aV,
aVincluding
p1568
aVwearables
p1569
aV,
aVdrones
p1570
aVand
p1571
aVvirtual
p1572
aVreality
p1573
aV.
aVhttps://t.co/9j3pafjyok
p1574
asg18
g19
(S'\x07\xe0\x01\x06\x12\x1f\x13\x00\x00\x00'
tRp1575
sg21
Nsg22
VAshleyLaurel
p1576
sa(dp1577
g3
(lp1578
V@kokasexton
p1579
aVi
aVlove
p1580
aVbeing
p1581
aVyears
p1582
aVlate
p1583
aVfor
p1584
aVshows
p1585
aV.
aV.
aV.
aVthen
p1586
aVi
aVforget
p1587
aVthe
p1588
aVspoilers
p1589
aVby
p1590
aVthe
p1591
aVtime
p1592
aVi
aVwatch
p1593
aV.
aV:)
p1594
asg18
g19
(S'\x07\xe0\x01\x06\x11:\x12\x00\x00\x00'
tRp1595
sg21
Nsg22
VAshleyLaurel
p1596
sa(dp1597
g3
(lp1598
Vrt
p1599
aV@levoleague
p1600
aV:
aV\U0001f460
aV\U0001f460
aV\U0001f460
aV5
aVcareer
p1601
aVlessons
p1602
aVwe
p1603
aVcan
p1604
aVlearn
p1605
aVfrom
p1606
aVthe
p1607
aVdevil
p1608
aVwears
p1609
aVprada
p1610
aV(
aVhappy
p1611
aV10
p1612
aVth
p1613
aVbirthday
p1614
aV!
aV)
aVhttps://t.co/zalzoqwh97
p1615
aVhttps://t.co/5a
p1616
aV\u2026
asg18
g19
(S'\x07\xe0\x01\x06\x11\x0c\x10\x00\x00\x00'
tRp1617
sg21
Nsg22
VAshleyLaurel
p1618
sa(dp1619
g3
(lp1620
Vcool
p1621
aVgadgets
p1622
aVare
p1623
aVout
p1624
aVand
p1625
aVpractical
p1626
aVis
p1627
aVin
p1628
aVat
p1629
aV#ces2016
p1630
aVvia
p1631
aV@sfgate
p1632
aV.
aVhttps://t.co/2loknkziw9
p1633
asg18
g19
(S'\x07\xe0\x01\x06\x11\x014\x00\x00\x00'
tRp1634
sg21
Nsg22
VAshleyLaurel
p1635
sa(dp1636
g3
(lp1637
Vwell
p1638
aVthis
p1639
aVis
p1640
aVfun
p1641
aV!
aVsee
p1642
aVif
p1643
aVyou
p1644
aVcan
p1645
aVspot
p1646
aVme
p1647
aVon
p1648
aVthe
p1649
aV@producthunt
p1650
aVhomepage
p1651
aV.
aV\U0001f526
aV\U0001f50e
aV\u2728
aVhttps://t.co/sdv2iybysx
p1652
asg18
g19
(S'\x07\xe0\x01\x06\x10\x05\x0c\x00\x00\x00'
tRp1653
sg21
Nsg22
VAshleyLaurel
p1654
sa(dp1655
g3
(lp1656
V@staringispolite
p1657
aV@producthunt
p1658
aV@thetylerhayes
p1659
aV@nivo0o0
p1660
aVwell
p1661
aVhello
p1662
aVthere
p1663
aV!
aV:)
p1664
asg18
g19
(S'\x07\xe0\x01\x06\x0f;1\x00\x00\x00'
tRp1665
sg21
Nsg22
VAshleyLaurel
p1666
sa(dp1667
g3
(lp1668
Vthis
p1669
aVwhole
p1670
aVweek
p1671
aVfeels
p1672
aVlike
p1673
aVone
p1674
aVlong
p1675
aVmonday
p1676
aVas
p1677
aVi
aVget
p1678
aVback
p1679
aVinto
p1680
aVmy
p1681
aVroutine
p1682
aV.
aV#headsdown
p1683
asg18
g19
(S'\x07\xe0\x01\x06\x00-&\x00\x00\x00'
tRp1684
sg21
Nsg22
VAshleyLaurel
p1685
sa(dp1686
g3
(lp1687
Vrt
p1688
aV@rachelloumiller
p1689
aV:
aV13
p1690
aVwearable
p1691
aV#tech
p1692
aVtrends
p1693
aVto
p1694
aVwatch
p1695
aVin
p1696
aV2016
p1697
aVhttps://t.co/mvunnam8vy
p1698
aV#iot
p1699
aV#socialbusiness
p1700
aVhttps://t.co/spisoiywo0
p1701
asg18
g19
(S'\x07\xe0\x01\x05\x0f&\x10\x00\x00\x00'
tRp1702
sg21
Nsg22
VAshleyLaurel
p1703
sa(dp1704
g3
(lp1705
Vrt
p1706
aV@voguerunway
p1707
aV:
aVhow
p1708
aVthe
p1709
aVrunways
p1710
aVinfluence
p1711
aVwhat
p1712
aVyou
p1713
aVsee
p1714
aVon
p1715
aV@downtonabbey
p1716
aV:
aVhttps://t.co/jjeeuzsmnh
p1717
asg18
g19
(S'\x07\xe0\x01\x05\x03;8\x00\x00\x00'
tRp1718
sg21
Nsg22
VAshleyLaurel
p1719
sa(dp1720
g3
(lp1721
V.
aV@staringispolite
p1722
aVhas
p1723
aVagreed
p1724
aVto
p1725
aVattempt
p1726
aVa
aVcool
p1727
aV#diy
p1728
aVtech
p1729
aVproject
p1730
aVwith
p1731
aVme
p1732
aVthis
p1733
aVyear
p1734
aV.
aVhttps://t.co/buawmsvsv9
p1735
asg18
g19
(S'\x07\xe0\x01\x04\x156,\x00\x00\x00'
tRp1736
sg21
Nsg22
VAshleyLaurel
p1737
sa(dp1738
g3
(lp1739
Vrt
p1740
aV@kiraasatryan
p1741
aV:
aVdo
p1742
aVmen
p1743
aVand
p1744
aVwomen
p1745
aVhandle
p1746
aVloneliness
p1747
aVdifferently
p1748
aV?
aVyou
p1749
aVbetcha
p1750
aV.
aVlearn
p1751
aVthe
p1752
aVsurprising
p1753
aVtruths
p1754
aVon
p1755
aV@psychtoday
p1756
aVhttps://t.co/trcwf
p1757
aV\u2026
asg18
g19
(S'\x07\xe0\x01\x04\x12\x1d$\x00\x00\x00'
tRp1758
sg21
Nsg22
VAshleyLaurel
p1759
sa(dp1760
g3
(lp1761
Vcongrats
p1762
aVto
p1763
aVmy
p1764
aVfriend
p1765
aVamanda
p1766
aVand
p1767
aVto
p1768
aVeveryone
p1769
aVelse
p1770
aVon
p1771
aVthe
p1772
aVlist
p1773
aV!
aV@forbes
p1774
aV#30under30
p1775
aVhttps://t.co/wvnzdrjnzj
p1776
asg18
g19
(S'\x07\xe0\x01\x04\x11%(\x00\x00\x00'
tRp1777
sg21
Nsg22
VAshleyLaurel
p1778
sa(dp1779
g3
(lp1780
Vrt
p1781
aV@entrepreneur
p1782
aV:
aVbest
p1783
aVpractices
p1784
aVaren
p1785
aV\u2019
aVt
aVone-size-fits-all
p1786
aVsolutions
p1787
aVhttps://t.co/vktkhjw0p2
p1788
asg18
g19
(S'\x07\xe0\x01\x01\x14\x108\x00\x00\x00'
tRp1789
sg21
Nsg22
VAshleyLaurel
p1790
sa(dp1791
g3
(lp1792
V@carlo2nd
p1793
aV@suzywillow
p1794
aV@staringispolite
p1795
aV@rrhoover
p1796
aV@jtzou
p1797
aVso
p1798
aVmuch
p1799
aVfun
p1800
aV!
aV!
asg18
g19
(S'\x07\xe0\x01\x01\x06-\x0b\x00\x00\x00'
tRp1801
sg21
Nsg22
VAshleyLaurel
p1802
sa(dp1803
g3
(lp1804
Vrt
p1805
aV@sassyfarmanimal
p1806
aV:
aVbe
p1807
aVconfident
p1808
aVin
p1809
aVall
p1810
aVyou
p1811
aVdo
p1812
aV\u263a
aV\ufe0f
aVhttps://t.co/8ngjjnail7
p1813
asg18
g19
(S'\x07\xdf\x0c\x1f\x10\x15!\x00\x00\x00'
tRp1814
sg21
Nsg22
VAshleyLaurel
p1815
sa(dp1816
g3
(lp1817
Vmade
p1818
aVa
aVnew
p1819
aVfriend
p1820
aVon
p1821
aVmy
p1822
aVflight
p1823
aVand
p1824
aVran
p1825
aVinto
p1826
aVan
p1827
aVold
p1828
aVfriend
p1829
aVat
p1830
aVthe
p1831
aVairport
p1832
aV.
aV#lifeisgood
p1833
asg18
g19
(S'\x07\xdf\x0c\x1f\x04\x17*\x00\x00\x00'
tRp1834
sg21
Nsg22
VAshleyLaurel
p1835
sa(dp1836
g3
(lp1837
Vrt
p1838
aV@bjnovak
p1839
aV:
aVinspector
p1840
aVgadget
p1841
aVshould
p1842
aVbe
p1843
aVthe
p1844
aVspokesperson
p1845
aVfor
p1846
aVgogo
p1847
aVin-flight
p1848
aVwifi
p1849
asg18
g19
(S'\x07\xdf\x0c\x1e\x16.\x08\x00\x00\x00'
tRp1850
sg21
Nsg22
VAshleyLaurel
p1851
sa(dp1852
g3
(lp1853
Vdigital
p1854
aVfabric
p1855
aVprinting
p1856
aVcould
p1857
aVbe
p1858
aVthe
p1859
aVfuture
p1860
aVof
p1861
aVthe
p1862
aVtextiles
p1863
aVindustry
p1864
aV,
aVbringing
p1865
aVcustom
p1866
aVprinting
p1867
aVto
p1868
aVconsumers
p1869
aV.
aVhttps://t.co/mdbktw8btj
p1870
asg18
g19
(S'\x07\xdf\x0c\x1e\x10\x011\x00\x00\x00'
tRp1871
sg21
Nsg22
VAshleyLaurel
p1872
sa(dp1873
g3
(lp1874
Vrt
p1875
aV@nlj
p1876
aV:
aVwho
p1877
aVwore
p1878
aVit
p1879
aVbetter
p1880
aV?
aV#tcmparty
p1881
aV#anaffairtoremember
p1882
aVhttps://t.co/ffbqwk2fuv
p1883
asg18
g19
(S'\x07\xdf\x0c\x1e\x0395\x00\x00\x00'
tRp1884
sg21
Nsg22
VAshleyLaurel
p1885
sa(dp1886
g3
(lp1887
Vbeatles
p1888
aVmusic
p1889
aVjoins
p1890
aVnine
p1891
aVstreaming
p1892
aVservices
p1893
aVincluding
p1894
aV@spotify
p1895
aV&
aVamp
p1896
aV;
aV@amazonmusic
p1897
aV.
aVhttps://t.co/azcmjoyukd
p1898
asg18
g19
(S'\x07\xdf\x0c\x1d\x17\x010\x00\x00\x00'
tRp1899
sg21
Nsg22
VAshleyLaurel
p1900
sa(dp1901
g3
(lp1902
Vnew
p1903
aVpassword
p1904
aVsystem
p1905
aVreplaces
p1906
aVwords
p1907
aVwith
p1908
aVpictures
p1909
aV&
aVamp
p1910
aV;
aVicons
p1911
aVbuilt
p1912
aVby
p1913
aV@plymuni
p1914
aVresearchers
p1915
aV.
aVhttps://t.co/o4orvmjgll
p1916
asg18
g19
(S'\x07\xdf\x0c\x1d\x15\x01-\x00\x00\x00'
tRp1917
sg21
Nsg22
VAshleyLaurel
p1918
sa(dp1919
g3
(lp1920
Vrt
p1921
aV@innovateuk
p1922
aV:
aVare
p1923
aVwe
p1924
aVtalking
p1925
aVabout
p1926
aVclothes
p1927
aVor
p1928
aV#digitalskins
p1929
aV?
aVhttps://t.co/7s0vehl6ql
p1930
aV#futurefashion
p1931
aV#wearabletech
p1932
aV#fashtech
p1933
aV#vid
p1934
aVhttps
p1935
aV:/
p1936
aV/
aV\u2026
asg18
g19
(S'\x07\xdf\x0c\x1d\x122\x14\x00\x00\x00'
tRp1937
sg21
Nsg22
VAshleyLaurel
p1938
sa(dp1939
g3
(lp1940
Vbeautiful
p1941
aVwork
p1942
aV.
aVhttps://t.co/mzxltesztg
p1943
asg18
g19
(S"\x07\xdf\x0c\x1d\x10'3\x00\x00\x00"
tRp1944
sg21
Nsg22
VAshleyLaurel
p1945
sa(dp1946
g3
(lp1947
Vrt
p1948
aV@accenturehitech
p1949
aV:
aVare
p1950
aVyou
p1951
aVready
p1952
aVfor
p1953
aVces
p1954
aV?
aVfrom
p1955
aVsmart
p1956
aVcars
p1957
aVto
p1958
aVdrones
p1959
aVto
p1960
aVwearables
p1961
aVhere
p1962
aVis
p1963
aVwhat
p1964
aVto
p1965
aVexpect
p1966
aV.
aVhttps://t.co/wnrwwuaq7l
p1967
aVhttps
p1968
aV:/
p1969
aV/
aV\u2026
asg18
g19
(S'\x07\xdf\x0c\x1d\x0f83\x00\x00\x00'
tRp1970
sg21
Nsg22
VAshleyLaurel
p1971
sa(dp1972
g3
(lp1973
Vrt
p1974
aV@accenturemedia
p1975
aV:
aV2016
p1976
aVpredictions
p1977
aVtold
p1978
aVin
p1979
aVemojis
p1980
aV.
aV\U0001f4c6
aV\U0001f3fb
aVhttps://t.co/y5msbcsfsg
p1981
asg18
g19
(S'\x07\xdf\x0c\x1d\x03\x05\x12\x00\x00\x00'
tRp1982
sg21
Nsg22
VAshleyLaurel
p1983
sa(dp1984
g3
(lp1985
V@cptvonline
p1986
aVfyi
p1987
aV,
aVyou
p1988
aVcan't
p1989
aVsee
p1990
aVthe
p1991
aVfull
p1992
aVrange
p1993
aVof
p1994
aV2015
p1995
aVpricing
p1996
aVon
p1997
aV@roadshowpbs
p1998
aVdue
p1999
aVto
p2000
aVyour
p2001
aVlogo
p2002
aV.
aV\U0001f641
asg18
g19
(S'\x07\xdf\x0c\x1d\x021\x01\x00\x00\x00'
tRp2003
sg21
Nsg22
VAshleyLaurel
p2004
sa(dp2005
g3
(lp2006
V10
p2007
aVtrends
p2008
aVthat
p2009
aVwill
p2010
aVshape
p2011
aVsoutheast
p2012
aVasian
p2013
aVe-commerce
p2014
aVin
p2015
aV2016
p2016
aV.
aVhttps://t.co/lkhlbyy3oq
p2017
asg18
g19
(S'\x07\xdf\x0c\x1c\x13\x009\x00\x00\x00'
tRp2018
sg21
Nsg22
VAshleyLaurel
p2019
sa(dp2020
g3
(lp2021
V@booshette
p2022
aVi
aVgot
p2023
aVa
aVsimilar
p2024
aVgift
p2025
aV!
aVsuch
p2026
aVa
aVfun
p2027
aVactivity
p2028
aVto
p2029
aVdo
p2030
aVwhile
p2031
aVwatching
p2032
aVtv
p2033
aV.
aV:)
p2034
asg18
g19
(S'\x07\xdf\x0c\x1c\x0f\x0b\x1f\x00\x00\x00'
tRp2035
sg21
Nsg22
VAshleyLaurel
p2036
sa(dp2037
g3
(lp2038
Vrt
p2039
aV@eiffeltyler
p2040
aV:
aVin
p2041
aV2016
p2042
aVlet's
p2043
aVall
p2044
aVlive
p2045
aVup
p2046
aVto
p2047
aVour
p2048
aVown
p2049
aVself-marketing
p2050
aVplease
p2051
asg18
g19
(S'\x07\xdf\x0c\x1c\r27\x00\x00\x00'
tRp2052
sg21
Nsg22
VAshleyLaurel
p2053
sa(dp2054
g3
(lp2055
Vrt
p2056
aV@mattieologie
p2057
aV:
aVonce
p2058
aVyou
p2059
aVbecome
p2060
aVgood
p2061
aV,
aVlearn
p2062
aVfrom
p2063
aVyour
p2064
aVmistakes
p2065
aVat
p2066
aVthat
p2067
aVstage
p2068
aVas
p2069
aVwell
p2070
aV.
aVgrow
p2071
aVfrom
p2072
aVbeing
p2073
aVgood
p2074
aV&
aVamp
p2075
aV;
aVbecome
p2076
aVgreat
p2077
aV.
asg18
g19
(S'\x07\xdf\x0c\x1c\r2*\x00\x00\x00'
tRp2078
sg21
Nsg22
VAshleyLaurel
p2079
sa(dp2080
g3
(lp2081
Vrt
p2082
aV@wwd
p2083
aV:
aV.
aV@claridgeshotel
p2084
aV'
aVs
aV@burberry
p2085
aVtree
p2086
aVis
p2087
aVmade
p2088
aVfrom
p2089
aV100
p2090
aVumbrellas
p2091
aVand
p2092
aV77,000
p2093
aVlights
p2094
aV:
aVhttps://t.co/lspm4wcum0
p2095
aVhttps://t.co/3vngdqflxm
p2096
asg18
g19
(S'\x07\xdf\x0c\x1a\x03\n\x17\x00\x00\x00'
tRp2097
sg21
Nsg22
VAshleyLaurel
p2098
sa(dp2099
g3
(lp2100
V@pennydreadful81
p2101
aV@fedex
p2102
aVjust
p2103
aVsaw
p2104
aVthis
p2105
aVon
p2106
aVthe
p2107
aVnews
p2108
aVand
p2109
aVcompletely
p2110
aVagree
p2111
aV!
aV\U0001f60a
aV\U0001f384
asg18
g19
(S'\x07\xdf\x0c\x19\x17\t\x1e\x00\x00\x00'
tRp2112
sg21
Nsg22
VAshleyLaurel
p2113
sa(dp2114
g3
(lp2115
Vfive
p2116
aVdigital
p2117
aVmarketing
p2118
aVtrends
p2119
aVmarketers
p2120
aVwon't
p2121
aVbe
p2122
aVable
p2123
aVto
p2124
aVignore
p2125
aVin
p2126
aV2016
p2127
aV.
aVhttps://t.co/w8peaxk7us
p2128
asg18
g19
(S'\x07\xdf\x0c\x17\x0f\x010\x00\x00\x00'
tRp2129
sg21
Nsg22
VAshleyLaurel
p2130
sa(dp2131
g3
(lp2132
Vrt
p2133
aV@fashionandmash
p2134
aV:
aVthis
p2135
aVlondon-based
p2136
aVstart-up
p2137
aVcan
p2138
aV'
aVpublish
p2139
aV'
aVclothing
p2140
aVon
p2141
aVdemand
p2142
aVhttps://t.co/oaydydi6uq
p2143
aV@unmadestudio
p2144
aV@forbestech
p2145
aV#knitwea
p2146
aV\u2026
asg18
g19
(S'\x07\xdf\x0c\x17\x0e \x1e\x00\x00\x00'
tRp2147
sg21
Nsg22
VAshleyLaurel
p2148
sa(dp2149
g3
(lp2150
Vrt
p2151
aV@nytstyles
p2152
aV:
aVheadphones
p2153
aVare
p2154
aVthe
p2155
aVonly
p2156
aV\u201c
aVdo
p2157
aVnot
p2158
aVdisturb
p2159
aV\u201d
aVsigns
p2160
aVwe
p2161
aVhave
p2162
aVleft
p2163
aV.
aVhttps://t.co/neklhu4mn5
p2164
aVhttps://t.co/szpqo9hk4r
p2165
asg18
g19
(S'\x07\xdf\x0c\x17\x03\x1d:\x00\x00\x00'
tRp2166
sg21
Nsg22
VAshleyLaurel
p2167
sa(dp2168
g3
(lp2169
Vluxury
p2170
aVbrands
p2171
aVin
p2172
aVsoutheast
p2173
aVasia
p2174
aVare
p2175
aVlooking
p2176
aVto
p2177
aVdigital
p2178
aVtech
p2179
aVinnovations
p2180
aVto
p2181
aVbuild
p2182
aVtheir
p2183
aVbrand
p2184
aVprofile
p2185
aV.
aVhttps://t.co/sxyylszlpu
p2186
asg18
g19
(S'\x07\xdf\x0c\x16\x15\x01/\x00\x00\x00'
tRp2187
sg21
Nsg22
VAshleyLaurel
p2188
sa(dp2189
g3
(lp2190
Vcoffee
p2191
aVis
p2192
aVthe
p2193
aVbest
p2194
aV.
aV#jetlag
p2195
asg18
g19
(S'\x07\xdf\x0c\x16\x13\x1a\x1b\x00\x00\x00'
tRp2196
sg21
Nsg22
VAshleyLaurel
p2197
sa(dp2198
g3
(lp2199
Vegypt's
p2200
aVminister
p2201
aVof
p2202
aVcommunications
p2203
aVsays
p2204
aVtechnological
p2205
aVzones
p2206
aVwill
p2207
aVmake
p2208
aVegypt
p2209
aVthe
p2210
aVsilicon
p2211
aVvalley
p2212
aVof
p2213
aVmiddle
p2214
aVeast
p2215
aV.
aVhttps://t.co/frafhqkdqq
p2216
asg18
g19
(S'\x07\xdf\x0c\x16\x12\x01:\x00\x00\x00'
tRp2217
sg21
Nsg22
VAshleyLaurel
p2218
sa(dp2219
g3
(lp2220
Vhas
p2221
aVthe
p2222
aVfashion
p2223
aVindustry
p2224
aVhijacked
p2225
aVwearable
p2226
aVtechnology
p2227
aV?
aVhttps://t.co/0b1jueockm
p2228
aV#fashtech
p2229
asg18
g19
(S'\x07\xdf\x0c\x16\x10\x1f%\x00\x00\x00'
tRp2230
sg21
Nsg22
VAshleyLaurel
p2231
sa(dp2232
g3
(lp2233
V@bradwalsh
p2234
aV@csiriano
p2235
aV@nicolettemason
p2236
aVoh
p2237
aV,
aVi
aVloved
p2238
aVthat
p2239
aVdress
p2240
aV!
aV!
aV\U0001f60d
asg18
g19
(S'\x07\xdf\x0c\x15\x16\t6\x00\x00\x00'
tRp2241
sg21
Nsg22
VAshleyLaurel
p2242
sa(dp2243
g3
(lp2244
Vrt
p2245
aV@accenturehitech
p2246
aV:
aVyou
p2247
aVcan
p2248
aVnow
p2249
aVcommission
p2250
aVworks
p2251
aVof
p2252
aVart
p2253
aVvia
p2254
aV@wechatapp
p2255
aV.
aVhttps://t.co/keyw8xr1v2
p2256
asg18
g19
(S"\x07\xdf\x0c\x15\x15\x04'\x00\x00\x00"
tRp2257
sg21
Nsg22
VAshleyLaurel
p2258
sa(dp2259
g3
(lp2260
Vdigital
p2261
aVhas
p2262
aVirrevocably
p2263
aVtransformed
p2264
aVfashion
p2265
aVweeks
p2266
aV,
aVis
p2267
aVit
p2268
aVfinally
p2269
aVtime
p2270
aVto
p2271
aVembrace
p2272
aVand
p2273
aVchange
p2274
aV?
aVhttps://t.co/0hh2nba7nt
p2275
aV#fashion
p2276
asg18
g19
(S'\x07\xdf\x0c\x15\x11# \x00\x00\x00'
tRp2277
sg21
Nsg22
VAshleyLaurel
p2278
sa(dp2279
g3
(lp2280
Vrt
p2281
aV@murraynewlands
p2282
aV:
aV\u201d
aVgood
p2283
aVthings
p2284
aVcome
p2285
aVto
p2286
aVthose
p2287
aVwho
p2288
aVwait
p2289
aV\u2026
aVgreater
p2290
aVthings
p2291
aVcome
p2292
aVto
p2293
aVthose
p2294
aVwho
p2295
aVare
p2296
aVwilling
p2297
aVto
p2298
aVwork
p2299
aVfor
p2300
aVit
p2301
aV\u201d
asg18
g19
(S'\x07\xdf\x0c\x15\x04\x11+\x00\x00\x00'
tRp2302
sg21
Nsg22
VAshleyLaurel
p2303
sa(dp2304
g3
(lp2305
Vrt
p2306
aV@fashionista_com
p2307
aV:
aVhow
p2308
aVfast
p2309
aVfashion's
p2310
aVsuper-speedy
p2311
aVproduction
p2312
aVpipeline
p2313
aVactually
p2314
aVworks
p2315
aV:
aVhttps://t.co/hyiyidrsus
p2316
asg18
g19
(S'\x07\xdf\x0c\x13\x17"\x03\x00\x00\x00'
tRp2317
sg21
Nsg22
VAshleyLaurel
p2318
sa(dp2319
g3
(lp2320
Vthe
p2321
aVmagic
p2322
aVof
p2323
aVbeing
p2324
aVquiet
p2325
aV.
aVhttps://t.co/bsdl3zztdy
p2326
asg18
g19
(S'\x07\xdf\x0c\x12\x11\x19#\x00\x00\x00'
tRp2327
sg21
Nsg22
VAshleyLaurel
p2328
sa(dp2329
g3
(lp2330
Vok
p2331
aV,
aVlast
p2332
aVweek
p2333
aVi
aVgot
p2334
aVfood
p2335
aVpoisoning
p2336
aV&
aVamp
p2337
aV;
aVthis
p2338
aVweek
p2339
aVi
aVcaught
p2340
aVa
aVcold
p2341
aV.
aVhappy
p2342
aVto
p2343
aVget
p2344
aVthis
p2345
aVout
p2346
aVof
p2347
aVthe
p2348
aVway
p2349
aVbefore
p2350
aVchristmas
p2351
aV.
aV#positivethoughts
p2352
asg18
g19
(S'\x07\xdf\x0c\x11\x162\r\x00\x00\x00'
tRp2353
sg21
Nsg22
VAshleyLaurel
p2354
sa(dp2355
g3
(lp2356
Vhere
p2357
aVare
p2358
aVthe
p2359
aVessential
p2360
aVelements
p2361
aVof
p2362
aVthe
p2363
aVbest
p2364
aVdigital
p2365
aVcustomer
p2366
aVexperiences
p2367
aV,
aVvia
p2368
aV@harvardbiz
p2369
aV.
aVhttps://t.co/vxjbblzhdf
p2370
asg18
g19
(S'\x07\xdf\x0c\x11\x16\x013\x00\x00\x00'
tRp2371
sg21
Nsg22
VAshleyLaurel
p2372
sa(dp2373
g3
(lp2374
V@mstetsondesign
p2375
aVmy
p2376
aVschedule
p2377
aVis
p2378
aVotherwise
p2379
aVpacked
p2380
aVso
p2381
aVlet's
p2382
aVjust
p2383
aVplan
p2384
aVto
p2385
aVmeet
p2386
aVfor
p2387
aVcoffee
p2388
aVafter
p2389
aVthe
p2390
aVnew
p2391
aVyear
p2392
aVstarts
p2393
aV.
aVenjoy
p2394
aVthe
p2395
aVholidays
p2396
aV!
aV\U0001f4ab
asg18
g19
(S'\x07\xdf\x0c\x11\x14\x0c\x0b\x00\x00\x00'
tRp2397
sg21
Nsg22
VAshleyLaurel
p2398
sa(dp2399
g3
(lp2400
Vcoolest
p2401
aVidea
p2402
aVever
p2403
aV!
aV#fashiontech
p2404
aVhttps://t.co/dgdteqmtnm
p2405
asg18
g19
(S'\x07\xdf\x0c\x11\x131(\x00\x00\x00'
tRp2406
sg21
Nsg22
VAshleyLaurel
p2407
sa(dp2408
g3
(lp2409
V@creativemorning
p2410
aVa
aVnotebook
p2411
aVfor
p2412
aVmy
p2413
aVdaily
p2414
aVto-to
p2415
aVlists
p2416
aV,
aVword
p2417
aVdocs
p2418
aVfor
p2419
aVstoring
p2420
aVnotes
p2421
aVfrom
p2422
aVreoccurring
p2423
aVmtgs
p2424
aV&
aVamp
p2425
aV;
aVspreadsheets
p2426
aVfor
p2427
aVother
p2428
aVprojects
p2429
aV.
asg18
g19
(S'\x07\xdf\x0c\x11\x12##\x00\x00\x00'
tRp2430
sg21
Nsg22
VAshleyLaurel
p2431
sa(dp2432
g3
(lp2433
Vrt
p2434
aV@everythinggoats
p2435
aV:
aVyou
p2436
aVjust
p2437
aVgoat
p2438
aVto
p2439
aVfocus
p2440
aVon
p2441
aVthe
p2442
aVpositive
p2443
aV\U0001f60a
aVhttps://t.co/6rwcm0vrbs
p2444
asg18
g19
(S'\x07\xdf\x0c\x11\x12 ,\x00\x00\x00'
tRp2445
sg21
Nsg22
VAshleyLaurel
p2446
sa(dp2447
g3
(lp2448
V.
aV@linkedin
p2449
aVlaunches
p2450
aVnew
p2451
aVset
p2452
aVof
p2453
aVfeatures
p2454
aVfor
p2455
aVjob
p2456
aVseekers
p2457
aV.
aVhttps://t.co/0hzpsogbdz
p2458
asg18
g19
(S'\x07\xdf\x0c\x11\x12\x016\x00\x00\x00'
tRp2459
sg21
Nsg22
VAshleyLaurel
p2460
sa(dp2461
g3
(lp2462
Vrt
p2463
aV@brainpickings
p2464
aV:
aVthe
p2465
aVvelveteen
p2466
aVrabbit
p2467
aVwas
p2468
aVpublished
p2469
aVon
p2470
aVthis
p2471
aVday
p2472
aVin
p2473
aV1922
p2474
aV\u2014
aVhere
p2475
aVis
p2476
aVan
p2477
aVuncommonly
p2478
aVbeautiful
p2479
aVtake
p2480
aVhttps://t.co/8mcvy12q1x
p2481
aVhttp
p2482
aV\u2026
asg18
g19
(S'\x07\xdf\x0c\x11\x0f\x1f\x15\x00\x00\x00'
tRp2483
sg21
Nsg22
VAshleyLaurel
p2484
sa(dp2485
g3
(lp2486
Vsurvive
p2487
aVyour
p2488
aVoffice
p2489
aVholiday
p2490
aVparty
p2491
aVwith
p2492
aVthe
p2493
aVhelp
p2494
aVof
p2495
aVapps
p2496
aV.
aVhttps://t.co/6ue78qh1ya
p2497
asg18
g19
(S'\x07\xdf\x0c\x10\x17\x01-\x00\x00\x00'
tRp2498
sg21
Nsg22
VAshleyLaurel
p2499
sa(dp2500
g3
(lp2501
Vthe
p2502
aVtop
p2503
aV10
p2504
aVemoji
p2505
aVcampaigns
p2506
aVof
p2507
aV2015
p2508
aV.
aV\U0001f389
aV\U0001f389
aV\U0001f389
aVhttps://t.co/3n732ge9xj
p2509
asg18
g19
(S'\x07\xdf\x0c\x10\x15\x02\x02\x00\x00\x00'
tRp2510
sg21
Nsg22
VAshleyLaurel
p2511
sa(dp2512
g3
(lp2513
V.
aV@youtube
p2514
aVto
p2515
aVturn
p2516
aVoff
p2517
aVwebcam
p2518
aVcapture
p2519
aVfeature
p2520
aVin
p2521
aVjanuary
p2522
aVbecause
p2523
aVit's
p2524
aVseldom
p2525
aVused
p2526
aV&
aVamp
p2527
aV;
aVbuilt
p2528
aVon
p2529
aVold
p2530
aVtechnology
p2531
aV.
aVhttps://t.co/mp7e8i2w8r
p2532
asg18
g19
(S'\x07\xdf\x0c\x10\x12\x02\x1c\x00\x00\x00'
tRp2533
sg21
Nsg22
VAshleyLaurel
p2534
sa(dp2535
g3
(lp2536
Vwriting
p2537
aVmy
p2538
aVfirst
p2539
aVtechnology
p2540
aVarticle
p2541
aVin
p2542
aVa
aVfew
p2543
aVyears
p2544
aV.
aV#happy
p2545
aV#nerdingout
p2546
aV#itsgoodtobeback
p2547
asg18
g19
(S'\x07\xdf\x0c\x0f\x17 ,\x00\x00\x00'
tRp2548
sg21
Nsg22
VAshleyLaurel
p2549
sa(dp2550
g3
(lp2551
V@mstetsondesign
p2552
aVthat
p2553
aVwould
p2554
aVbe
p2555
aVlovely
p2556
aV!
aVi
aVhave
p2557
aVsome
p2558
aVtime
p2559
aVsaturday
p2560
aVmorning
p2561
aVif
p2562
aVyou're
p2563
aVaround
p2564
aV.
aV:)
p2565
asg18
g19
(S'\x07\xdf\x0c\x0f\x17\x1e7\x00\x00\x00'
tRp2566
sg21
Nsg22
VAshleyLaurel
p2567
sa(dp2568
g3
(lp2569
V.
aV@google
p2570
aVand
p2571
aV@nasa
p2572
aV'
aVs
aVquantum
p2573
aVcomputer
p2574
aVis
p2575
aV100
p2576
aVmillion
p2577
aVtimes
p2578
aVfaster
p2579
aVthan
p2580
aVyours
p2581
aV.
aVhttps://t.co/4tclkekzxq
p2582
asg18
g19
(S'\x07\xdf\x0c\x0f\x16\x010\x00\x00\x00'
tRp2583
sg21
Nsg22
VAshleyLaurel
p2584
sa(dp2585
g3
(lp2586
Vrt
p2587
aV@bosbizsara
p2588
aV:
aVmy
p2589
aVlist
p2590
aVof
p2591
aVthe
p2592
aVtop
p2593
aV10
p2594
aVboston
p2595
aVstartups
p2596
aVdisrupting
p2597
aVfashion
p2598
aV:
aVhttps://t.co/ypdztzdhqc
p2599
aVcc
p2600
aV:
aV@ministrysupply
p2601
aV@mgemi
p2602
aV@brassclo
p2603
aV@fac
p2604
aV\u2026
asg18
g19
(S'\x07\xdf\x0c\x0f\x15\x132\x00\x00\x00'
tRp2605
sg21
Nsg22
VAshleyLaurel
p2606
sa(dp2607
g3
(lp2608
V.
aV@rebeccaminkoff
p2609
aV\u2019
aVs
aVgame-changing
p2610
aVnyfw
p2611
aVconcept
p2612
aV.
aVhttps://t.co/ni2lbxt0vp
p2613
aV#fashion
p2614
asg18
g19
(S'\x07\xdf\x0c\x0f\x12#\x0b\x00\x00\x00'
tRp2615
sg21
Nsg22
VAshleyLaurel
p2616
sa(dp2617
g3
(lp2618
Vnew
p2619
aVstudy
p2620
aVshows
p2621
aVmobile
p2622
aVapp
p2623
aVsuccess
p2624
aVdepends
p2625
aVlargely
p2626
aVon
p2627
aVdeployment
p2628
aV.
aVhttps://t.co/5zpcncpb4b
p2629
asg18
g19
(S'\x07\xdf\x0c\x0f\x11\x03\x05\x00\x00\x00'
tRp2630
sg21
Nsg22
VAshleyLaurel
p2631
sa(dp2632
g3
(lp2633
V3
aVways
p2634
aVwi-fi
p2635
aVcan
p2636
aVhelp
p2637
aVretailers
p2638
aVthis
p2639
aVholiday
p2640
aVseason
p2641
aV.
aVhttps://t.co/yjrwvhcll4
p2642
asg18
g19
(S'\x07\xdf\x0c\x0f\x10\x02\x11\x00\x00\x00'
tRp2643
sg21
Nsg22
VAshleyLaurel
p2644
sa(dp2645
g3
(lp2646
Vrt
p2647
aV@irish_technews
p2648
aV:
aVfive
p2649
aVirish
p2650
aVcompanies
p2651
aVyou
p2652
aV\u2019
aVve
p2653
aVnever
p2654
aVheard
p2655
aVof
p2656
aVbut
p2657
aVwho
p2658
aVare
p2659
aVdoing
p2660
aVgreat
p2661
aVthings
p2662
aVhttps://t.co/6b0v9luvi5
p2663
asg18
g19
(S'\x07\xdf\x0c\x0f\x06\x12\x14\x00\x00\x00'
tRp2664
sg21
Nsg22
VAshleyLaurel
p2665
sa(dp2666
g3
(lp2667
V2015
p2668
aV'
aVs
aV10
p2669
aVmost
p2670
aVwatched
p2671
aVads
p2672
aVon
p2673
aV@youtube
p2674
aV.
aVhttps://t.co/ujvzsoeurl
p2675
asg18
g19
(S'\x07\xdf\x0c\x0f\x01\x01(\x00\x00\x00'
tRp2676
sg21
Nsg22
VAshleyLaurel
p2677
sa(dp2678
g3
(lp2679
Vjc
p2680
aVpenney
p2681
aVshoppers
p2682
aVvisit
p2683
aVsanta's
p2684
aVworkshop
p2685
aVin
p2686
aVnew
p2687
aVvirtual
p2688
aVreality
p2689
aVinitiative
p2690
aV.
aVhttps://t.co/q1kxs9fujd
p2691
asg18
g19
(S'\x07\xdf\x0c\x0f\x00\x1e\r\x00\x00\x00'
tRp2692
sg21
Nsg22
VAshleyLaurel
p2693
sa(dp2694
g3
(lp2695
V@heifer
p2696
aVgreat
p2697
aV,
aVthanks
p2698
aV!
asg18
g19
(S'\x07\xdf\x0c\x0f\x00\x10\x13\x00\x00\x00'
tRp2699
sg21
Nsg22
VAshleyLaurel
p2700
sa(dp2701
g3
(lp2702
Vwindspeed
p2703
aVtechnologies
p2704
aVdesigns
p2705
aVglass
p2706
aV#skydeck
p2707
aVproviding
p2708
aV360
p2709
aVdegree
p2710
aVview
p2711
aVfrom
p2712
aVatop
p2713
aVairplane
p2714
aV.
aV#travel
p2715
aVhttps://t.co/y5ehkx3hcp
p2716
asg18
g19
(S'\x07\xdf\x0c\x0f\x00\x01:\x00\x00\x00'
tRp2717
sg21
Nsg22
VAshleyLaurel
p2718
sa(dp2719
g3
(lp2720
Vapple
p2721
aVexecutive
p2722
aVseeks
p2723
aVa
aVtouch
p2724
aVof
p2725
aVchic
p2726
aVat
p2727
aVretail
p2728
aVstores
p2729
aV.
aVhttps://t.co/5vp0retxc6
p2730
asg18
g19
(S'\x07\xdf\x0c\x0e\x16#\n\x00\x00\x00'
tRp2731
sg21
Nsg22
VAshleyLaurel
p2732
sa(dp2733
g3
(lp2734
Vnow
p2735
aVon
p2736
aV@producthunt
p2737
aV:
aVa
aV@spotify
p2738
aValbum
p2739
aVof
p2740
aVchristmas
p2741
aVcarols
p2742
aVperformed
p2743
aVby
p2744
aVgoats
p2745
aVhttps://t.co/grtbnlqybe
p2746
aV(
aVcc
p2747
aV:
aV@rrhoover
p2748
aV)
aV#happyholidays
p2749
asg18
g19
(S'\x07\xdf\x0c\x0e\x13\x1e\x1a\x00\x00\x00'
tRp2750
sg21
Nsg22
VAshleyLaurel
p2751
sa(dp2752
g3
(lp2753
Vprada
p2754
aV\u2019
aVs
aVcommitment
p2755
aVto
p2756
aVcsr
p2757
aV:
aV\u2018
aVit
p2758
aV\u2019
aVs
aVnatural
p2759
aV\u2019
aV,
aVvia
p2760
aV@bof
p2761
aV.
aVhttps://t.co/lerefln50r
p2762
aV#fashion
p2763
asg18
g19
(S'\x07\xdf\x0c\x0e\x13\n\x0e\x00\x00\x00'
tRp2764
sg21
Nsg22
VAshleyLaurel
p2765
sa(dp2766
g3
(lp2767
Vrt
p2768
aV@annieshomegrown
p2769
aV:
aVthese
p2770
aVgoats
p2771
aVsinging
p2772
aVchristmas
p2773
aVcarols
p2774
aVare
p2775
aVeverything
p2776
aV.
aVclick
p2777
aVfor
p2778
aVhappiness
p2779
aV:
aVhttps://t.co/xadxzbe1cy
p2780
aV@mashable
p2781
aVhttps://t.
p2782
aV\u2026
asg18
g19
(S'\x07\xdf\x0c\x0e\x12"8\x00\x00\x00'
tRp2783
sg21
Nsg22
VAshleyLaurel
p2784
sa(dp2785
g3
(lp2786
Vrt
p2787
aV@accenturehitech
p2788
aV:
aVwhich
p2789
aVof
p2790
aVthe
p2791
aVfollowing
p2792
aVtechnologies
p2793
aVare
p2794
aVyou
p2795
aVmost
p2796
aVexcited
p2797
aVto
p2798
aVsee
p2799
aVat
p2800
aV#ces2016
p2801
aV?
asg18
g19
(S'\x07\xdf\x0c\x0e\x11\x1d0\x00\x00\x00'
tRp2802
sg21
Nsg22
VAshleyLaurel
p2803
sa(dp2804
g3
(lp2805
V@heifer
p2806
aVhow
p2807
aVlong
p2808
aVwill
p2809
aVthe
p2810
aVshop
p2811
aVbe
p2812
aVthere
p2813
aV?
asg18
g19
(S'\x07\xdf\x0c\x0e\x11\x151\x00\x00\x00'
tRp2814
sg21
Nsg22
VAshleyLaurel
p2815
sa(dp2816
g3
(lp2817
Vrt
p2818
aV@kmburnham
p2819
aV:
aVmy
p2820
aVlatest
p2821
aVon
p2822
aV@computerworld
p2823
aV:
aV\u201c
aVhow
p2824
aVto
p2825
aVboost
p2826
aVyour
p2827
aV@linkedin
p2828
aVprofile
p2829
aVwith
p2830
aVkeywords
p2831
aV\u201d
aVhttps://t.co/m7k4hs2vby
p2832
asg18
g19
(S'\x07\xdf\x0c\x0e\x0f*7\x00\x00\x00'
tRp2833
sg21
Nsg22
VAshleyLaurel
p2834
sa(dp2835
g3
(lp2836
Vrt
p2837
aV@richardbranson
p2838
aV:
aVdoes
p2839
aVflexible
p2840
aVworking
p2841
aVmean
p2842
aVmore
p2843
aVproductive
p2844
aVworking
p2845
aV?
aVfind
p2846
aVout
p2847
aV:
aVhttps://t.co/l2jmatfua8
p2848
aVhttps://t.co/kzvff1n8yc
p2849
asg18
g19
(S'\x07\xdf\x0c\r\x12\x16\x06\x00\x00\x00'
tRp2850
sg21
Nsg22
VAshleyLaurel
p2851
sa(dp2852
g3
(lp2853
Vrt
p2854
aV@sassyfarmanimal
p2855
aV:
aVtis
p2856
aVthe
p2857
aVseason
p2858
aVto
p2859
aVspread
p2860
aVholiday
p2861
aVcheer
p2862
aV\u263a
aV\ufe0f
aV\U0001f384
aV\u2744
aV\ufe0f
aVhttps://t.co/pbzizvophu
p2863
asg18
g19
(S'\x07\xdf\x0c\r\x11\x1c9\x00\x00\x00'
tRp2864
sg21
Nsg22
VAshleyLaurel
p2865
sa(dp2866
g3
(lp2867
Vrt
p2868
aV@everythinggoats
p2869
aV:
aVtiny
p2870
aVgoat
p2871
aVand
p2872
aVa
aVtiny
p2873
aVhat
p2874
aV\U0001f60a
aV\U0001f60a
aVhttps://t.co/pygo76b7ky
p2875
asg18
g19
(S'\x07\xdf\x0c\r\x01(\x13\x00\x00\x00'
tRp2876
sg21
Nsg22
VAshleyLaurel
p2877
sa(dp2878
g3
(lp2879
Vrt
p2880
aV@wtvox
p2881
aV:
aVwearable
p2882
aVtech
p2883
aVwill
p2884
aVshift
p2885
aVfrom
p2886
aVnovelty
p2887
aVto
p2888
aVnorm
p2889
aVin
p2890
aVthe
p2891
aVnext
p2892
aV5
aVyears
p2893
aVhttps://t.co/4vgdxn3gju
p2894
aV#iot
p2895
aV#wearables
p2896
aVhttps://t.co/imoaha0uer
p2897
asg18
g19
(S'\x07\xdf\x0c\x0c\x00"-\x00\x00\x00'
tRp2898
sg21
Nsg22
VAshleyLaurel
p2899
sa(dp2900
g3
(lp2901
Vso
p2902
aVthankful
p2903
aVthis
p2904
aVweek
p2905
aVis
p2906
aValmost
p2907
aVover
p2908
aV.
aV#tgif
p2909
asg18
g19
(S'\x07\xdf\x0c\x0b\x12\x1b5\x00\x00\x00'
tRp2910
sg21
Nsg22
VAshleyLaurel
p2911
sa(dp2912
g3
(lp2913
Vrt
p2914
aV@venturebeat
p2915
aV:
aVtwitter
p2916
aVtesting
p2917
aVpromoted
p2918
aVtweets
p2919
aVto
p2920
aVbe
p2921
aVshown
p2922
aVto
p2923
aVpeople
p2924
aVnot
p2925
aVlogged
p2926
aVin
p2927
aVhttps://t.co/h7tqqkpjlc
p2928
aVhttps://t.co/vscwymj2io
p2929
asg18
g19
(S'\x07\xdf\x0c\x0b\x01 3\x00\x00\x00'
tRp2930
sg21
Nsg22
VAshleyLaurel
p2931
sa(dp2932
g3
(lp2933
Vrt
p2934
aV@katfayir
p2935
aV:
aVshoes
p2936
aVof
p2937
aVprey
p2938
aVraises
p2939
aV$
aV15.5
p2940
aVmillion
p2941
aVhttps://t.co/j77i0vlznu
p2942
aVvia
p2943
aV@mattlindnerir
p2944
aV#ecommerce
p2945
asg18
g19
(S'\x07\xdf\x0c\x0b\x01\x1b-\x00\x00\x00'
tRp2946
sg21
Nsg22
VAshleyLaurel
p2947
sa(dp2948
g3
(lp2949
Vtarget
p2950
aVopens
p2951
aVholiday-themed
p2952
aVplayground
p2953
aVin
p2954
aVnew
p2955
aVyork
p2956
aVcity
p2957
aV.
aVhttps://t.co/1vrcdjfcd6
p2958
aV#holiday
p2959
aV#retail
p2960
asg18
g19
(S'\x07\xdf\x0c\n\x132\x17\x00\x00\x00'
tRp2961
sg21
Nsg22
VAshleyLaurel
p2962
sa(dp2963
g3
(lp2964
Vthis
p2965
aVsmartphone
p2966
aVfrom
p2967
aVjapan
p2968
aVcan
p2969
aVbe
p2970
aVwashed
p2971
aVwith
p2972
aVsoap
p2973
aVand
p2974
aVwater
p2975
aVhttps://t.co/oasxcx2im0
p2976
asg18
g19
(S'\x07\xdf\x0c\n\x11\x01/\x00\x00\x00'
tRp2977
sg21
Nsg22
VAshleyLaurel
p2978
sa(dp2979
g3
(lp2980
V@lg
p2981
aVlooks
p2982
aVawesome
p2983
aV,
aVlarry
p2984
aV!
asg18
g19
(S'\x07\xdf\x0c\n\x03:\x0b\x00\x00\x00'
tRp2985
sg21
Nsg22
VAshleyLaurel
p2986
sa(dp2987
g3
(lp2988
Vrt
p2989
aV@voguerunway
p2990
aV:
aVbreaking
p2991
aV:
aV@dior
p2992
aVannounces
p2993
aVits
p2994
aVin-house
p2995
aVteam
p2996
aVwill
p2997
aVdesign
p2998
aVits
p2999
aVspring
p3000
aV2016
p3001
aVcouture
p3002
aVand
p3003
aVfall
p3004
aV2016
p3005
aVcollections
p3006
aV:
aVhttps://t.co/da
p3007
aV\u2026
asg18
g19
(S'\x07\xdf\x0c\t\x15\x1a\x00\x00\x00\x00'
tRp3008
sg21
Nsg22
VAshleyLaurel
p3009
sa(dp3010
g3
(lp3011
Vhow
p3012
aV@uber
p3013
aVis
p3014
aVmaking
p3015
aVit
p3016
aVeasier
p3017
aVfor
p3018
aVusers
p3019
aVto
p3020
aVfind
p3021
aVtheir
p3022
aVdrivers
p3023
aV.
aVhttps://t.co/dqhdg5m4ef
p3024
asg18
g19
(S'\x07\xdf\x0c\t\x14\x02.\x00\x00\x00'
tRp3025
sg21
Nsg22
VAshleyLaurel
p3026
sa(dp3027
g3
(lp3028
Vbritain's
p3029
aVsmallest
p3030
aVhomegrown
p3031
aVcomputer
p3032
aV@raspberry_pi
p3033
aVshrinks
p3034
aVto
p3035
aVeven
p3036
aVsmaller
p3037
aVsize
p3038
aV&
aVamp
p3039
aV;
aVcost
p3040
aV.
aVhttps://t.co/wtruj26r2w
p3041
aVhttps://t.co/flyiqbkx65
p3042
asg18
g19
(S'\x07\xdf\x0c\t\x12\x02\x17\x00\x00\x00'
tRp3043
sg21
Nsg22
VAshleyLaurel
p3044
sa(dp3045
g3
(lp3046
Vrt
p3047
aV@qz
p3048
aV:
aVwhy
p3049
aVjapanese
p3050
aVdesigners
p3051
aVdo
p3052
aVamericana
p3053
aVbetter
p3054
aVthan
p3055
aVamericans
p3056
aVdo
p3057
aVhttps://t.co/ilabm2cdj8
p3058
asg18
g19
(S'\x07\xdf\x0c\t\x02\x07\x1f\x00\x00\x00'
tRp3059
sg21
Nsg22
VAshleyLaurel
p3060
sa(dp3061
g3
(lp3062
Vwe'll
p3063
aVbe
p3064
aVseeing
p3065
aV@snapchat
p3066
aVleveraged
p3067
aVas
p3068
aVan
p3069
aVadvertising
p3070
aVplatform
p3071
aVduring
p3072
aVnext
p3073
aVyear's
p3074
aVsuperbowl
p3075
aVcampaigns
p3076
aV.
aVhttps://t.co/zznqmiteky
p3077
asg18
g19
(S'\x07\xdf\x0c\x08\x15\x018\x00\x00\x00'
tRp3078
sg21
Nsg22
VAshleyLaurel
p3079
sa(dp3080
g3
(lp3081
V.
aV@visa
p3082
aVteams
p3083
aVup
p3084
aVwith
p3085
aV@swatch
p3086
aVto
p3087
aVoffer
p3088
aV#mobile
p3089
aVpayments
p3090
aVon
p3091
aVnew
p3092
aVbellamy
p3093
aVwatch
p3094
aVin
p3095
aVu
aV.
aVs
aV.
aV,
aVswitzerland
p3096
aVand
p3097
aVbrazil
p3098
aVhttps://t.co/gcnwmrffgg
p3099
asg18
g19
(S'\x07\xdf\x0c\x08\x10\x02\x1b\x00\x00\x00'
tRp3100
sg21
Nsg22
VAshleyLaurel
p3101
sa(dp3102
g3
(lp3103
Vrt
p3104
aV@alizalicht
p3105
aV:
aVi
aVam
p3106
aVfeeling
p3107
aVcreative
p3108
aVtonight
p3109
aVso
p3110
aVi
aVstarted
p3111
aVa
aVnew
p3112
aVblog
p3113
aVcalled
p3114
aVblackboard
p3115
aV.
aVhere
p3116
aVis
p3117
aVmy
p3118
aVfirst
p3119
aVpost
p3120
aV:
aVwatercooler
p3121
aVfashion
p3122
aVhttps
p3123
aV:/
p3124
aV\u2026
asg18
g19
(S'\x07\xdf\x0c\x08\x03)7\x00\x00\x00'
tRp3125
sg21
Nsg22
VAshleyLaurel
p3126
sa(dp3127
g3
(lp3128
Vrt
p3129
aV@kushinbcsd
p3130
aV:
aVthe
p3131
aVangel
p3132
aVtree
p3133
aV@metmuseum
p3134
aVhttps://t.co/hjj6zkmoqd
p3135
asg18
g19
(S'\x07\xdf\x0c\x08\x03(!\x00\x00\x00'
tRp3136
sg21
Nsg22
VAshleyLaurel
p3137
sa(dp3138
g3
(lp3139
Vrt
p3140
aV@kushinbcsd
p3141
aV:
aVyou
p3142
aVoutdid
p3143
aVyourself
p3144
aV@saks
p3145
aV!
aV!
aV!
aVawesome
p3146
aV!
aV#nyc
p3147
aV#holidays
p3148
aVhttps://t.co/bv6fu7md3w
p3149
asg18
g19
(S'\x07\xdf\x0c\x08\x03(\x13\x00\x00\x00'
tRp3150
sg21
Nsg22
VAshleyLaurel
p3151
sa(dp3152
g3
(lp3153
V@staringispolite
p3154
aV@covrter
p3155
aVi'm
p3156
aVnot
p3157
aVsure
p3158
aV,
aVbut
p3159
aVi
aVthink
p3160
aVit
p3161
aVwas
p3162
aVin
p3163
aVor
p3164
aVnear
p3165
aVpoint
p3166
aVreyes
p3167
aV.
asg18
g19
(S"\x07\xdf\x0c\x08\x03'#\x00\x00\x00"
tRp3168
sg21
Nsg22
VAshleyLaurel
p3169
sa(dp3170
g3
(lp3171
V.
aV@yahoo
p3172
aVis
p3173
aVtesting
p3174
aVbig
p3175
aV,
aVautoplay
p3176
aVvideo
p3177
aVads
p3178
aVon
p3179
aVsearch
p3180
aVpages
p3181
aVhttps://t.co/sfmsevgdng
p3182
asg18
g19
(S'\x07\xdf\x0c\x07\x13\x01#\x00\x00\x00'
tRp3183
sg21
Nsg22
VAshleyLaurel
p3184
sa(dp3185
g3
(lp3186
Vdespite
p3187
aVbeing
p3188
aVin
p3189
aVthe
p3190
aVdigital
p3191
aVage
p3192
aV,
aVholiday
p3193
aVwindows
p3194
aVstill
p3195
aVdrive
p3196
aVsales
p3197
aV.
aVhttps://t.co/m1p1atoxzc
p3198
aV#retail
p3199
aV#holidayshopping
p3200
asg18
g19
(S'\x07\xdf\x0c\x07\x12\x1f0\x00\x00\x00'
tRp3201
sg21
Nsg22
VAshleyLaurel
p3202
sa(dp3203
g3
(lp3204
Vhow
p3205
aVthis
p3206
aVmen
p3207
aV\u2019
aVs
aVfashion
p3208
aVcompany
p3209
aVused
p3210
aVcontent
p3211
aVmarketing
p3212
aVto
p3213
aVfund
p3214
aVtheir
p3215
aVkickstarter
p3216
aV.
aVhttps://t.co/feftovqnej
p3217
aV#fashion
p3218
aV#marketing
p3219
asg18
g19
(S'\x07\xdf\x0c\x07\x10 \x02\x00\x00\x00'
tRp3220
sg21
Nsg22
VAshleyLaurel
p3221
sa.