(lp1
(dp2
S'text'
p3
(lp4
Vgotta
p5
aVturn
p6
aVmy
p7
aVphone
p8
aVoff
p9
aVwhen
p10
aVi'm
p11
aVlike
p12
aVthis
p13
aVbruh
p14
aV.
aV.
aV.
aV.
aV.
aV\U0001f62b
aV\U0001f602
aV\U0001f602
aV\U0001f602
asS'created_at'
p15
cdatetime
datetime
p16
(S'\x07\xe0\x01\x18\t,\x14\x00\x00\x00'
tRp17
sS'lat/long'
p18
Nsa(dp19
g3
(lp20
Vman
p21
aVy'all
p22
aVare
p23
aVreally
p24
aVgonna
p25
aVbe
p26
aVsad
p27
aVwith
p28
aVno
p29
aV#conwaytwins
p30
aVthe
p31
aVnext
p32
aV4
aVmonths
p33
aV.
aV.
aV.
aV.
aVjust
p34
aVgotta
p35
aVdeal
p36
aVwith
p37
aVthrowbacks
p38
aVi
aVguess
p39
aV.
asg15
g16
(S'\x07\xe0\x01\x18\t# \x00\x00\x00'
tRp40
sg18
Nsa(dp41
g3
(lp42
Vrt
p43
aV@bg_nodaysoff
p44
aV:
aVthanks
p45
aVaustin
p46
aV!
aVand
p47
aVi
aVgotchu
p48
aVbig
p49
aVbro
p50
aV!
aVdo
p51
aVyour
p52
aVthing
p53
aVout
p54
aVin
p55
aVkansas
p56
aV!
aVnever
p57
aVmet
p58
aVa
aVdude
p59
aVwho
p60
aVloves
p61
aVfootball
p62
aVlike
p63
aVyou
p64
aVboy
p65
aV.
aVhttps
p66
aV\u2026
asg15
g16
(S'\x07\xe0\x01\x18\t\x06*\x00\x00\x00'
tRp67
sg18
Nsa(dp68
g3
(lp69
V@bg_nodaysoff
p70
aVhappy
p71
aVbirthday
p72
aVbig
p73
aVdog
p74
aV\u270a
aV\U0001f3fd
aVhave
p75
aVa
aVgood
p76
aVone
p77
aV.
aVkeep
p78
aVballin
p79
aVbrother
p80
aV,
aVdo
p81
aVit
p82
aVfor
p83
aVthe
p84
aVl
aV\U0001f3c8
asg15
g16
(S'\x07\xe0\x01\x18\x086:\x00\x00\x00'
tRp85
sg18
Nsa(dp86
g3
(lp87
V@julezpereira
p88
aVlookin
p89
aVreal
p90
aVconfused
p91
aV\U0001f602
aVwhy
p92
aVdid
p93
aVyou
p94
aVkeep
p95
aVthese
p96
aV?
aV!
aV\U0001f62b
asg15
g16
(S'\x07\xe0\x01\x18\x085$\x00\x00\x00'
tRp97
sg18
Nsa(dp98
g3
(lp99
V@julezpereira
p100
aVohhhh
p101
aVyou
p102
aVright
p103
aV.
aVi
aVremember
p104
aVnow
p105
aVlol
p106
aVgood
p107
aVtimes
p108
aVbruh
p109
asg15
g16
(S'\x07\xe0\x01\x18\x082\x06\x00\x00\x00'
tRp110
sg18
Nsa(dp111
g3
(lp112
V@julezpereira
p113
aVthank
p114
aVyou
p115
aVfam
p116
aV\u270a
aV\U0001f3fd
aVwhere
p117
aVis
p118
aVthat
p119
aVsecond
p120
aVpic
p121
aVfrom
p122
aV?
aV\U0001f602
aVand
p123
aVwhy
p124
aVwas
p125
aVi
aVso
p126
aVyolked
p127
aVin
p128
aVthe
p129
aVlast
p130
aVone
p131
aV.
aV.
aV\U0001f60f
aV\U0001f4aa
aV\U0001f3fd
asg15
g16
(S'\x07\xe0\x01\x18\x080\x1d\x00\x00\x00'
tRp132
sg18
Nsa(dp133
g3
(lp134
Vrt
p135
aV@julezpereira
p136
aV:
aVi'm
p137
aVgonna
p138
aVmiss
p139
aVyou
p140
aVlike
p141
aVcrazy
p142
aVfam
p143
aV!
aVdo
p144
aVsome
p145
aVgreat
p146
aVthings
p147
aVin
p148
aVkansas
p149
aVi'm
p150
aVso
p151
aVproud
p152
aVof
p153
aVya
p154
aV\u2764
aV\ufe0f
aV\U0001f3c8
aV@austinc3
p155
aVhttps://t.co/hwlajhganc
p156
asg15
g16
(S'\x07\xe0\x01\x18\x08/.\x00\x00\x00'
tRp157
sg18
Nsa(dp158
g3
(lp159
Vrt
p160
aV@aleconway8
p161
aV:
aVgot
p162
aVa
aVpocket
p163
aVfull
p164
aVof
p165
aVmoney
p166
aV.
aV.
aV.
aV@austinc3
p167
aVhttps://t.co/rcyg8gguyf
p168
asg15
g16
(S'\x07\xe0\x01\x18\x08\x1f\x01\x00\x00\x00'
tRp169
sg18
Nsa(dp170
g3
(lp171
V@ciscobruuhhh
p172
aVi
aVlove
p173
aVyou
p174
aVtoo
p175
aVbruh
p176
aV.
aVi'm
p177
aVgonna
p178
aVsee
p179
aVyou
p180
aVsoon
p181
aV\u2764
aV\ufe0f
aV\u270a
aV\U0001f3fd
asg15
g16
(S'\x07\xe0\x01\x18\x08\x0f\x01\x00\x00\x00'
tRp182
sg18
Nsa(dp183
g3
(lp184
Vrt
p185
aV@ciscobruuhhh
p186
aV:
aVi
aVlove
p187
aVyou
p188
aVman
p189
aV.
aVit's
p190
aVnot
p191
aVa
aVgoodbye
p192
aVthough
p193
aVjust
p194
aVa
aVsee
p195
aVyou
p196
aVsoon
p197
aVbrother
p198
aV\U0001f608
aV\U0001f60e
aVput
p199
aVin
p200
aVwork
p201
aVout
p202
aVthere
p203
aV\U0001f3c8
aVhttps://t.co/9bupvdnpzm
p204
asg15
g16
(S'\x07\xe0\x01\x18\x08\x0e+\x00\x00\x00'
tRp205
sg18
Nsa(dp206
g3
(lp207
V@heyy_taytay
p208
aV\U0001f602
aVi
aVgot
p209
aVit
p210
aVfor
p211
aVfree
p212
aV!
asg15
g16
(S'\x07\xe0\x01\x18\x06\x01\x03\x00\x00\x00'
tRp213
sg18
Nsa(dp214
g3
(lp215
V#conwaytwins
p216
aVlast
p217
aVnight
p218
aVtogether
p219
aV.
aVyou
p220
aVknow
p221
aVit'll
p222
aVbe
p223
aVlegendary
p224
aV\U0001f608
aV\U0001f64c
aV\U0001f3fd
aVhttps://t.co/i85nlo7c9f
p225
asg15
g16
(S'\x07\xe0\x01\x18\x05"%\x00\x00\x00'
tRp226
sg18
Nsa(dp227
g3
(lp228
Vrt
p229
aV@6vibe
p230
aV:
aV"
aVhey
p231
aVwhatever
p232
aVhappened
p233
aVto
p234
aVyou
p235
aVand
p236
aV-
aV"
aVhttps://t.co/r7aib99sz6
p237
asg15
g16
(S'\x07\xe0\x01\x18\x05"\x00\x00\x00\x00'
tRp238
sg18
Nsa(dp239
g3
(lp240
Vi
aVlove
p241
aVmy
p242
aVfamily
p243
aV\u270a
aV\U0001f3fd
aV\u2764
aV\ufe0f
asg15
g16
(S'\x07\xe0\x01\x18\x03\x1a\x05\x00\x00\x00'
tRp244
sg18
Nsa(dp245
g3
(lp246
Vrt
p247
aV@worldstarvlne
p248
aV:
aVso
p249
aVshorty
p250
aVjust
p251
aVnot
p252
aVgonna
p253
aVwipe
p254
aVher
p255
aVnose
p256
aV?
aVhttps://t.co/99ljshrz5q
p257
asg15
g16
(S'\x07\xe0\x01\x18\x03\x186\x00\x00\x00'
tRp258
sg18
Nsa(dp259
g3
(lp260
Vsaying
p261
aVbye
p262
aVto
p263
aVthe
p264
aVones
p265
aVthat
p266
aVhave
p267
aVbeen
p268
aVwith
p269
aVme
p270
aVfor
p271
aVthe
p272
aVlast
p273
aV6
aVmonths
p274
aVis
p275
aVreal
p276
aVtough
p277
aV.
aVbeen
p278
aVthrough
p279
aVa
aVlot
p280
aV.
aVyou
p281
aVknow
p282
aVwho
p283
aVyou
p284
aVare
p285
aV.
asg15
g16
(S'\x07\xe0\x01\x18\x03\x18\x1b\x00\x00\x00'
tRp286
sg18
Nsa(dp287
g3
(lp288
Vrt
p289
aV@aleconway8
p290
aV:
aVwe're
p291
aVdown
p292
aVto
p293
aVone
p294
aVmore
p295
aVday
p296
aV.
aVhttps://t.co/l3hrcbz9sy
p297
asg15
g16
(S'\x07\xe0\x01\x18\x02 5\x00\x00\x00'
tRp298
sg18
Nsa(dp299
g3
(lp300
Vlast
p301
aVday
p302
aVin
p303
aVthe
p304
aVbay
p305
aV\u2708
aV\ufe0f
asg15
g16
(S'\x07\xe0\x01\x17\x13\x08\x0c\x00\x00\x00'
tRp306
sg18
Nsa(dp307
g3
(lp308
V@meechemarie
p309
aVyou
p310
aVgot
p311
aVa
aVhome
p312
aVdawg
p313
aV\u270a
aV\U0001f3fd
asg15
g16
(S'\x07\xe0\x01\x17\t5\x03\x00\x00\x00'
tRp314
sg18
Nsa(dp315
g3
(lp316
V@dandoeee36
p317
aVthat's
p318
aVwhat
p319
aVi'm
p320
aVtalking
p321
aVabout
p322
aV\U0001f60d
asg15
g16
(S'\x07\xe0\x01\x17\t4-\x00\x00\x00'
tRp323
sg18
Nsa(dp324
g3
(lp325
V@dandoeee36
p326
aVnah
p327
aVyou
p328
aVgotta
p329
aVbe
p330
aVthere
p331
aVbruh
p332
aV.
aVit's
p333
aVmy
p334
aVlast
p335
aVnight
p336
aV.
aVgotta
p337
aVat
p338
aVleast
p339
aVslide
p340
aVfor
p341
aVa
aVminute
p342
asg15
g16
(S'\x07\xe0\x01\x17\t3-\x00\x00\x00'
tRp343
sg18
Nsa(dp344
g3
(lp345
V@dandoeee36
p346
aVtrue
p347
aVthat
p348
aV.
aVi'm
p349
aVgonna
p350
aVsee
p351
aVyou
p352
aVtomorrow
p353
aV?
asg15
g16
(S'\x07\xe0\x01\x17\t\x02+\x00\x00\x00'
tRp354
sg18
Nsa(dp355
g3
(lp356
Vall
p357
aVkinds
p358
aVof
p359
aVhaters
p360
aVout
p361
aVthere
p362
aV\U0001f602
asg15
g16
(S'\x07\xe0\x01\x17\x08;8\x00\x00\x00'
tRp363
sg18
Nsa(dp364
g3
(lp365
Vevery
p366
aVtime
p367
aVi
aVhear
p368
aVcountry
p369
aVmusic
p370
aVi
aVthink
p371
aVof
p372
aVyou
p373
aV.
aV.
aV.
aV.
aVthat's
p374
aVnot
p375
aVcool
p376
aV.
aVlol
p377
asg15
g16
(S'\x07\xe0\x01\x17\x08)\x1a\x00\x00\x00'
tRp378
sg18
Nsa(dp379
g3
(lp380
V@m_davidson123
p381
aVoh
p382
aVdope
p383
asg15
g16
(S'\x07\xe0\x01\x17\x08#.\x00\x00\x00'
tRp384
sg18
Nsa(dp385
g3
(lp386
Vturned
p387
aVinto
p388
aVa
aVchill
p389
aVnight
p390
aVwith
p391
aVthe
p392
aVyung
p393
aVthugs
p394
asg15
g16
(S"\x07\xe0\x01\x17\x08\x12'\x00\x00\x00"
tRp395
sg18
Nsa(dp396
g3
(lp397
V\U0001f36a
aVhere's
p398
aVa
aVcookie
p399
aVhttps://t.co/vcwguyg97x
p400
asg15
g16
(S'\x07\xe0\x01\x17\x07\x1d\x0b\x00\x00\x00'
tRp401
sg18
Nsa(dp402
g3
(lp403
Vi'm
p404
aVsaving
p405
aVmyself
p406
aVtill
p407
aVmarriage
p408
aVtbh
p409
asg15
g16
(S'\x07\xe0\x01\x17\x07\x17\x15\x00\x00\x00'
tRp410
sg18
Nsa(dp411
g3
(lp412
Vwhat
p413
aVhappened
p414
aV.
aV.
aV.
aV.
aV?
aVhttps://t.co/p9by3disl4
p415
asg15
g16
(S'\x07\xe0\x01\x17\x04\x05\x1c\x00\x00\x00'
tRp416
sg18
Nsa(dp417
g3
(lp418
V@ciscobruuhhh
p419
aVand
p420
aVit's
p421
aVa
aVgreat
p422
aVsource
p423
aVof
p424
aVprotein
p425
asg15
g16
(S'\x07\xe0\x01\x17\x03%3\x00\x00\x00'
tRp426
sg18
Nsa(dp427
g3
(lp428
Vi
aVfeel
p429
aVthat
p430
aVmunchie
p431
aVmeal
p432
aVclogging
p433
aVmy
p434
aVarteries
p435
aVbruh
p436
aV.
aV.
aV.
asg15
g16
(S'\x07\xe0\x01\x16\x08\x1f\x1b\x00\x00\x00'
tRp437
sg18
Nsa(dp438
g3
(lp439
V"
aVaustin
p440
aV"
aVby
p441
aVblake
p442
aVshelton
p443
aVis
p444
aVfasho
p445
aVabout
p446
aVme
p447
aV\U0001f602
aV\u270a
aV\U0001f3fd
asg15
g16
(S'\x07\xe0\x01\x16\x08\x176\x00\x00\x00'
tRp448
sg18
Nsa(dp449
g3
(lp450
V@julezpereira
p451
aV@bosssvids
p452
aV\U0001f602
aV\U0001f602
aV\U0001f602
aV\U0001f602
aVyou
p453
aVgot
p454
aVme
p455
aVrollin
p456
aVfam
p457
asg15
g16
(S"\x07\xe0\x01\x16\x06\x15'\x00\x00\x00"
tRp458
sg18
Nsa(dp459
g3
(lp460
V@backman_reece
p461
aVi'm
p462
aVgonna
p463
aVmiss
p464
aVyou
p465
aVtoo
p466
aVman
p467
aV\u270a
aV\U0001f3fd
aV\u2764
aV\ufe0f
asg15
g16
(S'\x07\xe0\x01\x16\x03\n,\x00\x00\x00'
tRp468
sg18
Nsa(dp469
g3
(lp470
V@ikelliegold
p471
aVoff
p472
aVto
p473
aVkansas
p474
aVfor
p475
aVschool
p476
asg15
g16
(S'\x07\xe0\x01\x16\x03\n\x1d\x00\x00\x00'
tRp477
sg18
Nsa(dp478
g3
(lp479
V"
aVi
aVhope
p480
aVthat
p481
aVi
aVcan
p482
aVturn
p483
aVback
p484
aVthe
p485
aVtime
p486
aVto
p487
aVmake
p488
aVit
p489
aValright
p490
aVfor
p491
aVus
p492
aV"
aV\U0001f3a7
asg15
g16
(S'\x07\xe0\x01\x16\x03\n\x0e\x00\x00\x00'
tRp493
sg18
Nsa(dp494
g3
(lp495
Vreally
p496
aVleaving
p497
aVin
p498
aV3
aVdays
p499
aVbruh
p500
aV.
aV3
aVdays
p501
aV.
asg15
g16
(S'\x07\xe0\x01\x16\x01#0\x00\x00\x00'
tRp502
sg18
Nsa(dp503
g3
(lp504
Vrt
p505
aV@ilikevinesdaily
p506
aV:
aVkendall
p507
aVjenner
p508
aV\U0001f60d
aV\U0001f618
aVhttps://t.co/szxlmmi56n
p509
asg15
g16
(S'\x07\xe0\x01\x16\x01  \x00\x00\x00'
tRp510
sg18
Nsa(dp511
g3
(lp512
Vrt
p513
aV@ilikeassdaily
p514
aV:
aV\U0001f60d
aV\U0001f60d
aV\U0001f60d
aVhttps://t.co/cyq34szjes
p515
asg15
g16
(S'\x07\xe0\x01\x15\x17$0\x00\x00\x00'
tRp516
sg18
Nsa(dp517
g3
(lp518
Vrt
p519
aV@manstagram_
p520
aV:
aVrelationship
p521
aVstatus
p522
aV:
aVhttps://t.co/xhjxj2bebj
p523
asg15
g16
(S"\x07\xe0\x01\x15\x16'\t\x00\x00\x00"
tRp524
sg18
Nsa(dp525
g3
(lp526
V#conwaytwins
p527
aVblessing
p528
aVyour
p529
aVtl
p530
aVhttps://t.co/ej9cbkezey
p531
asg15
g16
(S'\x07\xe0\x01\x15\x06\x06\x17\x00\x00\x00'
tRp532
sg18
Nsa(dp533
g3
(lp534
V@m_davidson123
p535
aVschmitty
p536
aVwarbermanjensen
p537
aV?
asg15
g16
(S'\x07\xe0\x01\x15\x047)\x00\x00\x00'
tRp538
sg18
Nsa(dp539
g3
(lp540
Vrt
p541
aV@woridstarhiph0p
p542
aV:
aVchildren
p543
aVwere
p544
aVasked
p545
aVto
p546
aVwrite
p547
aVdown
p548
aVtheir
p549
aVown
p550
aVjokes
p551
aVhttps://t.co/xp6hspffwg
p552
asg15
g16
(S'\x07\xe0\x01\x15\x03 !\x00\x00\x00'
tRp553
sg18
Nsa(dp554
g3
(lp555
Vrt
p556
aV@ciscobruuhhh
p557
aV:
aV@austinc3
p558
aV@aleconway8
p559
aV\U0001f62d
aV\U0001f602
aV\U0001f62d
aV\U0001f602
aV\U0001f62d
aV\U0001f602
aVhttps://t.co/uoglyvun07
p560
asg15
g16
(S'\x07\xe0\x01\x15\x02.!\x00\x00\x00'
tRp561
sg18
Nsa(dp562
g3
(lp563
Vthis
p564
aVcough
p565
aVis
p566
aVkilling
p567
aVme
p568
asg15
g16
(S'\x07\xe0\x01\x14\x08*\x19\x00\x00\x00'
tRp569
sg18
Nsa(dp570
g3
(lp571
V4
aVdays
p572
aVand
p573
aVi'm
p574
aVout
p575
aVthis
p576
aVthang
p577
aV\u2708
aV\ufe0f
aV\U0001f3c8
asg15
g16
(S'\x07\xe0\x01\x14\x08\x108\x00\x00\x00'
tRp578
sg18
Nsa(dp579
g3
(lp580
Vwe're
p581
aVjust
p582
aVfriends
p583
aV?
aVwhat
p584
aVare
p585
aVyou
p586
aVsayin
p587
asg15
g16
(S'\x07\xe0\x01\x14\x07:\n\x00\x00\x00'
tRp588
sg18
Nsa(dp589
g3
(lp590
Vrt
p591
aV@farrar3790
p592
aV:
aVhttps://t.co/l9hxs2d2k9
p593
asg15
g16
(S"\x07\xe0\x01\x14\x04*'\x00\x00\x00"
tRp594
sg18
Nsa(dp595
g3
(lp596
Vbae
p597
aVhttps://t.co/utohvpanlj
p598
asg15
g16
(S'\x07\xe0\x01\x14\x04\x03(\x00\x00\x00'
tRp599
sg18
Nsa(dp600
g3
(lp601
Vrt
p602
aV@aleconway8
p603
aV:
aVthe
p604
aVoriginal
p605
aVtwins
p606
aVof
p607
aVthe
p608
aVfamily
p609
aV.
aVreally
p610
aVwish
p611
aVwe
p612
aVcould
p613
aVhave
p614
aVcelebrated
p615
aVyour
p616
aV80
p617
aVth
p618
aVbirthday
p619
aVtoday
p620
aV.
aV.
aVwe
p621
aVmiss
p622
aVyou
p623
aV\U0001f64f
aV\U0001f3fd
aVhttps://t.c
p624
aV\u2026
asg15
g16
(S'\x07\xe0\x01\x14\x02#\n\x00\x00\x00'
tRp625
sg18
Nsa(dp626
g3
(lp627
Vrt
p628
aV@complex_sports
p629
aV:
aVantwaan
p630
aVrandle-el
p631
aV,
aVsuffering
p632
aVmentally
p633
aVand
p634
aVphysically
p635
aV,
aVwishes
p636
aVhe
p637
aVnever
p638
aVplayed
p639
aVfootball
p640
aV.
aVhttps://t.co/jdbf80p0fm
p641
aVhttps
p642
aV:/
p643
aV/
aV\u2026
asg15
g16
(S'\x07\xe0\x01\x13\x153"\x00\x00\x00'
tRp644
sg18
Nsa(dp645
g3
(lp646
V@dandoeee36
p647
aVi
aVwish
p648
aVthe
p649
aVold
p650
aVone
p651
aV\U0001f62b
aVso
p652
aVmany
p653
aVgood
p654
aVtimes
p655
aVlol
p656
asg15
g16
(S'\x07\xe0\x01\x13\t\x1d#\x00\x00\x00'
tRp657
sg18
Nsa(dp658
g3
(lp659
V@dandoeee36
p660
aVnah
p661
aVog
p662
aVtrap
p663
aVhouse
p664
asg15
g16
(S'\x07\xe0\x01\x13\t\x1c&\x00\x00\x00'
tRp665
sg18
Nsa(dp666
g3
(lp667
V@dandoeee36
p668
aVparty
p669
aVbruh
p670
aV.
aVslide
p671
asg15
g16
(S'\x07\xe0\x01\x13\t\x196\x00\x00\x00'
tRp672
sg18
Nsa(dp673
g3
(lp674
Vrt
p675
aV@shanew253
p676
aV:
aVjuco
p677
aVball
p678
aVwill
p679
aVtest
p680
aVwhether
p681
aVyou
p682
aVlove
p683
aVfootball
p684
aVor
p685
aVwhether
p686
aVyou
p687
aVthink
p688
aVyou
p689
aVlove
p690
aVfootball
p691
asg15
g16
(S'\x07\xe0\x01\x13\t\x12\x10\x00\x00\x00'
tRp692
sg18
Nsa(dp693
g3
(lp694
Vreal
p695
aVjuiced
p696
aVfor
p697
aVkansas
p698
asg15
g16
(S'\x07\xe0\x01\x13\x052\x14\x00\x00\x00'
tRp699
sg18
Nsa(dp700
g3
(lp701
Vrt
p702
aV@lifecheates
p703
aV:
aVdon't
p704
aVtalk
p705
aV,
aVact
p706
aV.
aVdon't
p707
aVsay
p708
aV,
aVshow
p709
aV.
aVdon't
p710
aVpromise
p711
aV,
aVprove
p712
aV.
asg15
g16
(S'\x07\xe0\x01\x13\x051\x15\x00\x00\x00'
tRp713
sg18
Nsa(dp714
g3
(lp715
Vrt
p716
aV@khalifw05
p717
aV:
aV\U0001f602
aV\U0001f602
aV\U0001f602
aV\U0001f602
aV\U0001f602
aV\U0001f602
aV\U0001f602
aVrt
p718
aV@athletehaven
p719
aV:
aVkareem
p720
aVabdul-jabbar
p721
aVthe
p722
aVrealest
p723
aV\U0001f602
aV\U0001f4af
aVhttps://t.co/f7gkug8jve
p724
asg15
g16
(S'\x07\xe0\x01\x13\x05(\x17\x00\x00\x00'
tRp725
sg18
Nsa(dp726
g3
(lp727
Vforreal
p728
aVbruh
p729
aV.
aVdon't
p730
aVwaste
p731
aVmy
p732
aVtime
p733
aVhttps://t.co/qa3p77oisc
p734
asg15
g16
(S'\x07\xe0\x01\x13\x05&\x15\x00\x00\x00'
tRp735
sg18
Nsa(dp736
g3
(lp737
Vrt
p738
aV@sportscenter
p739
aV:
aVanother
p740
aV1
aV:
aVno
p741
aV.
aV19
p742
aViowa
p743
aVstate
p744
aVtakes
p745
aVdown
p746
aVno
p747
aV.
aV1
aVoklahoma
p748
aVat
p749
aVhome
p750
aV,
aV82
p751
aV-
aV77
p752
aV.
aVhttps://t.co/cvak2czvxd
p753
asg15
g16
(S'\x07\xe0\x01\x13\x04\x1e\x1b\x00\x00\x00'
tRp754
sg18
Nsa(dp755
g3
(lp756
Vrt
p757
aV@causewereguys
p758
aV:
aVbest
p759
aVthing
p760
aVi've
p761
aVseen
p762
aVall
p763
aVday
p764
aVhttps://t.co/arfy1827zf
p765
asg15
g16
(S"\x07\xe0\x01\x13\x02('\x00\x00\x00"
tRp766
sg18
Nsa(dp767
g3
(lp768
Vthe
p769
aVwarriors
p770
aVkeep
p771
aVrunning
p772
aVthe
p773
aVsame
p774
aVthing
p775
aVand
p776
aVscore
p777
aVevery
p778
aVtime
p779
aV\U0001f602
asg15
g16
(S'\x07\xe0\x01\x13\x02%*\x00\x00\x00'
tRp780
sg18
Nsa(dp781
g3
(lp782
Vrt
p783
aV@aleconway8
p784
aV:
aValways
p785
aVa
aVgood
p786
aVtime
p787
aVwith
p788
aVyou
p789
aV\U0001f60a
aVhttps://t.co/ahxae33p6u
p790
asg15
g16
(S'\x07\xe0\x01\x13\x02\x130\x00\x00\x00'
tRp791
sg18
Nsa(dp792
g3
(lp793
Vrt
p794
aV@lifecheates
p795
aV:
aVif
p796
aVi
aVget
p797
aVjealous
p798
aVthen
p799
aVyes
p800
aV,
aVi
aVreally
p801
aVlike
p802
aVyou
p803
aV.
asg15
g16
(S"\x07\xe0\x01\x13\x02\x12'\x00\x00\x00"
tRp804
sg18
Nsa(dp805
g3
(lp806
V6
aVdays
p807
aVtill
p808
aVtake
p809
aVoff
p810
aV\u2708
aV\ufe0f
aV#kansasbound
p811
asg15
g16
(S'\x07\xe0\x01\x12\x14\x10\x0f\x00\x00\x00'
tRp812
sg18
Nsa(dp813
g3
(lp814
Vrt
p815
aV@bestcomedyvine
p816
aV:
aVevery
p817
aVsuccessful
p818
aVperson
p819
aVmust
p820
aVdo
p821
aVthis
p822
aV.
aVhttps://t.co/fexfqfwe1o
p823
asg15
g16
(S'\x07\xe0\x01\x12\x13\x07\x00\x00\x00\x00'
tRp824
sg18
Nsa(dp825
g3
(lp826
Vit's
p827
aVreally
p828
aVbeen
p829
aVpouring
p830
aVfor
p831
aVhours
p832
asg15
g16
(S'\x07\xe0\x01\x12\t!\x10\x00\x00\x00'
tRp833
sg18
Nsa(dp834
g3
(lp835
Vrt
p836
aV@kingryin
p837
aV:
aVwhen
p838
aVshe
p839
aVfinally
p840
aVaccepts
p841
aVyou
p842
aVfor
p843
aVwho
p844
aVyou
p845
aVare
p846
aVhttps://t.co/ftuiwxwzu2
p847
asg15
g16
(S'\x07\xe0\x01\x12\x07\x0c,\x00\x00\x00'
tRp848
sg18
Nsa(dp849
g3
(lp850
Vfresh
p851
aVcut
p852
aVboi
p853
aVhttps://t.co/sd9rhkvihs
p854
asg15
g16
(S'\x07\xe0\x01\x12\x06\x14\x11\x00\x00\x00'
tRp855
sg18
Nsa(dp856
g3
(lp857
Vdoes
p858
aVit
p859
aVmake
p860
aVyou
p861
aVcool
p862
aVif
p863
aVyour
p864
aVphone
p865
aVautomatically
p866
aVconnects
p867
aVto
p868
aVtargets
p869
aVwifi
p870
aV?
asg15
g16
(S'\x07\xe0\x01\x12\x06\x12:\x00\x00\x00'
tRp871
sg18
Nsa(dp872
g3
(lp873
Vrt
p874
aV@joeyypohiv
p875
aV:
aVliving
p876
aVin
p877
aVthe
p878
aVstruggle
p879
aVis
p880
aVone
p881
aVof
p882
aVthe
p883
aVreasons
p884
aVwhy
p885
aVim
p886
aVthe
p887
aVman
p888
aVi
aVam
p889
aVtoday
p890
aV.
aVbeautiful
p891
aVexperience
p892
aVhonestly
p893
aV.
asg15
g16
(S'\x07\xe0\x01\x12\x06\x089\x00\x00\x00'
tRp894
sg18
Nsa(dp895
g3
(lp896
Vthe
p897
aVmore
p898
aVi
aVhang
p899
aVout
p900
aVwith
p901
aVpeople
p902
aVfrom
p903
aVover
p904
aVthe
p905
aVhill
p906
aVthe
p907
aVmore
p908
aVi
aVrealize
p909
aVthat
p910
aVeveryone
p911
aVknows
p912
aVeveryone
p913
aV.
aVlol
p914
asg15
g16
(S'\x07\xe0\x01\x12\x05:7\x00\x00\x00'
tRp915
sg18
Nsa(dp916
g3
(lp917
Vrt
p918
aV@nessamluv
p919
aV:
aVwhen
p920
aVyour
p921
aVplan
p922
aVfor
p923
aVthe
p924
aVnight
p925
aVis
p926
aVto
p927
aVgood
p928
aVaround
p929
aVin
p930
aVtarget
p931
aV\U0001f602
aV\U0001f602
aV\U0001f602
aV@austinc3
p932
asg15
g16
(S'\x07\xe0\x01\x12\x05\x18\x18\x00\x00\x00'
tRp933
sg18
Nsa(dp934
g3
(lp935
Vi
aVbeen
p936
aVgetting
p937
aVdirty
p938
aVmoney
p939
aV,
aVjordan
p940
aVbelfort
p941
asg15
g16
(S'\x07\xe0\x01\x12\x02"#\x00\x00\x00'
tRp942
sg18
Nsa(dp943
g3
(lp944
Vrt
p945
aV@goals4dudes
p946
aV:
aVi
aVneed
p947
aVone
p948
aVin
p949
aVmy
p950
aVlife
p951
aV\U0001f42f
aVhttps://t.co/exzrgmo7tm
p952
asg15
g16
(S'\x07\xe0\x01\x12\x02\x04\x12\x00\x00\x00'
tRp953
sg18
Nsa(dp954
g3
(lp955
Vcountdown
p956
aVto
p957
aVdeparture
p958
aV:
aV7
aVdays
p959
aV\u2708
aV\ufe0f
asg15
g16
(S'\x07\xe0\x01\x11\x17\x14\x1b\x00\x00\x00'
tRp960
sg18
Nsa(dp961
g3
(lp962
Vrt
p963
aV@notsportscenter
p964
aV:
aVupdated
p965
aVpeyton
p966
aVmanning
p967
aVmadden
p968
aVratings
p969
aV-
aVawareness
p970
aV:
aV\u221e
aV-
aVthrow
p971
aVpower
p972
aV:
aVwounded
p973
aVduck
p974
aV-
aVspeed
p975
aV:
aVone
p976
aVleg
p977
aVturtle
p978
aV-
aVomaha
p979
aVyelling
p980
aV:
aV\u2026
asg15
g16
(S'\x07\xe0\x01\x11\x17\x12;\x00\x00\x00'
tRp981
sg18
Nsa(dp982
g3
(lp983
V@m_davidson123
p984
aV\U0001f602
aV\U0001f602
aV\U0001f602
aV\u2764
aV\ufe0f
asg15
g16
(S'\x07\xe0\x01\x11\x15\x01\x15\x00\x00\x00'
tRp985
sg18
Nsa(dp986
g3
(lp987
Vrt
p988
aV@m_davidson123
p989
aV:
aV@austinc3
p990
aVlove
p991
aVme
p992
aVhttps://t.co/jnbaypb4or
p993
asg15
g16
(S'\x07\xe0\x01\x11\x15\x00\x04\x00\x00\x00'
tRp994
sg18
Nsa(dp995
g3
(lp996
Vseahawks
p997
aVliterally
p998
aVthe
p999
aVluckiest
p1000
aVteam
p1001
aVout
p1002
aVbruh
p1003
aV\U0001f602
aV\U0001f602
aV\U0001f602
asg15
g16
(S'\x07\xe0\x01\x11\x14.:\x00\x00\x00'
tRp1004
sg18
Nsa(dp1005
g3
(lp1006
Vthis
p1007
aVis
p1008
aVonly
p1009
aVabout
p1010
aVhalf
p1011
aVof
p1012
aVthe
p1013
aVpics
p1014
aV@m_davidson123
p1015
aVtook
p1016
aVon
p1017
aVmy
p1018
aVphone
p1019
aVlast
p1020
aVnight
p1021
aV.
aV.
aV.
aV.
aV\U0001f602
aVhttps://t.co/nblaiouks7
p1022
asg15
g16
(S'\x07\xe0\x01\x11\x14%\x1b\x00\x00\x00'
tRp1023
sg18
Nsa(dp1024
g3
(lp1025
Vfeelin
p1026
aVreal
p1027
aVbad
p1028
aVtbh
p1029
asg15
g16
(S'\x07\xe0\x01\x11\x14\x11\x1d\x00\x00\x00'
tRp1030
sg18
Nsa(dp1031
g3
(lp1032
Vpacking
p1033
aVthis
p1034
aVsuitcase
p1035
aVmaking
p1036
aVthe
p1037
aVmove
p1038
aVfeel
p1039
aVso
p1040
aVreal
p1041
aV\U0001f633
asg15
g16
(S'\x07\xe0\x01\x11\x14\x0b#\x00\x00\x00'
tRp1042
sg18
Nsa(dp1043
g3
(lp1044
Vwhat
p1045
aVis
p1046
aVgoing
p1047
aVon
p1048
aVbruh
p1049
aV.
aV.
aV.
aV.
aV.
asg15
g16
(S'\x07\xe0\x01\x11\x14\x03\x12\x00\x00\x00'
tRp1050
sg18
Nsa(dp1051
g3
(lp1052
Vrt
p1053
aV@sheswantsthed
p1054
aV:
aVlet's
p1055
aVnever
p1056
aVforget
p1057
aVthis
p1058
aVgirl's
p1059
aVthirst
p1060
aV\U0001f602
aV\U0001f602
aV\U0001f602
aVhttps://t.co/qgpoieezco
p1061
asg15
g16
(S'\x07\xe0\x01\x11\x132\x15\x00\x00\x00'
tRp1062
sg18
Nsa(dp1063
g3
(lp1064
Vlast
p1065
aVnight
p1066
aVwith
p1067
aVthe
p1068
aVlaney
p1069
aVboyz
p1070
aV\U0001f3c8
aV\U0001f608
aVhttps://t.co/ewh7wvitc0
p1071
asg15
g16
(S'\x07\xe0\x01\x11\x13##\x00\x00\x00'
tRp1072
sg18
Nsa(dp1073
g3
(lp1074
Vrt
p1075
aV@aleconway8
p1076
aV:
aV@panthers
p1077
aVstart
p1078
aVplaying
p1079
aVsome
p1080
aV@1future
p1081
aVto
p1082
aVstop
p1083
aVthis
p1084
aVdrive
p1085
aV#keeppounding
p1086
asg15
g16
(S'\x07\xe0\x01\x11\x13\x14\x01\x00\x00\x00'
tRp1087
sg18
Nsa(dp1088
g3
(lp1089
Vlast
p1090
aVnight
p1091
aVwas
p1092
aVdope
p1093
asg15
g16
(S'\x07\xe0\x01\x11\x11\x11\x1b\x00\x00\x00'
tRp1094
sg18
Nsa(dp1095
g3
(lp1096
V@briittyoung
p1097
aVno
p1098
aV,
aVyou're
p1099
aVwelcome
p1100
asg15
g16
(S'\x07\xe0\x01\x10\x14\r3\x00\x00\x00'
tRp1101
sg18
Nsa(dp1102
g3
(lp1103
Vthat's
p1104
aVcisco
p1105
aVbruuhhh
p1106
aVfasho
p1107
aV\U0001f44c
aV\U0001f3fd
aV\U0001f602
asg15
g16
(S'\x07\xe0\x01\x10\x14\n\x06\x00\x00\x00'
tRp1108
sg18
Nsa(dp1109
g3
(lp1110
Vyou
p1111
aVever
p1112
aVhave
p1113
aVthat
p1114
aVone
p1115
aVperson
p1116
aVyou
p1117
aVcan't
p1118
aVhelp
p1119
aVbut
p1120
aVsmile
p1121
aVat
p1122
aVtexts
p1123
aV.
aV.
aV?
aV\U0001f60f
aV\U0001f60c
asg15
g16
(S'\x07\xe0\x01\x10\x14\t5\x00\x00\x00'
tRp1124
sg18
Nsa(dp1125
g3
(lp1126
Veverything
p1127
aVwill
p1128
aVbe
p1129
aVokay
p1130
aV-
aVg-eazy
p1131
aV\U0001f3a7
asg15
g16
(S"\x07\xe0\x01\x10\x14\x01'\x00\x00\x00"
tRp1132
sg18
Nsa(dp1133
g3
(lp1134
V\U0001f602
aV\U0001f602
aV\U0001f602
aV\U0001f602
aV\U0001f602
aVhttps://t.co/u9woptehrd
p1135
asg15
g16
(S'\x07\xe0\x01\x10\x14\x007\x00\x00\x00'
tRp1136
sg18
Nsa(dp1137
g3
(lp1138
Vrt
p1139
aV@lifecheates
p1140
aV:
aVlistening
p1141
aVto
p1142
aVmusic
p1143
aVat
p1144
aVhigh
p1145
aVvolumes
p1146
aVmakes
p1147
aVa
aVperson
p1148
aVcalmer
p1149
aV,
aVhappier
p1150
aVand
p1151
aVmore
p1152
aVrelaxed
p1153
aV.
asg15
g16
(S'\x07\xe0\x01\x10\x13/\x1d\x00\x00\x00'
tRp1154
sg18
Nsa(dp1155
g3
(lp1156
V@meechemarie
p1157
aVokay
p1158
aV,
aVgoodnight
p1159
asg15
g16
(S'\x07\xe0\x01\x10\n\r\x1d\x00\x00\x00'
tRp1160
sg18
Nsa(dp1161
g3
(lp1162
V@dandoeee36
p1163
aVme
p1164
asg15
g16
(S'\x07\xe0\x01\x10\t4:\x00\x00\x00'
tRp1165
sg18
Nsa(dp1166
g3
(lp1167
Vhydro
p1168
aVplaning
p1169
aVall
p1170
aVover
p1171
aVthis
p1172
aVfreeway
p1173
asg15
g16
(S'\x07\xe0\x01\x10\t40\x00\x00\x00'
tRp1174
sg18
Nsa(dp1175
g3
(lp1176
Vslumped
p1177
aVbruh
p1178
asg15
g16
(S'\x07\xe0\x01\x10\t%\x15\x00\x00\x00'
tRp1179
sg18
Nsa(dp1180
g3
(lp1181
Vhappy
p1182
aVbirthday
p1183
aV@heyy_taytay
p1184
aV\U0001f389
aV\u270a
aV\U0001f3fd
aVhttps://t.co/mui9wrjxpz
p1185
asg15
g16
(S'\x07\xe0\x01\x10\x03\x02\x1c\x00\x00\x00'
tRp1186
sg18
Nsa(dp1187
g3
(lp1188
V@officialjguzman
p1189
aV@ciscobruuhhh
p1190
aVnah
p1191
aVi
aVcan't
p1192
asg15
g16
(S'\x07\xe0\x01\x0f\x17\r,\x00\x00\x00'
tRp1193
sg18
Nsa(dp1194
g3
(lp1195
V@m_davidson123
p1196
aV@wshhfans
p1197
aV\U0001f602
aV\U0001f602
aV\U0001f602
aV\U0001f602
aV\U0001f602
aV\U0001f602
aV\U0001f602
aV\U0001f602
aV\U0001f602
asg15
g16
(S'\x07\xe0\x01\x0f\x17\x0c1\x00\x00\x00'
tRp1198
sg18
Nsa(dp1199
g3
(lp1200
Veric
p1201
aVreid
p1202
aVis
p1203
aVat
p1204
aVthe
p1205
aVcv
p1206
aV24
p1207
aV#49ers
p1208
asg15
g16
(S'\x07\xe0\x01\x0f\x14)0\x00\x00\x00'
tRp1209
sg18
Nsa(dp1210
g3
(lp1211
V@meechemarie
p1212
aVi
aValready
p1213
aVtook
p1214
aVsome
p1215
aVlol
p1216
aVit
p1217
aVjust
p1218
aVdoesn't
p1219
aVwork
p1220
asg15
g16
(S'\x07\xe0\x01\x0f\x089\x1d\x00\x00\x00'
tRp1221
sg18
Nsa(dp1222
g3
(lp1223
V@meechemarie
p1224
aVjoin
p1225
aVthe
p1226
aVclub
p1227
asg15
g16
(S'\x07\xe0\x01\x0f\x084\x1a\x00\x00\x00'
tRp1228
sg18
Nsa(dp1229
g3
(lp1230
Vtwitter
p1231
aVis
p1232
aVnot
p1233
aVpoppin
p1234
aVtonight
p1235
aV.
aVwhere's
p1236
aVmy
p1237
aVboy
p1238
aVcisco
p1239
aVbruuhhh
p1240
aVat
p1241
aV?
asg15
g16
(S'\x07\xe0\x01\x0f\x08+\x04\x00\x00\x00'
tRp1242
sg18
Nsa(dp1243
g3
(lp1244
Vwhen
p1245
aVthe
p1246
aVin-n-out
p1247
aVis
p1248
aVtoo
p1249
aVgood
p1250
aVhttps://t.co/zbjmsbbb0d
p1251
asg15
g16
(S'\x07\xe0\x01\x0f\x074+\x00\x00\x00'
tRp1252
sg18
Nsa(dp1253
g3
(lp1254
Vmichael
p1255
aVb
aV.
aVjordan
p1256
aVfor
p1257
aVsure
p1258
aVbruh
p1259
aV\U0001f4aa
aV\U0001f3fd
aVhttps://t.co/iqzfdfxipk
p1260
asg15
g16
(S'\x07\xe0\x01\x0f\x07.2\x00\x00\x00'
tRp1261
sg18
Nsa(dp1262
g3
(lp1263
Vmy
p1264
aVright
p1265
aVhand
p1266
aVfasho
p1267
aV.
aVbeen
p1268
aVby
p1269
aVme
p1270
aVthrough
p1271
aVit
p1272
aVall
p1273
aV\u270a
aV\U0001f3fd
aVmy
p1274
aVbrother
p1275
aV#conwaytriplet
p1276
aVhttps://t.co/fqixgo6rnc
p1277
asg15
g16
(S'\x07\xe0\x01\x0f\x07.\x16\x00\x00\x00'
tRp1278
sg18
Nsa(dp1279
g3
(lp1280
Vrt
p1281
aV@ciscobruuhhh
p1282
aV:
aVgood
p1283
aVass
p1284
aVwork
p1285
aVout
p1286
aV:
aV\u2705
aVgood
p1287
aVass
p1288
aVdinner
p1289
aV:
aV\u2705
aVgood
p1290
aVass
p1291
aVsleep
p1292
aV:
aVguaranteed
p1293
aV\U0001f634
asg15
g16
(S'\x07\xe0\x01\x0f\x07\x16:\x00\x00\x00'
tRp1294
sg18
Nsa(dp1295
g3
(lp1296
Vmy
p1297
aVdad
p1298
aVsent
p1299
aVmy
p1300
aVmom
p1301
aVam
p1302
aVthe
p1303
aVanchor
p1304
aVemoji
p1305
aVearlier
p1306
aVtoday
p1307
aVand
p1308
aVshe
p1309
aVjust
p1310
aVasked
p1311
aVwhy
p1312
aVand
p1313
aVhe
p1314
aVsaid
p1315
aV"
aVidk
p1316
aVit
p1317
aVlooks
p1318
aVcool
p1319
aV"
aV.
aVclassic
p1320
aVpapa
p1321
aVconway
p1322
aV\U0001f602
asg15
g16
(S'\x07\xe0\x01\x0f\x04 \x1b\x00\x00\x00'
tRp1323
sg18
Nsa(dp1324
g3
(lp1325
Vhaven't
p1326
aVworked
p1327
aVthat
p1328
aVhard
p1329
aVin
p1330
aVa
aVminute
p1331
aV.
aVsolid
p1332
aVworkout
p1333
aVwith
p1334
aVthe
p1335
aVhomie
p1336
aV@ciscobruuhhh
p1337
aV\U0001f4aa
aV\U0001f3fd
aV\U0001f608
aV\u270a
aV\U0001f3fd
aV\U0001f4b8
asg15
g16
(S'\x07\xe0\x01\x0f\x04\r9\x00\x00\x00'
tRp1338
sg18
Nsa(dp1339
g3
(lp1340
Vnothing
p1341
aVcan
p1342
aVstop
p1343
aVme
p1344
aVy'all
p1345
aV.
aVmark
p1346
aVmy
p1347
aVwords
p1348
aV,
aVi'm
p1349
aVgonna
p1350
aVmake
p1351
aVit
p1352
aV.
asg15
g16
(S'\x07\xe0\x01\x0f\x01\x00$\x00\x00\x00'
tRp1353
sg18
Nsa(dp1354
g3
(lp1355
Vthe
p1356
aVpain
p1357
aVi'll
p1358
aVput
p1359
aVmyself
p1360
aVthrough
p1361
aVto
p1362
aVbe
p1363
aVthe
p1364
aVbest
p1365
aVis
p1366
aVnothing
p1367
aVcompared
p1368
aVto
p1369
aVwhat
p1370
aVi've
p1371
aValready
p1372
aVbeen
p1373
aVthrough
p1374
aV.
asg15
g16
(S'\x07\xe0\x01\x0f\x01\x00\x0c\x00\x00\x00'
tRp1375
sg18
Nsa(dp1376
g3
(lp1377
Vfootball
p1378
aValmost
p1379
aVkilled
p1380
aVme
p1381
aV,
aVbut
p1382
aVit
p1383
aVdidn't
p1384
aV.
aValready
p1385
aVbeen
p1386
aVthrough
p1387
aVthe
p1388
aVmost
p1389
aVpain
p1390
aVa
aVperson
p1391
aVcan
p1392
aVgo
p1393
aVthrough
p1394
aV.
asg15
g16
(S"\x07\xe0\x01\x0f\x00;'\x00\x00\x00"
tRp1395
sg18
Nsa(dp1396
g3
(lp1397
Vyou
p1398
aVget
p1399
aVput
p1400
aVthrough
p1401
aVtests
p1402
aVyour
p1403
aVwhole
p1404
aVlife
p1405
aV.
aVyou
p1406
aVjust
p1407
aVgotta
p1408
aVrespond
p1409
aVaccordingly
p1410
aVto
p1411
aVget
p1412
aVthe
p1413
aVresult
p1414
aVyou
p1415
aVwant
p1416
aV.
asg15
g16
(S'\x07\xe0\x01\x0f\x00:\x1a\x00\x00\x00'
tRp1417
sg18
Nsa(dp1418
g3
(lp1419
Vi
aVwas
p1420
aVtold
p1421
aVi
aVcouldn't
p1422
aVplay
p1423
aVfootball
p1424
aVand
p1425
aVit
p1426
aVkilled
p1427
aVme
p1428
aV.
aVbut
p1429
aVi'm
p1430
aVgonna
p1431
aVplay
p1432
aV,
aVand
p1433
aVi'll
p1434
aVdo
p1435
aVwhatever
p1436
aVit
p1437
aVtakes
p1438
aVto
p1439
aVbe
p1440
aVthe
p1441
aVbest
p1442
aV.
asg15
g16
(S'\x07\xe0\x01\x0f\x009;\x00\x00\x00'
tRp1443
sg18
Nsa(dp1444
g3
(lp1445
Vjust
p1446
aVgotta
p1447
aVgo
p1448
aVto
p1449
aVthe
p1450
aVgreatest
p1451
aVlengths
p1452
aVto
p1453
aVmake
p1454
aVit
p1455
aVhappen
p1456
asg15
g16
(S'\x07\xe0\x01\x0f\x009\x13\x00\x00\x00'
tRp1457
sg18
Nsa(dp1458
g3
(lp1459
Vwhen
p1460
aVi
aVhear
p1461
aVsomeone
p1462
aVbe
p1463
aVtold
p1464
aVthey
p1465
aVcan't
p1466
aVdo
p1467
aVsomething
p1468
aVi
aVcan't
p1469
aVhelp
p1470
aVbut
p1471
aVget
p1472
aVmad
p1473
aV.
aVyou
p1474
aVcan
p1475
aVdo
p1476
aVwhatever
p1477
aVyou
p1478
aVwant
p1479
aV.
asg15
g16
(S'\x07\xe0\x01\x0f\x009\x05\x00\x00\x00'
tRp1480
sg18
Nsa(dp1481
g3
(lp1482
Valways
p1483
aVremember
p1484
aVwho
p1485
aVstuck
p1486
aVby
p1487
aVyour
p1488
aVside
p1489
aVthrough
p1490
aVit
p1491
aVall
p1492
asg15
g16
(S'\x07\xe0\x01\x0f\x00&4\x00\x00\x00'
tRp1493
sg18
Nsa(dp1494
g3
(lp1495
Vif
p1496
aVyou
p1497
aVwanna
p1498
aVbe
p1499
aVgreat
p1500
aV,
aVyou
p1501
aVgotta
p1502
aVbe
p1503
aVobsessed
p1504
aV\U0001f3c8
aV\U0001f4aa
aV\U0001f3fd
asg15
g16
(S'\x07\xe0\x01\x0e\x17*:\x00\x00\x00'
tRp1505
sg18
Nsa(dp1506
g3
(lp1507
Vthunder
p1508
aVis
p1509
aVboomin
p1510
aVin
p1511
aVcv
p1512
aV\U0001f329
asg15
g16
(S'\x07\xe0\x01\x0e\x17!\x12\x00\x00\x00'
tRp1513
sg18
Nsa(dp1514
g3
(lp1515
V@keith_anthony21
p1516
aVyessir
p1517
aV.
aVgotta
p1518
aVshow
p1519
aVthem
p1520
aVwhat
p1521
aVwe
p1522
aVcan
p1523
aVdo
p1524
aV#laneymob
p1525
asg15
g16
(S'\x07\xe0\x01\x0e\x17\x1e\x12\x00\x00\x00'
tRp1526
sg18
Nsa(dp1527
g3
(lp1528
V@keith_anthony21
p1529
aVi
aVfly
p1530
aVout
p1531
aVthe
p1532
aV24
p1533
aVth
p1534
aVand
p1535
aVstart
p1536
aVschool
p1537
aVthe
p1538
aV26
p1539
aVth
p1540
asg15
g16
(S'\x07\xe0\x01\x0e\x17\x1d\x13\x00\x00\x00'
tRp1541
sg18
Nsa(dp1542
g3
(lp1543
Vbe
p1544
aVready
p1545
aVto
p1546
aVgrind
p1547
asg15
g16
(S'\x07\xe0\x01\x0e\x17\x0b\x0c\x00\x00\x00'
tRp1548
sg18
Nsa(dp1549
g3
(lp1550
Vanyone
p1551
aVwanna
p1552
aVget
p1553
aVsome
p1554
aVcardio
p1555
aVand
p1556
aVab
p1557
aVwork
p1558
aVin
p1559
aVat
p1560
aVcv
p1561
aV24
p1562
aV?
aVi'll
p1563
aVbe
p1564
aVthere
p1565
aVin
p1566
aV20
p1567
aV\U0001f4aa
aV\U0001f3fd
aV\U0001f608
asg15
g16
(S'\x07\xe0\x01\x0e\x17\x0b\x04\x00\x00\x00'
tRp1568
sg18
Nsa(dp1569
g3
(lp1570
Vrt
p1571
aV@funnydudemarcus
p1572
aV:
aVhayward
p1573
aVplunge
p1574
aVbay
p1575
aVarea
p1576
aV,
aVca
p1577
aV\U0001f60d
aV\U0001f64c
aV\U0001f3fe
aVhttps://t.co/j98t1mnzvn
p1578
asg15
g16
(S'\x07\xe0\x01\x0e\x17\n\x10\x00\x00\x00'
tRp1579
sg18
Nsa(dp1580
g3
(lp1581
Vamen
p1582
aVto
p1583
aVthat
p1584
aVellen
p1585
aVhttps://t.co/lycevqpw9c
p1586
asg15
g16
(S'\x07\xe0\x01\x0e\x16\x062\x00\x00\x00'
tRp1587
sg18
Nsa(dp1588
g3
(lp1589
V@ciscobruuhhh
p1590
aV@aleconway8
p1591
aV@usasevensrugby
p1592
aVi'm
p1593
aVgonna
p1594
aVtry
p1595
aVit
p1596
aVtoday
p1597
asg15
g16
(S'\x07\xe0\x01\x0e\x14.\x1f\x00\x00\x00'
tRp1598
sg18
Nsa(dp1599
g3
(lp1600
Vrt
p1601
aV@nflrt
p1602
aV:
aVchip
p1603
aVkelly
p1604
aVwill
p1605
aVhave
p1606
aV@kaepernick7
p1607
aVplaying
p1608
aVlike
p1609
aVit's
p1610
aV2012
p1611
aVhttps://t.co/9ns2zhg2d0
p1612
asg15
g16
(S'\x07\xe0\x01\x0e\x14\x08\x1b\x00\x00\x00'
tRp1613
sg18
Nsa(dp1614
g3
(lp1615
Vi
aVthink
p1616
aVchip
p1617
aVwill
p1618
aVdo
p1619
aVgood
p1620
aVwith
p1621
aVthe
p1622
aVniners
p1623
asg15
g16
(S'\x07\xe0\x01\x0e\x14\x08\x16\x00\x00\x00'
tRp1624
sg18
Nsa(dp1625
g3
(lp1626
V@m_davidson123
p1627
aVwhaaaaat
p1628
aV.
aVso
p1629
aVruthless
p1630
asg15
g16
(S'\x07\xe0\x01\x0e\x0e(\x1a\x00\x00\x00'
tRp1631
sg18
Nsa(dp1632
g3
(lp1633
Vout
p1634
aVto
p1635
aVtahoe
p1636
aVin
p1637
aVthe
p1638
aVmorning
p1639
aV\u270c
aV\U0001f3fd
aV\ufe0f
asg15
g16
(S'\x07\xe0\x01\x0e\x08\x19(\x00\x00\x00'
tRp1640
sg18
Nsa(dp1641
g3
(lp1642
Vi
aVused
p1643
aVto
p1644
aVeat
p1645
aVso
p1646
aVmuch
p1647
aVcereal
p1648
aV,
aVbut
p1649
aVnow
p1650
aVthe
p1651
aVtaste
p1652
aVjust
p1653
aVgets
p1654
aVold
p1655
aVtoo
p1656
aVfast
p1657
asg15
g16
(S'\x07\xe0\x01\x0e\x08\x0f2\x00\x00\x00'
tRp1658
sg18
Nsa(dp1659
g3
(lp1660
V@jackbox
p1661
aVdeliver
p1662
aVme
p1663
aVa
aVmunchie
p1664
aVmeal
p1665
aVplease
p1666
asg15
g16
(S'\x07\xe0\x01\x0e\x08\t\x10\x00\x00\x00'
tRp1667
sg18
Nsa(dp1668
g3
(lp1669
V@ciscobruuhhh
p1670
aVyou
p1671
aVright
p1672
aV.
aV.
aV.
aVi
aVgotta
p1673
aVstop
p1674
aVcattin
p1675
aVand
p1676
aVfall
p1677
aVasleep
p1678
aV.
aVwe
p1679
aVgonna
p1680
aVbe
p1681
aVslumped
p1682
aVtomorrow
p1683
aVlol
p1684
asg15
g16
(S'\x07\xe0\x01\x0e\x08\x05\x1f\x00\x00\x00'
tRp1685
sg18
Nsa(dp1686
g3
(lp1687
V@ciscobruuhhh
p1688
aVbut
p1689
aVi'm
p1690
aVdown
p1691
aVif
p1692
aVyou
p1693
aVare
p1694
aV.
aV.
aV.
aV.
aV.
aV\U0001f633
asg15
g16
(S'\x07\xe0\x01\x0e\x08\x037\x00\x00\x00'
tRp1695
sg18
Nsa(dp1696
g3
(lp1697
V@ciscobruuhhh
p1698
aV\U0001f602
aV\U0001f602
aV\U0001f602
aV\U0001f602
aVthe
p1699
aV2000
p1700
aVcalorie
p1701
aVmunchie
p1702
aVmeal
p1703
aVwill
p1704
aVbe
p1705
aVthe
p1706
aVend
p1707
aVof
p1708
aVour
p1709
aVgains
p1710
asg15
g16
(S'\x07\xe0\x01\x0e\x08\x02.\x00\x00\x00'
tRp1711
sg18
Nsa(dp1712
g3
(lp1713
V@ciscobruuhhh
p1714
aVyou
p1715
aVdon't
p1716
aVknow
p1717
aVhow
p1718
aVbad
p1719
aVi
aVwant
p1720
aVa
aVmunchie
p1721
aVmeal
p1722
aVright
p1723
aVnow
p1724
aV.
aV.
aV.
aV.
aV.
asg15
g16
(S'\x07\xe0\x01\x0e\x08\x00.\x00\x00\x00'
tRp1725
sg18
Nsa(dp1726
g3
(lp1727
Vleaving
p1728
aVfor
p1729
aVtahoe
p1730
aVin
p1731
aV7
aVhours
p1732
aVand
p1733
aVi
aVgot
p1734
aVnothing
p1735
aVpacked
p1736
aV.
aV.
aV.
aV.
aVwhoops
p1737
aV.
aV.
aV.
asg15
g16
(S'\x07\xe0\x01\x0e\x07;(\x00\x00\x00'
tRp1738
sg18
Nsa(dp1739
g3
(lp1740
Vlate
p1741
aVnight
p1742
aVstarving
p1743
asg15
g16
(S'\x07\xe0\x01\x0e\x07:-\x00\x00\x00'
tRp1744
sg18
Nsa(dp1745
g3
(lp1746
Vrt
p1747
aV@rated_r_ray
p1748
aV:
aV\U0001f60d
aV\U0001f60d
aV\U0001f60d
aV\U0001f60d
aVhttps://t.co/38rgmgffig
p1749
asg15
g16
(S'\x07\xe0\x01\x0e\x07.6\x00\x00\x00'
tRp1750
sg18
Nsa(dp1751
g3
(lp1752
Vrt
p1753
aV@ciscobruuhhh
p1754
aV:
aVbc
p1755
aVi'm
p1756
aValways
p1757
aVdumbass
p1758
aVhot
p1759
asg15
g16
(S'\x07\xe0\x01\x0e\x07)1\x00\x00\x00'
tRp1760
sg18
Nsa(dp1761
g3
(lp1762
V@ciscobruuhhh
p1763
aVgot
p1764
aVhigh
p1765
aVstandards
p1766
aVon
p1767
aVthere
p1768
aV.
aVbut
p1769
aVi
aVdo
p1770
aVmess
p1771
aVup
p1772
aVevery
p1773
aVnow
p1774
aVand
p1775
aVagain
p1776
aV.
aVkills
p1777
aVme
p1778
aVa
aVlittle
p1779
aVevery
p1780
aVtime
p1781
asg15
g16
(S'\x07\xe0\x01\x0e\x07#*\x00\x00\x00'
tRp1782
sg18
Nsa(dp1783
g3
(lp1784
V@nildwesnild
p1785
aVso
p1786
aVright
p1787
aV\U0001f602
asg15
g16
(S'\x07\xe0\x01\x0e\x07\x1a\x16\x00\x00\x00'
tRp1788
sg18
Nsa(dp1789
g3
(lp1790
V@nildwesnild
p1791
aV\U0001f602
aV\U0001f602
aV\U0001f602
aV\U0001f602
aV\U0001f602
aVreally
p1792
aVroastin
p1793
aVcisco
p1794
aVthough
p1795
aVlol
p1796
asg15
g16
(S'\x07\xe0\x01\x0e\x07\x15\x16\x00\x00\x00'
tRp1797
sg18
Nsa(dp1798
g3
(lp1799
Vrt
p1800
aV@mr_drinksonme
p1801
aV:
aVif
p1802
aVi
aVwon
p1803
aV$
aV1,300,000,000,
p1804
aVi'd
p1805
aVgive
p1806
aVa
aVquarter
p1807
aVof
p1808
aVit
p1809
aVto
p1810
aVcharity
p1811
aV.
aVnot
p1812
aVsure
p1813
aVwhat
p1814
aVi'd
p1815
aVdo
p1816
aVwith
p1817
aVthe
p1818
aVother
p1819
aV$
aV1,299,999,999.75
p1820
aVthou
p1821
aV\u2026
asg15
g16
(S'\x07\xe0\x01\x0e\x07\x11\x0f\x00\x00\x00'
tRp1822
sg18
Nsa(dp1823
g3
(lp1824
V@meechemarie
p1825
aVliterally
p1826
aVthe
p1827
aVworst
p1828
asg15
g16
(S'\x07\xe0\x01\x0e\x07\x11\x05\x00\x00\x00'
tRp1829
sg18
Nsa(dp1830
g3
(lp1831
V@meechemarie
p1832
aVcuz
p1833
aVyou
p1834
aVstill
p1835
aVhaven't
p1836
aVpassed
p1837
aVthe
p1838
aV"
aVreply
p1839
aVto
p1840
aVtexts
p1841
aV"
aVlevel
p1842
aV.
aV#worsttexterever
p1843
asg15
g16
(S'\x07\xe0\x01\x0e\x07\x0b\x13\x00\x00\x00'
tRp1844
sg18
Nsa(dp1845
g3
(lp1846
V@ciscobruuhhh
p1847
aVgains
p1848
aVlogic
p1849
aVbruh
p1850
aV.
aVit's
p1851
aVwhat
p1852
aVi
aVlive
p1853
aVby
p1854
aVtbh
p1855
aV\U0001f602
aVit's
p1856
aVhow
p1857
aVi
aVconvince
p1858
aVmyself
p1859
aVin-n-out
p1860
aVeveryday
p1861
aVis
p1862
aVokay
p1863
aV\U0001f4aa
aV\U0001f3fd
aV\U0001f602
aV\U0001f602
aV\U0001f602
asg15
g16
(S'\x07\xe0\x01\x0e\x07\x03!\x00\x00\x00'
tRp1864
sg18
Nsa(dp1865
g3
(lp1866
V@ciscobruuhhh
p1867
aV@asiapaz_becker
p1868
aVgood
p1869
aVthing
p1870
aVwe
p1871
aVran
p1872
aVto
p1873
aVthe
p1874
aVgym
p1875
aVbruh
p1876
aVhahaha
p1877
asg15
g16
(S"\x07\xe0\x01\x0e\x07\x00'\x00\x00\x00"
tRp1878
sg18
Nsa(dp1879
g3
(lp1880
Vrt
p1881
aV@officialjguzman
p1882
aV:
aV#stayonyourgrind2016
p1883
asg15
g16
(S'\x07\xe0\x01\x0e\x062\x1a\x00\x00\x00'
tRp1884
sg18
Nsa(dp1885
g3
(lp1886
V@briittyoung
p1887
aVare
p1888
aVyou
p1889
aVfeeling
p1890
aVokay
p1891
aV.
aV.
aV.
aV?
asg15
g16
(S'\x07\xe0\x01\x0e\x06-\x16\x00\x00\x00'
tRp1892
sg18
Nsa(dp1893
g3
(lp1894
V@briittyoung
p1895
aVwhat
p1896
aVare
p1897
aVyou
p1898
aVtalking
p1899
aVabout
p1900
aV.
aV.
aV.
aV?
asg15
g16
(S'\x07\xe0\x01\x0e\x06,1\x00\x00\x00'
tRp1901
sg18
Nsa(dp1902
g3
(lp1903
Vwhen
p1904
aVi
aVget
p1905
aVbored
p1906
aV,
aVi
aVtweet
p1907
aV.
aVsomeone
p1908
aVentertain
p1909
aVme
p1910
aVand
p1911
aVend
p1912
aVthis
p1913
aVmadness
p1914
asg15
g16
(S'\x07\xe0\x01\x0e\x06&\x0c\x00\x00\x00'
tRp1915
sg18
Nsa(dp1916
g3
(lp1917
V@officialjguzman
p1918
aV\U0001f60f
aV\U0001f60f
aV\U0001f60f
aV\u270a
aV\U0001f3fd
aVmy
p1919
aVboy
p1920
asg15
g16
(S'\x07\xe0\x01\x0e\x06$2\x00\x00\x00'
tRp1921
sg18
Nsa(dp1922
g3
(lp1923
Vcertified
p1924
aVdime
p1925
aVpiece
p1926
asg15
g16
(S'\x07\xe0\x01\x0e\x06#\x14\x00\x00\x00'
tRp1927
sg18
Nsa(dp1928
g3
(lp1929
Vrt
p1930
aV@kukoc_jr
p1931
aV:
aVrealist
p1932
aVfirst
p1933
aVverse
p1934
aVin
p1935
aVrap
p1936
aVhistory
p1937
aVhttps://t.co/y3ll8kcn8i
p1938
asg15
g16
(S"\x07\xe0\x01\x0e\x06!'\x00\x00\x00"
tRp1939
sg18
Nsa(dp1940
g3
(lp1941
Vrt
p1942
aV@reallifekaz
p1943
aV:
aVwhen
p1944
aVyou
p1945
aVdon't
p1946
aVhit
p1947
aVthe
p1948
aVpowerball
p1949
aV,
aVbut
p1950
aVwendy's
p1951
aVstill
p1952
aVgot
p1953
aVthat
p1954
aV4
aVfor
p1955
aV$
aV4
aVhttps://t.co/rhrjynvq13
p1956
asg15
g16
(S'\x07\xe0\x01\x0e\x06\x19\x13\x00\x00\x00'
tRp1957
sg18
Nsa(dp1958
g3
(lp1959
Vto
p1960
aVslide
p1961
aVinto
p1962
aV#oomfs
p1963
aVdms
p1964
aV,
aVor
p1965
aVnot
p1966
aV.
aV.
aV.
aV\U0001f914
asg15
g16
(S'\x07\xe0\x01\x0e\x06\x18.\x00\x00\x00'
tRp1967
sg18
Nsa(dp1968
g3
(lp1969
Vrt
p1970
aV@ciscobruuhhh
p1971
aV:
aVi'm
p1972
aVhella
p1973
aVbored
p1974
aV.
aVlike
p1975
aVfr
p1976
aVjust
p1977
aVhella
p1978
aVbored
p1979
asg15
g16
(S'\x07\xe0\x01\x0e\x06\x15\n\x00\x00\x00'
tRp1980
sg18
Nsa(dp1981
g3
(lp1982
Vwish
p1983
aVwe
p1984
aVcould
p1985
aVturn
p1986
aVback
p1987
aVtime
p1988
aV,
aVto
p1989
aVthe
p1990
aVgood
p1991
aVold
p1992
aVdayyyys
p1993
asg15
g16
(S'\x07\xe0\x01\x0e\x05:!\x00\x00\x00'
tRp1994
sg18
Nsa(dp1995
g3
(lp1996
Vnetflix
p1997
aVhas
p1998
aVsuch
p1999
aVweird
p2000
aVmovies
p2001
aV.
aV.
aV.
asg15
g16
(S'\x07\xe0\x01\x0e\x05$-\x00\x00\x00'
tRp2002
sg18
Nsa(dp2003
g3
(lp2004
Vi
aVmust
p2005
aVbe
p2006
aVa
aVdog
p2007
aVguy
p2008
aV,
aVcuz
p2009
aVi
aVcan't
p2010
aVdeal
p2011
aVwith
p2012
aVyou
p2013
aVcats
p2014
aV\U0001f431
aV\u270c
aV\U0001f3fd
aV\ufe0f
asg15
g16
(S'\x07\xe0\x01\x0e\x0483\x00\x00\x00'
tRp2015
sg18
Nsa(dp2016
g3
(lp2017
V"
aVwhen
p2018
aVthe
p2019
aVnights
p2020
aVget
p2021
aVcold
p2022
aV,
aVi
aVcan
p2023
aVbe
p2024
aVthere
p2025
aVfor
p2026
aVyou
p2027
aVto
p2028
aVhold
p2029
aV"
aV\U0001f3a7
aV\U0001f3a7
asg15
g16
(S'\x07\xe0\x01\x0e\x0415\x00\x00\x00'
tRp2030
sg18
Nsa(dp2031
g3
(lp2032
V@meechemarie
p2033
aVjesus
p2034
aVchrist
p2035
aVbruh
p2036
aV.
aVblowing
p2037
aVme
p2038
aVup
p2039
aV\U0001f602
aV\U0001f602
aV\U0001f602
aV\U0001f602
aV\U0001f602
asg15
g16
(S'\x07\xe0\x01\x0e\x04)\x1f\x00\x00\x00'
tRp2040
sg18
Nsa(dp2041
g3
(lp2042
V@meechemarie
p2043
aV@dynamitethatguy
p2044
aVit's
p2045
aVall
p2046
aVgood
p2047
aV.
aVwe
p2048
aVdon't
p2049
aVmind
p2050
aV.
aVmaybe
p2051
aVstupid
p2052
aV,
aVbut
p2053
aVhotties
p2054
aV\U0001f60f
aV\U0001f60d
asg15
g16
(S'\x07\xe0\x01\x0e\x04"\x16\x00\x00\x00'
tRp2055
sg18
Nsa(dp2056
g3
(lp2057
Vrt
p2058
aV@aleconway8
p2059
aV:
aVlol
p2060
aVmaybe
p2061
aV3
aVx
aVthat
p2062
aVlong
p2063
aV?
aVcome
p2064
aVone
p2065
aVfacebook
p2066
aVwe
p2067
aVhave
p2068
aVthe
p2069
aVsame
p2070
aVbirthday
p2071
aVand
p2072
aVare
p2073
aV"
aVbrothers
p2074
aV"
aVon
p2075
aVyour
p2076
aVwebsite
p2077
aV.
aV.
aV.
aVhttps://t.co/b8kk
p2078
aV\u2026
asg15
g16
(S'\x07\xe0\x01\x0e\x04!"\x00\x00\x00'
tRp2079
sg18
Nsa(dp2080
g3
(lp2081
V@dynamitethatguy
p2082
aV@meechemarie
p2083
aVyes
p2084
aVbruh
p2085
aV.
aVwhatever
p2086
aVdynamite
p2087
aVsays
p2088
aVgoes
p2089
aV.
aVyou
p2090
aVgotta
p2091
aVstand
p2092
aVdown
p2093
aVmichelle
p2094
aV.
asg15
g16
(S'\x07\xe0\x01\x0e\x04\x1e#\x00\x00\x00'
tRp2095
sg18
Nsa(dp2096
g3
(lp2097
V@meechemarie
p2098
aV99
p2099
aV%
aVof
p2100
aVit
p2101
aVis
p2102
asg15
g16
(S'\x07\xe0\x01\x0e\x04\x1d#\x00\x00\x00'
tRp2103
sg18
Nsa(dp2104
g3
(lp2105
Vcountry
p2106
aVmusic
p2107
aVis
p2108
aVdepressing
p2109
aV.
aVbut
p2110
aVgood
p2111
aVif
p2112
aVyou're
p2113
aVsad
p2114
aVlol
p2115
asg15
g16
(S'\x07\xe0\x01\x0e\x04\x1c\x1c\x00\x00\x00'
tRp2116
sg18
Nsa(dp2117
g3
(lp2118
Vdang
p2119
aV,
aVwe
p2120
aVhave
p2121
aVbeen
p2122
aVfriends
p2123
aVfor
p2124
aV7
aVyears
p2125
aV.
aVtime
p2126
aVflies
p2127
aV.
aVlol
p2128
aV@aleconway8
p2129
aV#conwaytwins
p2130
aVhttps://t.co/lz057ptkzj
p2131
asg15
g16
(S'\x07\xe0\x01\x0e\x04\x1a\x17\x00\x00\x00'
tRp2132
sg18
Nsa(dp2133
g3
(lp2134
Vrt
p2135
aV@dynamitethatguy
p2136
aV:
aVreality
p2137
aVhits
p2138
aVyou
p2139
aVhttps://t.co/slpw9irzzf
p2140
asg15
g16
(S'\x07\xe0\x01\x0e\x04\x17\x0b\x00\x00\x00'
tRp2141
sg18
Nsa(dp2142
g3
(lp2143
V#conwaytwins
p2144
aVwon
p2145
aVthe
p2146
aVpowerball
p2147
aV\U0001f4b8
aV\U0001f4b8
aV\U0001f4b8
aV\U0001f4b8
aV\U0001f4b8
asg15
g16
(S'\x07\xe0\x01\x0e\x04\x08)\x00\x00\x00'
tRp2148
sg18
Nsa(dp2149
g3
(lp2150
V\U0001f602
aV\U0001f602
aV\U0001f602
aV\U0001f602
aV\U0001f602
aVthat
p2151
aVexplains
p2152
aVa
aVlot
p2153
aVfam
p2154
aVhttps://t.co/gcqeoml0kr
p2155
asg15
g16
(S'\x07\xe0\x01\x0e\x03\x00:\x00\x00\x00'
tRp2156
sg18
Nsa(dp2157
g3
(lp2158
V@ciscobruuhhh
p2159
aV@dj_twannn
p2160
aVyeah
p2161
aV.
aVlet's
p2162
aVrun
p2163
aVto
p2164
aVthe
p2165
aVgym
p2166
aV.
aVi'll
p2167
aVbe
p2168
aVat
p2169
aVyour
p2170
aVhouse
p2171
aVin
p2172
aV5
asg15
g16
(S'\x07\xe0\x01\r\x17,$\x00\x00\x00'
tRp2173
sg18
Nsa(dp2174
g3
(lp2175
V@ciscobruuhhh
p2176
aV@dj_twannn
p2177
aVcv
p2178
aVor
p2179
aVhayward
p2180
aV?
asg15
g16
(S'\x07\xe0\x01\r\x17*;\x00\x00\x00'
tRp2181
sg18
Nsa(dp2182
g3
(lp2183
Vbeing
p2184
aVtaught
p2185
aVhow
p2186
aVto
p2187
aVcolor
p2188
aVby
p2189
aVthe
p2190
aVlittle
p2191
aVcousin
p2192
aVhttps://t.co/nylw5bgost
p2193
asg15
g16
(S'\x07\xe0\x01\r\x16\x08\r\x00\x00\x00'
tRp2194
sg18
Nsa(dp2195
g3
(lp2196
Vrt
p2197
aV@mattyloyd
p2198
aV:
aVwhen
p2199
aVyou
p2200
aVget
p2201
aVfinger
p2202
aVhappy
p2203
aVand
p2204
aVdelete
p2205
aVthe
p2206
aVmusic
p2207
aVapp
p2208
aV\U0001f611
asg15
g16
(S'\x07\xe0\x01\r\x16\x00\x14\x00\x00\x00'
tRp2209
sg18
Nsa(dp2210
g3
(lp2211
Vrt
p2212
aV@sneakerpics23
p2213
aV:
aVrt
p2214
aVif
p2215
aVyou
p2216
aVwant
p2217
aVthis
p2218
aVcloset
p2219
aVhttps://t.co/jc1sgwxojr
p2220
asg15
g16
(S"\x07\xe0\x01\r\x15'%\x00\x00\x00"
tRp2221
sg18
Nsa(dp2222
g3
(lp2223
Vrt
p2224
aV@causewereguys
p2225
aV:
aVlmao
p2226
aVhttps://t.co/6c7gtnurcy
p2227
asg15
g16
(S'\x07\xe0\x01\r\x15\x16:\x00\x00\x00'
tRp2228
sg18
Nsa(dp2229
g3
(lp2230
V@sierra_lynn5
p2231
aVmatt
p2232
aVwas
p2233
aVdope
p2234
aV,
aVbut
p2235
aVtim
p2236
aVis
p2237
aVmy
p2238
aVidol
p2239
aVlol
p2240
asg15
g16
(S'\x07\xe0\x01\r\t\x02)\x00\x00\x00'
tRp2241
sg18
Nsa(dp2242
g3
(lp2243
V@sierra_lynn5
p2244
aVi
aVwish
p2245
aVdillon
p2246
aVwas
p2247
aVa
aVreal
p2248
aVplace
p2249
aVlol
p2250
aVi
aVwould
p2251
aVbe
p2252
aVthere
p2253
aVright
p2254
aVnow
p2255
aV.
aVbut
p2256
aVthat's
p2257
aVfor
p2258
aVsure
p2259
aVlife
p2260
aVgoals
p2261
asg15
g16
(S'\x07\xe0\x01\r\x08;\t\x00\x00\x00'
tRp2262
sg18
Nsa(dp2263
g3
(lp2264
V@sierra_lynn5
p2265
aVcan't
p2266
aVlose
p2267
aV!
aV\U0001f64f
aV\U0001f3fd
aVbest
p2268
aVshow
p2269
aVever
p2270
asg15
g16
(S'\x07\xe0\x01\r\x0827\x00\x00\x00'
tRp2271
sg18
Nsa(dp2272
g3
(lp2273
V@nakita_lealao
p2274
aVyessir
p2275
aV!
aVyou
p2276
aVtoo
p2277
aVbro
p2278
aV\u270a
aV\U0001f3fd
asg15
g16
(S'\x07\xe0\x01\r\x08\x1e+\x00\x00\x00'
tRp2279
sg18
Nsa(dp2280
g3
(lp2281
V@nakita_lealao
p2282
aVnah
p2283
aVi
aVhave
p2284
aVno
p2285
aVeligibility
p2286
aVthere
p2287
aV.
aVi'm
p2288
aVgoing
p2289
aVto
p2290
aVtabor
p2291
aVcollege
p2292
aVin
p2293
aVkansas
p2294
aV\u2708
aV\ufe0f
asg15
g16
(S'\x07\xe0\x01\r\x08\x1d\x00\x00\x00\x00'
tRp2295
sg18
Nsa(dp2296
g3
(lp2297
Vabout
p2298
aVa
aVmonth
p2299
aVout
p2300
aV.
aV.
aV.
aV.
aV#nobae
p2301
aVhttps://t.co/fvejqqpkrl
p2302
asg15
g16
(S'\x07\xe0\x01\r\x08\x173\x00\x00\x00'
tRp2303
sg18
Nsa(dp2304
g3
(lp2305
Vno
p2306
aVone
p2307
aVi've
p2308
aVrecommended
p2309
aVit
p2310
aVto
p2311
aVhas
p2312
aVbeen
p2313
aVdisappointed
p2314
aV.
aVtrust
p2315
aVme
p2316
aVy'all
p2317
aV.
asg15
g16
(S'\x07\xe0\x01\r\x08\x0c\x14\x00\x00\x00'
tRp2318
sg18
Nsa(dp2319
g3
(lp2320
Vif
p2321
aVyou've
p2322
aVnever
p2323
aVwatched
p2324
aVfriday
p2325
aVnight
p2326
aVlights
p2327
aV,
aVwatch
p2328
aVit
p2329
aVasap
p2330
aV.
asg15
g16
(S'\x07\xe0\x01\r\x08\x0b7\x00\x00\x00'
tRp2331
sg18
Nsa(dp2332
g3
(lp2333
Vrt
p2334
aV@imyunggoidie
p2335
aV:
aVsnoop
p2336
aVnarrating
p2337
aVplanet
p2338
aVearth
p2339
aVis
p2340
aVone
p2341
aVof
p2342
aVthe
p2343
aVmost
p2344
aViconic
p2345
aVthings
p2346
aVof
p2347
aV2016
p2348
aVthis
p2349
aVfar
p2350
aVhttps://t.co/dxhm0jencs
p2351
asg15
g16
(S'\x07\xe0\x01\r\x08\x0b\x1a\x00\x00\x00'
tRp2352
sg18
Nsa(dp2353
g3
(lp2354
V@nakita_lealao
p2355
aVi
aVleave
p2356
aVhere
p2357
aVthe
p2358
aV24
p2359
aVth
p2360
asg15
g16
(S'\x07\xe0\x01\r\x08\x08/\x00\x00\x00'
tRp2361
sg18
Nsa(dp2362
g3
(lp2363
Vour
p2364
aVapologies
p2365
aV,
aVno
p2366
aV#conwaytwins
p2367
aVpics
p2368
aVhave
p2369
aVbeen
p2370
aVposted
p2371
aVlately
p2372
aV.
aVdon't
p2373
aVworry
p2374
aV,
aVsome
p2375
aVwill
p2376
aVbe
p2377
aVcoming
p2378
aVbefore
p2379
aVthe
p2380
aVseparation
p2381
aV.
asg15
g16
(S'\x07\xe0\x01\r\x08\x06\x0e\x00\x00\x00'
tRp2382
sg18
Nsa(dp2383
g3
(lp2384
V@barrowbeasy
p2385
aV@aleconway8
p2386
aVlike
p2387
aV15
p2388
aVyears
p2389
aVstrong
p2390
aV\U0001f602
aV\U0001f602
aV\U0001f602
asg15
g16
(S'\x07\xe0\x01\r\x08\x05\x05\x00\x00\x00'
tRp2391
sg18
Nsa(dp2392
g3
(lp2393
Vi
aVmiss
p2394
aVfootball
p2395
aVso
p2396
aVmuch
p2397
asg15
g16
(S'\x07\xe0\x01\r\x08\x02\x18\x00\x00\x00'
tRp2398
sg18
Nsa(dp2399
g3
(lp2400
Vso
p2401
aVexcited
p2402
aVto
p2403
aVget
p2404
aVback
p2405
aVon
p2406
aVthe
p2407
aVfield
p2408
aV\U0001f60d
aVspring
p2409
aVball
p2410
aVis
p2411
aVgonna
p2412
aVmake
p2413
aVme
p2414
aVso
p2415
aVhappy
p2416
aV\U0001f64f
aV\U0001f3fd
asg15
g16
(S'\x07\xe0\x01\r\x08\x017\x00\x00\x00'
tRp2417
sg18
Nsa(dp2418
g3
(lp2419
V@aleconway8
p2420
aVhow's
p2421
aVthat
p2422
aVhaterade
p2423
aVyou're
p2424
aVsippin
p2425
aVon
p2426
aV?
asg15
g16
(S'\x07\xe0\x01\r\x0774\x00\x00\x00'
tRp2427
sg18
Nsa(dp2428
g3
(lp2429
Vit's
p2430
aVcoming
p2431
aValong
p2432
aV.
aVwait
p2433
aVtill
p2434
aVseason
p2435
aVhttps://t.co/vbi8qymxdi
p2436
asg15
g16
(S'\x07\xe0\x01\r\x075!\x00\x00\x00'
tRp2437
sg18
Nsa(dp2438
g3
(lp2439
V#33
p2440
aVgonna
p2441
aVkill
p2442
aVthe
p2443
aVgame
p2444
aV\U0001f608
aV\U0001f3c8
aV\U0001f4aa
aV\U0001f3fd
aV#timriggins
p2445
asg15
g16
(S'\x07\xe0\x01\r\x073\x0e\x00\x00\x00'
tRp2446
sg18
Nsa(dp2447
g3
(lp2448
Vmy
p2449
aVschool
p2450
aVis
p2451
aVgold
p2452
aVand
p2453
aVblue
p2454
aV.
aVjust
p2455
aVlike
p2456
aVthe
p2457
aVdillon
p2458
aVpanthers
p2459
aV.
aVayyyyye
p2460
aVlol
p2461
asg15
g16
(S'\x07\xe0\x01\r\x072%\x00\x00\x00'
tRp2462
sg18
Nsa(dp2463
g3
(lp2464
Vmillion
p2465
aVdollar
p2466
aVidea
p2467
aV.
aVlet's
p2468
aVmake
p2469
aVit
p2470
aVhappen
p2471
aVbrother
p2472
aV.
aVhttps://t.co/dnn0td6zpb
p2473
asg15
g16
(S'\x07\xe0\x01\r\x07\x0e1\x00\x00\x00'
tRp2474
sg18
Nsa.