(lp1
(dp2
S'text'
p3
(lp4
Vgotta
p5
aVturn
p6
aVmy
p7
aVphone
p8
aVoff
p9
aVwhen
p10
aVi'm
p11
aVlike
p12
aVthis
p13
aVbruh
p14
aV.
aV.
aV.
aV.
aV.
aV\U0001f62b
aV\U0001f602
aV\U0001f602
aV\U0001f602
asS'created_at'
p15
cdatetime
datetime
p16
(S'\x07\xe0\x01\x18\t,\x14\x00\x00\x00'
tRp17
sS'lat/long'
p18
NsS'name'
p19
VAustinC3
p20
sa(dp21
g3
(lp22
Vman
p23
aVy'all
p24
aVare
p25
aVreally
p26
aVgonna
p27
aVbe
p28
aVsad
p29
aVwith
p30
aVno
p31
aV#conwaytwins
p32
aVthe
p33
aVnext
p34
aV4
aVmonths
p35
aV.
aV.
aV.
aV.
aVjust
p36
aVgotta
p37
aVdeal
p38
aVwith
p39
aVthrowbacks
p40
aVi
aVguess
p41
aV.
asg15
g16
(S'\x07\xe0\x01\x18\t# \x00\x00\x00'
tRp42
sg18
Nsg19
VAustinC3
p43
sa(dp44
g3
(lp45
Vrt
p46
aV@bg_nodaysoff
p47
aV:
aVthanks
p48
aVaustin
p49
aV!
aVand
p50
aVi
aVgotchu
p51
aVbig
p52
aVbro
p53
aV!
aVdo
p54
aVyour
p55
aVthing
p56
aVout
p57
aVin
p58
aVkansas
p59
aV!
aVnever
p60
aVmet
p61
aVa
aVdude
p62
aVwho
p63
aVloves
p64
aVfootball
p65
aVlike
p66
aVyou
p67
aVboy
p68
aV.
aVhttps
p69
aV\u2026
asg15
g16
(S'\x07\xe0\x01\x18\t\x06*\x00\x00\x00'
tRp70
sg18
Nsg19
VAustinC3
p71
sa(dp72
g3
(lp73
V@bg_nodaysoff
p74
aVhappy
p75
aVbirthday
p76
aVbig
p77
aVdog
p78
aV\u270a
aV\U0001f3fd
aVhave
p79
aVa
aVgood
p80
aVone
p81
aV.
aVkeep
p82
aVballin
p83
aVbrother
p84
aV,
aVdo
p85
aVit
p86
aVfor
p87
aVthe
p88
aVl
aV\U0001f3c8
asg15
g16
(S'\x07\xe0\x01\x18\x086:\x00\x00\x00'
tRp89
sg18
Nsg19
VAustinC3
p90
sa(dp91
g3
(lp92
V@julezpereira
p93
aVlookin
p94
aVreal
p95
aVconfused
p96
aV\U0001f602
aVwhy
p97
aVdid
p98
aVyou
p99
aVkeep
p100
aVthese
p101
aV?
aV!
aV\U0001f62b
asg15
g16
(S'\x07\xe0\x01\x18\x085$\x00\x00\x00'
tRp102
sg18
Nsg19
VAustinC3
p103
sa(dp104
g3
(lp105
V@julezpereira
p106
aVohhhh
p107
aVyou
p108
aVright
p109
aV.
aVi
aVremember
p110
aVnow
p111
aVlol
p112
aVgood
p113
aVtimes
p114
aVbruh
p115
asg15
g16
(S'\x07\xe0\x01\x18\x082\x06\x00\x00\x00'
tRp116
sg18
Nsg19
VAustinC3
p117
sa(dp118
g3
(lp119
V@julezpereira
p120
aVthank
p121
aVyou
p122
aVfam
p123
aV\u270a
aV\U0001f3fd
aVwhere
p124
aVis
p125
aVthat
p126
aVsecond
p127
aVpic
p128
aVfrom
p129
aV?
aV\U0001f602
aVand
p130
aVwhy
p131
aVwas
p132
aVi
aVso
p133
aVyolked
p134
aVin
p135
aVthe
p136
aVlast
p137
aVone
p138
aV.
aV.
aV\U0001f60f
aV\U0001f4aa
aV\U0001f3fd
asg15
g16
(S'\x07\xe0\x01\x18\x080\x1d\x00\x00\x00'
tRp139
sg18
Nsg19
VAustinC3
p140
sa(dp141
g3
(lp142
Vrt
p143
aV@julezpereira
p144
aV:
aVi'm
p145
aVgonna
p146
aVmiss
p147
aVyou
p148
aVlike
p149
aVcrazy
p150
aVfam
p151
aV!
aVdo
p152
aVsome
p153
aVgreat
p154
aVthings
p155
aVin
p156
aVkansas
p157
aVi'm
p158
aVso
p159
aVproud
p160
aVof
p161
aVya
p162
aV\u2764
aV\ufe0f
aV\U0001f3c8
aV@austinc3
p163
aVhttps://t.co/hwlajhganc
p164
asg15
g16
(S'\x07\xe0\x01\x18\x08/.\x00\x00\x00'
tRp165
sg18
Nsg19
VAustinC3
p166
sa(dp167
g3
(lp168
Vrt
p169
aV@aleconway8
p170
aV:
aVgot
p171
aVa
aVpocket
p172
aVfull
p173
aVof
p174
aVmoney
p175
aV.
aV.
aV.
aV@austinc3
p176
aVhttps://t.co/rcyg8gguyf
p177
asg15
g16
(S'\x07\xe0\x01\x18\x08\x1f\x01\x00\x00\x00'
tRp178
sg18
Nsg19
VAustinC3
p179
sa(dp180
g3
(lp181
V@ciscobruuhhh
p182
aVi
aVlove
p183
aVyou
p184
aVtoo
p185
aVbruh
p186
aV.
aVi'm
p187
aVgonna
p188
aVsee
p189
aVyou
p190
aVsoon
p191
aV\u2764
aV\ufe0f
aV\u270a
aV\U0001f3fd
asg15
g16
(S'\x07\xe0\x01\x18\x08\x0f\x01\x00\x00\x00'
tRp192
sg18
Nsg19
VAustinC3
p193
sa(dp194
g3
(lp195
Vrt
p196
aV@ciscobruuhhh
p197
aV:
aVi
aVlove
p198
aVyou
p199
aVman
p200
aV.
aVit's
p201
aVnot
p202
aVa
aVgoodbye
p203
aVthough
p204
aVjust
p205
aVa
aVsee
p206
aVyou
p207
aVsoon
p208
aVbrother
p209
aV\U0001f608
aV\U0001f60e
aVput
p210
aVin
p211
aVwork
p212
aVout
p213
aVthere
p214
aV\U0001f3c8
aVhttps://t.co/9bupvdnpzm
p215
asg15
g16
(S'\x07\xe0\x01\x18\x08\x0e+\x00\x00\x00'
tRp216
sg18
Nsg19
VAustinC3
p217
sa(dp218
g3
(lp219
V@heyy_taytay
p220
aV\U0001f602
aVi
aVgot
p221
aVit
p222
aVfor
p223
aVfree
p224
aV!
asg15
g16
(S'\x07\xe0\x01\x18\x06\x01\x03\x00\x00\x00'
tRp225
sg18
Nsg19
VAustinC3
p226
sa(dp227
g3
(lp228
V#conwaytwins
p229
aVlast
p230
aVnight
p231
aVtogether
p232
aV.
aVyou
p233
aVknow
p234
aVit'll
p235
aVbe
p236
aVlegendary
p237
aV\U0001f608
aV\U0001f64c
aV\U0001f3fd
aVhttps://t.co/i85nlo7c9f
p238
asg15
g16
(S'\x07\xe0\x01\x18\x05"%\x00\x00\x00'
tRp239
sg18
Nsg19
VAustinC3
p240
sa(dp241
g3
(lp242
Vrt
p243
aV@6vibe
p244
aV:
aV"
aVhey
p245
aVwhatever
p246
aVhappened
p247
aVto
p248
aVyou
p249
aVand
p250
aV-
aV"
aVhttps://t.co/r7aib99sz6
p251
asg15
g16
(S'\x07\xe0\x01\x18\x05"\x00\x00\x00\x00'
tRp252
sg18
Nsg19
VAustinC3
p253
sa(dp254
g3
(lp255
Vi
aVlove
p256
aVmy
p257
aVfamily
p258
aV\u270a
aV\U0001f3fd
aV\u2764
aV\ufe0f
asg15
g16
(S'\x07\xe0\x01\x18\x03\x1a\x05\x00\x00\x00'
tRp259
sg18
Nsg19
VAustinC3
p260
sa(dp261
g3
(lp262
Vrt
p263
aV@worldstarvlne
p264
aV:
aVso
p265
aVshorty
p266
aVjust
p267
aVnot
p268
aVgonna
p269
aVwipe
p270
aVher
p271
aVnose
p272
aV?
aVhttps://t.co/99ljshrz5q
p273
asg15
g16
(S'\x07\xe0\x01\x18\x03\x186\x00\x00\x00'
tRp274
sg18
Nsg19
VAustinC3
p275
sa(dp276
g3
(lp277
Vsaying
p278
aVbye
p279
aVto
p280
aVthe
p281
aVones
p282
aVthat
p283
aVhave
p284
aVbeen
p285
aVwith
p286
aVme
p287
aVfor
p288
aVthe
p289
aVlast
p290
aV6
aVmonths
p291
aVis
p292
aVreal
p293
aVtough
p294
aV.
aVbeen
p295
aVthrough
p296
aVa
aVlot
p297
aV.
aVyou
p298
aVknow
p299
aVwho
p300
aVyou
p301
aVare
p302
aV.
asg15
g16
(S'\x07\xe0\x01\x18\x03\x18\x1b\x00\x00\x00'
tRp303
sg18
Nsg19
VAustinC3
p304
sa(dp305
g3
(lp306
Vrt
p307
aV@aleconway8
p308
aV:
aVwe're
p309
aVdown
p310
aVto
p311
aVone
p312
aVmore
p313
aVday
p314
aV.
aVhttps://t.co/l3hrcbz9sy
p315
asg15
g16
(S'\x07\xe0\x01\x18\x02 5\x00\x00\x00'
tRp316
sg18
Nsg19
VAustinC3
p317
sa(dp318
g3
(lp319
Vlast
p320
aVday
p321
aVin
p322
aVthe
p323
aVbay
p324
aV\u2708
aV\ufe0f
asg15
g16
(S'\x07\xe0\x01\x17\x13\x08\x0c\x00\x00\x00'
tRp325
sg18
Nsg19
VAustinC3
p326
sa(dp327
g3
(lp328
V@meechemarie
p329
aVyou
p330
aVgot
p331
aVa
aVhome
p332
aVdawg
p333
aV\u270a
aV\U0001f3fd
asg15
g16
(S'\x07\xe0\x01\x17\t5\x03\x00\x00\x00'
tRp334
sg18
Nsg19
VAustinC3
p335
sa(dp336
g3
(lp337
V@dandoeee36
p338
aVthat's
p339
aVwhat
p340
aVi'm
p341
aVtalking
p342
aVabout
p343
aV\U0001f60d
asg15
g16
(S'\x07\xe0\x01\x17\t4-\x00\x00\x00'
tRp344
sg18
Nsg19
VAustinC3
p345
sa(dp346
g3
(lp347
V@dandoeee36
p348
aVnah
p349
aVyou
p350
aVgotta
p351
aVbe
p352
aVthere
p353
aVbruh
p354
aV.
aVit's
p355
aVmy
p356
aVlast
p357
aVnight
p358
aV.
aVgotta
p359
aVat
p360
aVleast
p361
aVslide
p362
aVfor
p363
aVa
aVminute
p364
asg15
g16
(S'\x07\xe0\x01\x17\t3-\x00\x00\x00'
tRp365
sg18
Nsg19
VAustinC3
p366
sa(dp367
g3
(lp368
V@dandoeee36
p369
aVtrue
p370
aVthat
p371
aV.
aVi'm
p372
aVgonna
p373
aVsee
p374
aVyou
p375
aVtomorrow
p376
aV?
asg15
g16
(S'\x07\xe0\x01\x17\t\x02+\x00\x00\x00'
tRp377
sg18
Nsg19
VAustinC3
p378
sa(dp379
g3
(lp380
Vall
p381
aVkinds
p382
aVof
p383
aVhaters
p384
aVout
p385
aVthere
p386
aV\U0001f602
asg15
g16
(S'\x07\xe0\x01\x17\x08;8\x00\x00\x00'
tRp387
sg18
Nsg19
VAustinC3
p388
sa(dp389
g3
(lp390
Vevery
p391
aVtime
p392
aVi
aVhear
p393
aVcountry
p394
aVmusic
p395
aVi
aVthink
p396
aVof
p397
aVyou
p398
aV.
aV.
aV.
aV.
aVthat's
p399
aVnot
p400
aVcool
p401
aV.
aVlol
p402
asg15
g16
(S'\x07\xe0\x01\x17\x08)\x1a\x00\x00\x00'
tRp403
sg18
Nsg19
VAustinC3
p404
sa(dp405
g3
(lp406
V@m_davidson123
p407
aVoh
p408
aVdope
p409
asg15
g16
(S'\x07\xe0\x01\x17\x08#.\x00\x00\x00'
tRp410
sg18
Nsg19
VAustinC3
p411
sa(dp412
g3
(lp413
Vturned
p414
aVinto
p415
aVa
aVchill
p416
aVnight
p417
aVwith
p418
aVthe
p419
aVyung
p420
aVthugs
p421
asg15
g16
(S"\x07\xe0\x01\x17\x08\x12'\x00\x00\x00"
tRp422
sg18
Nsg19
VAustinC3
p423
sa(dp424
g3
(lp425
V\U0001f36a
aVhere's
p426
aVa
aVcookie
p427
aVhttps://t.co/vcwguyg97x
p428
asg15
g16
(S'\x07\xe0\x01\x17\x07\x1d\x0b\x00\x00\x00'
tRp429
sg18
Nsg19
VAustinC3
p430
sa(dp431
g3
(lp432
Vi'm
p433
aVsaving
p434
aVmyself
p435
aVtill
p436
aVmarriage
p437
aVtbh
p438
asg15
g16
(S'\x07\xe0\x01\x17\x07\x17\x15\x00\x00\x00'
tRp439
sg18
Nsg19
VAustinC3
p440
sa(dp441
g3
(lp442
Vwhat
p443
aVhappened
p444
aV.
aV.
aV.
aV.
aV?
aVhttps://t.co/p9by3disl4
p445
asg15
g16
(S'\x07\xe0\x01\x17\x04\x05\x1c\x00\x00\x00'
tRp446
sg18
Nsg19
VAustinC3
p447
sa(dp448
g3
(lp449
V@ciscobruuhhh
p450
aVand
p451
aVit's
p452
aVa
aVgreat
p453
aVsource
p454
aVof
p455
aVprotein
p456
asg15
g16
(S'\x07\xe0\x01\x17\x03%3\x00\x00\x00'
tRp457
sg18
Nsg19
VAustinC3
p458
sa(dp459
g3
(lp460
Vi
aVfeel
p461
aVthat
p462
aVmunchie
p463
aVmeal
p464
aVclogging
p465
aVmy
p466
aVarteries
p467
aVbruh
p468
aV.
aV.
aV.
asg15
g16
(S'\x07\xe0\x01\x16\x08\x1f\x1b\x00\x00\x00'
tRp469
sg18
Nsg19
VAustinC3
p470
sa(dp471
g3
(lp472
V"
aVaustin
p473
aV"
aVby
p474
aVblake
p475
aVshelton
p476
aVis
p477
aVfasho
p478
aVabout
p479
aVme
p480
aV\U0001f602
aV\u270a
aV\U0001f3fd
asg15
g16
(S'\x07\xe0\x01\x16\x08\x176\x00\x00\x00'
tRp481
sg18
Nsg19
VAustinC3
p482
sa(dp483
g3
(lp484
V@julezpereira
p485
aV@bosssvids
p486
aV\U0001f602
aV\U0001f602
aV\U0001f602
aV\U0001f602
aVyou
p487
aVgot
p488
aVme
p489
aVrollin
p490
aVfam
p491
asg15
g16
(S"\x07\xe0\x01\x16\x06\x15'\x00\x00\x00"
tRp492
sg18
Nsg19
VAustinC3
p493
sa(dp494
g3
(lp495
V@backman_reece
p496
aVi'm
p497
aVgonna
p498
aVmiss
p499
aVyou
p500
aVtoo
p501
aVman
p502
aV\u270a
aV\U0001f3fd
aV\u2764
aV\ufe0f
asg15
g16
(S'\x07\xe0\x01\x16\x03\n,\x00\x00\x00'
tRp503
sg18
Nsg19
VAustinC3
p504
sa(dp505
g3
(lp506
V@ikelliegold
p507
aVoff
p508
aVto
p509
aVkansas
p510
aVfor
p511
aVschool
p512
asg15
g16
(S'\x07\xe0\x01\x16\x03\n\x1d\x00\x00\x00'
tRp513
sg18
Nsg19
VAustinC3
p514
sa(dp515
g3
(lp516
V"
aVi
aVhope
p517
aVthat
p518
aVi
aVcan
p519
aVturn
p520
aVback
p521
aVthe
p522
aVtime
p523
aVto
p524
aVmake
p525
aVit
p526
aValright
p527
aVfor
p528
aVus
p529
aV"
aV\U0001f3a7
asg15
g16
(S'\x07\xe0\x01\x16\x03\n\x0e\x00\x00\x00'
tRp530
sg18
Nsg19
VAustinC3
p531
sa(dp532
g3
(lp533
Vreally
p534
aVleaving
p535
aVin
p536
aV3
aVdays
p537
aVbruh
p538
aV.
aV3
aVdays
p539
aV.
asg15
g16
(S'\x07\xe0\x01\x16\x01#0\x00\x00\x00'
tRp540
sg18
Nsg19
VAustinC3
p541
sa(dp542
g3
(lp543
Vrt
p544
aV@ilikevinesdaily
p545
aV:
aVkendall
p546
aVjenner
p547
aV\U0001f60d
aV\U0001f618
aVhttps://t.co/szxlmmi56n
p548
asg15
g16
(S'\x07\xe0\x01\x16\x01  \x00\x00\x00'
tRp549
sg18
Nsg19
VAustinC3
p550
sa(dp551
g3
(lp552
Vrt
p553
aV@ilikeassdaily
p554
aV:
aV\U0001f60d
aV\U0001f60d
aV\U0001f60d
aVhttps://t.co/cyq34szjes
p555
asg15
g16
(S'\x07\xe0\x01\x15\x17$0\x00\x00\x00'
tRp556
sg18
Nsg19
VAustinC3
p557
sa(dp558
g3
(lp559
Vrt
p560
aV@manstagram_
p561
aV:
aVrelationship
p562
aVstatus
p563
aV:
aVhttps://t.co/xhjxj2bebj
p564
asg15
g16
(S"\x07\xe0\x01\x15\x16'\t\x00\x00\x00"
tRp565
sg18
Nsg19
VAustinC3
p566
sa(dp567
g3
(lp568
V#conwaytwins
p569
aVblessing
p570
aVyour
p571
aVtl
p572
aVhttps://t.co/ej9cbkezey
p573
asg15
g16
(S'\x07\xe0\x01\x15\x06\x06\x17\x00\x00\x00'
tRp574
sg18
Nsg19
VAustinC3
p575
sa(dp576
g3
(lp577
V@m_davidson123
p578
aVschmitty
p579
aVwarbermanjensen
p580
aV?
asg15
g16
(S'\x07\xe0\x01\x15\x047)\x00\x00\x00'
tRp581
sg18
Nsg19
VAustinC3
p582
sa(dp583
g3
(lp584
Vrt
p585
aV@woridstarhiph0p
p586
aV:
aVchildren
p587
aVwere
p588
aVasked
p589
aVto
p590
aVwrite
p591
aVdown
p592
aVtheir
p593
aVown
p594
aVjokes
p595
aVhttps://t.co/xp6hspffwg
p596
asg15
g16
(S'\x07\xe0\x01\x15\x03 !\x00\x00\x00'
tRp597
sg18
Nsg19
VAustinC3
p598
sa(dp599
g3
(lp600
Vrt
p601
aV@ciscobruuhhh
p602
aV:
aV@austinc3
p603
aV@aleconway8
p604
aV\U0001f62d
aV\U0001f602
aV\U0001f62d
aV\U0001f602
aV\U0001f62d
aV\U0001f602
aVhttps://t.co/uoglyvun07
p605
asg15
g16
(S'\x07\xe0\x01\x15\x02.!\x00\x00\x00'
tRp606
sg18
Nsg19
VAustinC3
p607
sa(dp608
g3
(lp609
Vthis
p610
aVcough
p611
aVis
p612
aVkilling
p613
aVme
p614
asg15
g16
(S'\x07\xe0\x01\x14\x08*\x19\x00\x00\x00'
tRp615
sg18
Nsg19
VAustinC3
p616
sa(dp617
g3
(lp618
V4
aVdays
p619
aVand
p620
aVi'm
p621
aVout
p622
aVthis
p623
aVthang
p624
aV\u2708
aV\ufe0f
aV\U0001f3c8
asg15
g16
(S'\x07\xe0\x01\x14\x08\x108\x00\x00\x00'
tRp625
sg18
Nsg19
VAustinC3
p626
sa(dp627
g3
(lp628
Vwe're
p629
aVjust
p630
aVfriends
p631
aV?
aVwhat
p632
aVare
p633
aVyou
p634
aVsayin
p635
asg15
g16
(S'\x07\xe0\x01\x14\x07:\n\x00\x00\x00'
tRp636
sg18
Nsg19
VAustinC3
p637
sa(dp638
g3
(lp639
Vrt
p640
aV@farrar3790
p641
aV:
aVhttps://t.co/l9hxs2d2k9
p642
asg15
g16
(S"\x07\xe0\x01\x14\x04*'\x00\x00\x00"
tRp643
sg18
Nsg19
VAustinC3
p644
sa(dp645
g3
(lp646
Vbae
p647
aVhttps://t.co/utohvpanlj
p648
asg15
g16
(S'\x07\xe0\x01\x14\x04\x03(\x00\x00\x00'
tRp649
sg18
Nsg19
VAustinC3
p650
sa(dp651
g3
(lp652
Vrt
p653
aV@aleconway8
p654
aV:
aVthe
p655
aVoriginal
p656
aVtwins
p657
aVof
p658
aVthe
p659
aVfamily
p660
aV.
aVreally
p661
aVwish
p662
aVwe
p663
aVcould
p664
aVhave
p665
aVcelebrated
p666
aVyour
p667
aV80
p668
aVth
p669
aVbirthday
p670
aVtoday
p671
aV.
aV.
aVwe
p672
aVmiss
p673
aVyou
p674
aV\U0001f64f
aV\U0001f3fd
aVhttps://t.c
p675
aV\u2026
asg15
g16
(S'\x07\xe0\x01\x14\x02#\n\x00\x00\x00'
tRp676
sg18
Nsg19
VAustinC3
p677
sa(dp678
g3
(lp679
Vrt
p680
aV@complex_sports
p681
aV:
aVantwaan
p682
aVrandle-el
p683
aV,
aVsuffering
p684
aVmentally
p685
aVand
p686
aVphysically
p687
aV,
aVwishes
p688
aVhe
p689
aVnever
p690
aVplayed
p691
aVfootball
p692
aV.
aVhttps://t.co/jdbf80p0fm
p693
aVhttps
p694
aV:/
p695
aV/
aV\u2026
asg15
g16
(S'\x07\xe0\x01\x13\x153"\x00\x00\x00'
tRp696
sg18
Nsg19
VAustinC3
p697
sa(dp698
g3
(lp699
V@dandoeee36
p700
aVi
aVwish
p701
aVthe
p702
aVold
p703
aVone
p704
aV\U0001f62b
aVso
p705
aVmany
p706
aVgood
p707
aVtimes
p708
aVlol
p709
asg15
g16
(S'\x07\xe0\x01\x13\t\x1d#\x00\x00\x00'
tRp710
sg18
Nsg19
VAustinC3
p711
sa(dp712
g3
(lp713
V@dandoeee36
p714
aVnah
p715
aVog
p716
aVtrap
p717
aVhouse
p718
asg15
g16
(S'\x07\xe0\x01\x13\t\x1c&\x00\x00\x00'
tRp719
sg18
Nsg19
VAustinC3
p720
sa(dp721
g3
(lp722
V@dandoeee36
p723
aVparty
p724
aVbruh
p725
aV.
aVslide
p726
asg15
g16
(S'\x07\xe0\x01\x13\t\x196\x00\x00\x00'
tRp727
sg18
Nsg19
VAustinC3
p728
sa(dp729
g3
(lp730
Vrt
p731
aV@shanew253
p732
aV:
aVjuco
p733
aVball
p734
aVwill
p735
aVtest
p736
aVwhether
p737
aVyou
p738
aVlove
p739
aVfootball
p740
aVor
p741
aVwhether
p742
aVyou
p743
aVthink
p744
aVyou
p745
aVlove
p746
aVfootball
p747
asg15
g16
(S'\x07\xe0\x01\x13\t\x12\x10\x00\x00\x00'
tRp748
sg18
Nsg19
VAustinC3
p749
sa(dp750
g3
(lp751
Vreal
p752
aVjuiced
p753
aVfor
p754
aVkansas
p755
asg15
g16
(S'\x07\xe0\x01\x13\x052\x14\x00\x00\x00'
tRp756
sg18
Nsg19
VAustinC3
p757
sa(dp758
g3
(lp759
Vrt
p760
aV@lifecheates
p761
aV:
aVdon't
p762
aVtalk
p763
aV,
aVact
p764
aV.
aVdon't
p765
aVsay
p766
aV,
aVshow
p767
aV.
aVdon't
p768
aVpromise
p769
aV,
aVprove
p770
aV.
asg15
g16
(S'\x07\xe0\x01\x13\x051\x15\x00\x00\x00'
tRp771
sg18
Nsg19
VAustinC3
p772
sa(dp773
g3
(lp774
Vrt
p775
aV@khalifw05
p776
aV:
aV\U0001f602
aV\U0001f602
aV\U0001f602
aV\U0001f602
aV\U0001f602
aV\U0001f602
aV\U0001f602
aVrt
p777
aV@athletehaven
p778
aV:
aVkareem
p779
aVabdul-jabbar
p780
aVthe
p781
aVrealest
p782
aV\U0001f602
aV\U0001f4af
aVhttps://t.co/f7gkug8jve
p783
asg15
g16
(S'\x07\xe0\x01\x13\x05(\x17\x00\x00\x00'
tRp784
sg18
Nsg19
VAustinC3
p785
sa(dp786
g3
(lp787
Vforreal
p788
aVbruh
p789
aV.
aVdon't
p790
aVwaste
p791
aVmy
p792
aVtime
p793
aVhttps://t.co/qa3p77oisc
p794
asg15
g16
(S'\x07\xe0\x01\x13\x05&\x15\x00\x00\x00'
tRp795
sg18
Nsg19
VAustinC3
p796
sa(dp797
g3
(lp798
Vrt
p799
aV@sportscenter
p800
aV:
aVanother
p801
aV1
aV:
aVno
p802
aV.
aV19
p803
aViowa
p804
aVstate
p805
aVtakes
p806
aVdown
p807
aVno
p808
aV.
aV1
aVoklahoma
p809
aVat
p810
aVhome
p811
aV,
aV82
p812
aV-
aV77
p813
aV.
aVhttps://t.co/cvak2czvxd
p814
asg15
g16
(S'\x07\xe0\x01\x13\x04\x1e\x1b\x00\x00\x00'
tRp815
sg18
Nsg19
VAustinC3
p816
sa(dp817
g3
(lp818
Vrt
p819
aV@causewereguys
p820
aV:
aVbest
p821
aVthing
p822
aVi've
p823
aVseen
p824
aVall
p825
aVday
p826
aVhttps://t.co/arfy1827zf
p827
asg15
g16
(S"\x07\xe0\x01\x13\x02('\x00\x00\x00"
tRp828
sg18
Nsg19
VAustinC3
p829
sa(dp830
g3
(lp831
Vthe
p832
aVwarriors
p833
aVkeep
p834
aVrunning
p835
aVthe
p836
aVsame
p837
aVthing
p838
aVand
p839
aVscore
p840
aVevery
p841
aVtime
p842
aV\U0001f602
asg15
g16
(S'\x07\xe0\x01\x13\x02%*\x00\x00\x00'
tRp843
sg18
Nsg19
VAustinC3
p844
sa(dp845
g3
(lp846
Vrt
p847
aV@aleconway8
p848
aV:
aValways
p849
aVa
aVgood
p850
aVtime
p851
aVwith
p852
aVyou
p853
aV\U0001f60a
aVhttps://t.co/ahxae33p6u
p854
asg15
g16
(S'\x07\xe0\x01\x13\x02\x130\x00\x00\x00'
tRp855
sg18
Nsg19
VAustinC3
p856
sa(dp857
g3
(lp858
Vrt
p859
aV@lifecheates
p860
aV:
aVif
p861
aVi
aVget
p862
aVjealous
p863
aVthen
p864
aVyes
p865
aV,
aVi
aVreally
p866
aVlike
p867
aVyou
p868
aV.
asg15
g16
(S"\x07\xe0\x01\x13\x02\x12'\x00\x00\x00"
tRp869
sg18
Nsg19
VAustinC3
p870
sa(dp871
g3
(lp872
V6
aVdays
p873
aVtill
p874
aVtake
p875
aVoff
p876
aV\u2708
aV\ufe0f
aV#kansasbound
p877
asg15
g16
(S'\x07\xe0\x01\x12\x14\x10\x0f\x00\x00\x00'
tRp878
sg18
Nsg19
VAustinC3
p879
sa(dp880
g3
(lp881
Vrt
p882
aV@bestcomedyvine
p883
aV:
aVevery
p884
aVsuccessful
p885
aVperson
p886
aVmust
p887
aVdo
p888
aVthis
p889
aV.
aVhttps://t.co/fexfqfwe1o
p890
asg15
g16
(S'\x07\xe0\x01\x12\x13\x07\x00\x00\x00\x00'
tRp891
sg18
Nsg19
VAustinC3
p892
sa(dp893
g3
(lp894
Vit's
p895
aVreally
p896
aVbeen
p897
aVpouring
p898
aVfor
p899
aVhours
p900
asg15
g16
(S'\x07\xe0\x01\x12\t!\x10\x00\x00\x00'
tRp901
sg18
Nsg19
VAustinC3
p902
sa(dp903
g3
(lp904
Vrt
p905
aV@kingryin
p906
aV:
aVwhen
p907
aVshe
p908
aVfinally
p909
aVaccepts
p910
aVyou
p911
aVfor
p912
aVwho
p913
aVyou
p914
aVare
p915
aVhttps://t.co/ftuiwxwzu2
p916
asg15
g16
(S'\x07\xe0\x01\x12\x07\x0c,\x00\x00\x00'
tRp917
sg18
Nsg19
VAustinC3
p918
sa(dp919
g3
(lp920
Vfresh
p921
aVcut
p922
aVboi
p923
aVhttps://t.co/sd9rhkvihs
p924
asg15
g16
(S'\x07\xe0\x01\x12\x06\x14\x11\x00\x00\x00'
tRp925
sg18
Nsg19
VAustinC3
p926
sa(dp927
g3
(lp928
Vdoes
p929
aVit
p930
aVmake
p931
aVyou
p932
aVcool
p933
aVif
p934
aVyour
p935
aVphone
p936
aVautomatically
p937
aVconnects
p938
aVto
p939
aVtargets
p940
aVwifi
p941
aV?
asg15
g16
(S'\x07\xe0\x01\x12\x06\x12:\x00\x00\x00'
tRp942
sg18
Nsg19
VAustinC3
p943
sa(dp944
g3
(lp945
Vrt
p946
aV@joeyypohiv
p947
aV:
aVliving
p948
aVin
p949
aVthe
p950
aVstruggle
p951
aVis
p952
aVone
p953
aVof
p954
aVthe
p955
aVreasons
p956
aVwhy
p957
aVim
p958
aVthe
p959
aVman
p960
aVi
aVam
p961
aVtoday
p962
aV.
aVbeautiful
p963
aVexperience
p964
aVhonestly
p965
aV.
asg15
g16
(S'\x07\xe0\x01\x12\x06\x089\x00\x00\x00'
tRp966
sg18
Nsg19
VAustinC3
p967
sa(dp968
g3
(lp969
Vthe
p970
aVmore
p971
aVi
aVhang
p972
aVout
p973
aVwith
p974
aVpeople
p975
aVfrom
p976
aVover
p977
aVthe
p978
aVhill
p979
aVthe
p980
aVmore
p981
aVi
aVrealize
p982
aVthat
p983
aVeveryone
p984
aVknows
p985
aVeveryone
p986
aV.
aVlol
p987
asg15
g16
(S'\x07\xe0\x01\x12\x05:7\x00\x00\x00'
tRp988
sg18
Nsg19
VAustinC3
p989
sa(dp990
g3
(lp991
Vrt
p992
aV@nessamluv
p993
aV:
aVwhen
p994
aVyour
p995
aVplan
p996
aVfor
p997
aVthe
p998
aVnight
p999
aVis
p1000
aVto
p1001
aVgood
p1002
aVaround
p1003
aVin
p1004
aVtarget
p1005
aV\U0001f602
aV\U0001f602
aV\U0001f602
aV@austinc3
p1006
asg15
g16
(S'\x07\xe0\x01\x12\x05\x18\x18\x00\x00\x00'
tRp1007
sg18
Nsg19
VAustinC3
p1008
sa(dp1009
g3
(lp1010
Vi
aVbeen
p1011
aVgetting
p1012
aVdirty
p1013
aVmoney
p1014
aV,
aVjordan
p1015
aVbelfort
p1016
asg15
g16
(S'\x07\xe0\x01\x12\x02"#\x00\x00\x00'
tRp1017
sg18
Nsg19
VAustinC3
p1018
sa(dp1019
g3
(lp1020
Vrt
p1021
aV@goals4dudes
p1022
aV:
aVi
aVneed
p1023
aVone
p1024
aVin
p1025
aVmy
p1026
aVlife
p1027
aV\U0001f42f
aVhttps://t.co/exzrgmo7tm
p1028
asg15
g16
(S'\x07\xe0\x01\x12\x02\x04\x12\x00\x00\x00'
tRp1029
sg18
Nsg19
VAustinC3
p1030
sa(dp1031
g3
(lp1032
Vcountdown
p1033
aVto
p1034
aVdeparture
p1035
aV:
aV7
aVdays
p1036
aV\u2708
aV\ufe0f
asg15
g16
(S'\x07\xe0\x01\x11\x17\x14\x1b\x00\x00\x00'
tRp1037
sg18
Nsg19
VAustinC3
p1038
sa(dp1039
g3
(lp1040
Vrt
p1041
aV@notsportscenter
p1042
aV:
aVupdated
p1043
aVpeyton
p1044
aVmanning
p1045
aVmadden
p1046
aVratings
p1047
aV-
aVawareness
p1048
aV:
aV\u221e
aV-
aVthrow
p1049
aVpower
p1050
aV:
aVwounded
p1051
aVduck
p1052
aV-
aVspeed
p1053
aV:
aVone
p1054
aVleg
p1055
aVturtle
p1056
aV-
aVomaha
p1057
aVyelling
p1058
aV:
aV\u2026
asg15
g16
(S'\x07\xe0\x01\x11\x17\x12;\x00\x00\x00'
tRp1059
sg18
Nsg19
VAustinC3
p1060
sa(dp1061
g3
(lp1062
V@m_davidson123
p1063
aV\U0001f602
aV\U0001f602
aV\U0001f602
aV\u2764
aV\ufe0f
asg15
g16
(S'\x07\xe0\x01\x11\x15\x01\x15\x00\x00\x00'
tRp1064
sg18
Nsg19
VAustinC3
p1065
sa(dp1066
g3
(lp1067
Vrt
p1068
aV@m_davidson123
p1069
aV:
aV@austinc3
p1070
aVlove
p1071
aVme
p1072
aVhttps://t.co/jnbaypb4or
p1073
asg15
g16
(S'\x07\xe0\x01\x11\x15\x00\x04\x00\x00\x00'
tRp1074
sg18
Nsg19
VAustinC3
p1075
sa(dp1076
g3
(lp1077
Vseahawks
p1078
aVliterally
p1079
aVthe
p1080
aVluckiest
p1081
aVteam
p1082
aVout
p1083
aVbruh
p1084
aV\U0001f602
aV\U0001f602
aV\U0001f602
asg15
g16
(S'\x07\xe0\x01\x11\x14.:\x00\x00\x00'
tRp1085
sg18
Nsg19
VAustinC3
p1086
sa(dp1087
g3
(lp1088
Vthis
p1089
aVis
p1090
aVonly
p1091
aVabout
p1092
aVhalf
p1093
aVof
p1094
aVthe
p1095
aVpics
p1096
aV@m_davidson123
p1097
aVtook
p1098
aVon
p1099
aVmy
p1100
aVphone
p1101
aVlast
p1102
aVnight
p1103
aV.
aV.
aV.
aV.
aV\U0001f602
aVhttps://t.co/nblaiouks7
p1104
asg15
g16
(S'\x07\xe0\x01\x11\x14%\x1b\x00\x00\x00'
tRp1105
sg18
Nsg19
VAustinC3
p1106
sa(dp1107
g3
(lp1108
Vfeelin
p1109
aVreal
p1110
aVbad
p1111
aVtbh
p1112
asg15
g16
(S'\x07\xe0\x01\x11\x14\x11\x1d\x00\x00\x00'
tRp1113
sg18
Nsg19
VAustinC3
p1114
sa(dp1115
g3
(lp1116
Vpacking
p1117
aVthis
p1118
aVsuitcase
p1119
aVmaking
p1120
aVthe
p1121
aVmove
p1122
aVfeel
p1123
aVso
p1124
aVreal
p1125
aV\U0001f633
asg15
g16
(S'\x07\xe0\x01\x11\x14\x0b#\x00\x00\x00'
tRp1126
sg18
Nsg19
VAustinC3
p1127
sa(dp1128
g3
(lp1129
Vwhat
p1130
aVis
p1131
aVgoing
p1132
aVon
p1133
aVbruh
p1134
aV.
aV.
aV.
aV.
aV.
asg15
g16
(S'\x07\xe0\x01\x11\x14\x03\x12\x00\x00\x00'
tRp1135
sg18
Nsg19
VAustinC3
p1136
sa(dp1137
g3
(lp1138
Vrt
p1139
aV@sheswantsthed
p1140
aV:
aVlet's
p1141
aVnever
p1142
aVforget
p1143
aVthis
p1144
aVgirl's
p1145
aVthirst
p1146
aV\U0001f602
aV\U0001f602
aV\U0001f602
aVhttps://t.co/qgpoieezco
p1147
asg15
g16
(S'\x07\xe0\x01\x11\x132\x15\x00\x00\x00'
tRp1148
sg18
Nsg19
VAustinC3
p1149
sa(dp1150
g3
(lp1151
Vlast
p1152
aVnight
p1153
aVwith
p1154
aVthe
p1155
aVlaney
p1156
aVboyz
p1157
aV\U0001f3c8
aV\U0001f608
aVhttps://t.co/ewh7wvitc0
p1158
asg15
g16
(S'\x07\xe0\x01\x11\x13##\x00\x00\x00'
tRp1159
sg18
Nsg19
VAustinC3
p1160
sa(dp1161
g3
(lp1162
Vrt
p1163
aV@aleconway8
p1164
aV:
aV@panthers
p1165
aVstart
p1166
aVplaying
p1167
aVsome
p1168
aV@1future
p1169
aVto
p1170
aVstop
p1171
aVthis
p1172
aVdrive
p1173
aV#keeppounding
p1174
asg15
g16
(S'\x07\xe0\x01\x11\x13\x14\x01\x00\x00\x00'
tRp1175
sg18
Nsg19
VAustinC3
p1176
sa(dp1177
g3
(lp1178
Vlast
p1179
aVnight
p1180
aVwas
p1181
aVdope
p1182
asg15
g16
(S'\x07\xe0\x01\x11\x11\x11\x1b\x00\x00\x00'
tRp1183
sg18
Nsg19
VAustinC3
p1184
sa(dp1185
g3
(lp1186
V@briittyoung
p1187
aVno
p1188
aV,
aVyou're
p1189
aVwelcome
p1190
asg15
g16
(S'\x07\xe0\x01\x10\x14\r3\x00\x00\x00'
tRp1191
sg18
Nsg19
VAustinC3
p1192
sa(dp1193
g3
(lp1194
Vthat's
p1195
aVcisco
p1196
aVbruuhhh
p1197
aVfasho
p1198
aV\U0001f44c
aV\U0001f3fd
aV\U0001f602
asg15
g16
(S'\x07\xe0\x01\x10\x14\n\x06\x00\x00\x00'
tRp1199
sg18
Nsg19
VAustinC3
p1200
sa(dp1201
g3
(lp1202
Vyou
p1203
aVever
p1204
aVhave
p1205
aVthat
p1206
aVone
p1207
aVperson
p1208
aVyou
p1209
aVcan't
p1210
aVhelp
p1211
aVbut
p1212
aVsmile
p1213
aVat
p1214
aVtexts
p1215
aV.
aV.
aV?
aV\U0001f60f
aV\U0001f60c
asg15
g16
(S'\x07\xe0\x01\x10\x14\t5\x00\x00\x00'
tRp1216
sg18
Nsg19
VAustinC3
p1217
sa(dp1218
g3
(lp1219
Veverything
p1220
aVwill
p1221
aVbe
p1222
aVokay
p1223
aV-
aVg-eazy
p1224
aV\U0001f3a7
asg15
g16
(S"\x07\xe0\x01\x10\x14\x01'\x00\x00\x00"
tRp1225
sg18
Nsg19
VAustinC3
p1226
sa(dp1227
g3
(lp1228
V\U0001f602
aV\U0001f602
aV\U0001f602
aV\U0001f602
aV\U0001f602
aVhttps://t.co/u9woptehrd
p1229
asg15
g16
(S'\x07\xe0\x01\x10\x14\x007\x00\x00\x00'
tRp1230
sg18
Nsg19
VAustinC3
p1231
sa(dp1232
g3
(lp1233
Vrt
p1234
aV@lifecheates
p1235
aV:
aVlistening
p1236
aVto
p1237
aVmusic
p1238
aVat
p1239
aVhigh
p1240
aVvolumes
p1241
aVmakes
p1242
aVa
aVperson
p1243
aVcalmer
p1244
aV,
aVhappier
p1245
aVand
p1246
aVmore
p1247
aVrelaxed
p1248
aV.
asg15
g16
(S'\x07\xe0\x01\x10\x13/\x1d\x00\x00\x00'
tRp1249
sg18
Nsg19
VAustinC3
p1250
sa(dp1251
g3
(lp1252
V@meechemarie
p1253
aVokay
p1254
aV,
aVgoodnight
p1255
asg15
g16
(S'\x07\xe0\x01\x10\n\r\x1d\x00\x00\x00'
tRp1256
sg18
Nsg19
VAustinC3
p1257
sa(dp1258
g3
(lp1259
V@dandoeee36
p1260
aVme
p1261
asg15
g16
(S'\x07\xe0\x01\x10\t4:\x00\x00\x00'
tRp1262
sg18
Nsg19
VAustinC3
p1263
sa(dp1264
g3
(lp1265
Vhydro
p1266
aVplaning
p1267
aVall
p1268
aVover
p1269
aVthis
p1270
aVfreeway
p1271
asg15
g16
(S'\x07\xe0\x01\x10\t40\x00\x00\x00'
tRp1272
sg18
Nsg19
VAustinC3
p1273
sa(dp1274
g3
(lp1275
Vslumped
p1276
aVbruh
p1277
asg15
g16
(S'\x07\xe0\x01\x10\t%\x15\x00\x00\x00'
tRp1278
sg18
Nsg19
VAustinC3
p1279
sa(dp1280
g3
(lp1281
Vhappy
p1282
aVbirthday
p1283
aV@heyy_taytay
p1284
aV\U0001f389
aV\u270a
aV\U0001f3fd
aVhttps://t.co/mui9wrjxpz
p1285
asg15
g16
(S'\x07\xe0\x01\x10\x03\x02\x1c\x00\x00\x00'
tRp1286
sg18
Nsg19
VAustinC3
p1287
sa(dp1288
g3
(lp1289
V@officialjguzman
p1290
aV@ciscobruuhhh
p1291
aVnah
p1292
aVi
aVcan't
p1293
asg15
g16
(S'\x07\xe0\x01\x0f\x17\r,\x00\x00\x00'
tRp1294
sg18
Nsg19
VAustinC3
p1295
sa(dp1296
g3
(lp1297
V@m_davidson123
p1298
aV@wshhfans
p1299
aV\U0001f602
aV\U0001f602
aV\U0001f602
aV\U0001f602
aV\U0001f602
aV\U0001f602
aV\U0001f602
aV\U0001f602
aV\U0001f602
asg15
g16
(S'\x07\xe0\x01\x0f\x17\x0c1\x00\x00\x00'
tRp1300
sg18
Nsg19
VAustinC3
p1301
sa(dp1302
g3
(lp1303
Veric
p1304
aVreid
p1305
aVis
p1306
aVat
p1307
aVthe
p1308
aVcv
p1309
aV24
p1310
aV#49ers
p1311
asg15
g16
(S'\x07\xe0\x01\x0f\x14)0\x00\x00\x00'
tRp1312
sg18
Nsg19
VAustinC3
p1313
sa(dp1314
g3
(lp1315
V@meechemarie
p1316
aVi
aValready
p1317
aVtook
p1318
aVsome
p1319
aVlol
p1320
aVit
p1321
aVjust
p1322
aVdoesn't
p1323
aVwork
p1324
asg15
g16
(S'\x07\xe0\x01\x0f\x089\x1d\x00\x00\x00'
tRp1325
sg18
Nsg19
VAustinC3
p1326
sa(dp1327
g3
(lp1328
V@meechemarie
p1329
aVjoin
p1330
aVthe
p1331
aVclub
p1332
asg15
g16
(S'\x07\xe0\x01\x0f\x084\x1a\x00\x00\x00'
tRp1333
sg18
Nsg19
VAustinC3
p1334
sa(dp1335
g3
(lp1336
Vtwitter
p1337
aVis
p1338
aVnot
p1339
aVpoppin
p1340
aVtonight
p1341
aV.
aVwhere's
p1342
aVmy
p1343
aVboy
p1344
aVcisco
p1345
aVbruuhhh
p1346
aVat
p1347
aV?
asg15
g16
(S'\x07\xe0\x01\x0f\x08+\x04\x00\x00\x00'
tRp1348
sg18
Nsg19
VAustinC3
p1349
sa(dp1350
g3
(lp1351
Vwhen
p1352
aVthe
p1353
aVin-n-out
p1354
aVis
p1355
aVtoo
p1356
aVgood
p1357
aVhttps://t.co/zbjmsbbb0d
p1358
asg15
g16
(S'\x07\xe0\x01\x0f\x074+\x00\x00\x00'
tRp1359
sg18
Nsg19
VAustinC3
p1360
sa(dp1361
g3
(lp1362
Vmichael
p1363
aVb
aV.
aVjordan
p1364
aVfor
p1365
aVsure
p1366
aVbruh
p1367
aV\U0001f4aa
aV\U0001f3fd
aVhttps://t.co/iqzfdfxipk
p1368
asg15
g16
(S'\x07\xe0\x01\x0f\x07.2\x00\x00\x00'
tRp1369
sg18
Nsg19
VAustinC3
p1370
sa(dp1371
g3
(lp1372
Vmy
p1373
aVright
p1374
aVhand
p1375
aVfasho
p1376
aV.
aVbeen
p1377
aVby
p1378
aVme
p1379
aVthrough
p1380
aVit
p1381
aVall
p1382
aV\u270a
aV\U0001f3fd
aVmy
p1383
aVbrother
p1384
aV#conwaytriplet
p1385
aVhttps://t.co/fqixgo6rnc
p1386
asg15
g16
(S'\x07\xe0\x01\x0f\x07.\x16\x00\x00\x00'
tRp1387
sg18
Nsg19
VAustinC3
p1388
sa(dp1389
g3
(lp1390
Vrt
p1391
aV@ciscobruuhhh
p1392
aV:
aVgood
p1393
aVass
p1394
aVwork
p1395
aVout
p1396
aV:
aV\u2705
aVgood
p1397
aVass
p1398
aVdinner
p1399
aV:
aV\u2705
aVgood
p1400
aVass
p1401
aVsleep
p1402
aV:
aVguaranteed
p1403
aV\U0001f634
asg15
g16
(S'\x07\xe0\x01\x0f\x07\x16:\x00\x00\x00'
tRp1404
sg18
Nsg19
VAustinC3
p1405
sa(dp1406
g3
(lp1407
Vmy
p1408
aVdad
p1409
aVsent
p1410
aVmy
p1411
aVmom
p1412
aVam
p1413
aVthe
p1414
aVanchor
p1415
aVemoji
p1416
aVearlier
p1417
aVtoday
p1418
aVand
p1419
aVshe
p1420
aVjust
p1421
aVasked
p1422
aVwhy
p1423
aVand
p1424
aVhe
p1425
aVsaid
p1426
aV"
aVidk
p1427
aVit
p1428
aVlooks
p1429
aVcool
p1430
aV"
aV.
aVclassic
p1431
aVpapa
p1432
aVconway
p1433
aV\U0001f602
asg15
g16
(S'\x07\xe0\x01\x0f\x04 \x1b\x00\x00\x00'
tRp1434
sg18
Nsg19
VAustinC3
p1435
sa(dp1436
g3
(lp1437
Vhaven't
p1438
aVworked
p1439
aVthat
p1440
aVhard
p1441
aVin
p1442
aVa
aVminute
p1443
aV.
aVsolid
p1444
aVworkout
p1445
aVwith
p1446
aVthe
p1447
aVhomie
p1448
aV@ciscobruuhhh
p1449
aV\U0001f4aa
aV\U0001f3fd
aV\U0001f608
aV\u270a
aV\U0001f3fd
aV\U0001f4b8
asg15
g16
(S'\x07\xe0\x01\x0f\x04\r9\x00\x00\x00'
tRp1450
sg18
Nsg19
VAustinC3
p1451
sa(dp1452
g3
(lp1453
Vnothing
p1454
aVcan
p1455
aVstop
p1456
aVme
p1457
aVy'all
p1458
aV.
aVmark
p1459
aVmy
p1460
aVwords
p1461
aV,
aVi'm
p1462
aVgonna
p1463
aVmake
p1464
aVit
p1465
aV.
asg15
g16
(S'\x07\xe0\x01\x0f\x01\x00$\x00\x00\x00'
tRp1466
sg18
Nsg19
VAustinC3
p1467
sa(dp1468
g3
(lp1469
Vthe
p1470
aVpain
p1471
aVi'll
p1472
aVput
p1473
aVmyself
p1474
aVthrough
p1475
aVto
p1476
aVbe
p1477
aVthe
p1478
aVbest
p1479
aVis
p1480
aVnothing
p1481
aVcompared
p1482
aVto
p1483
aVwhat
p1484
aVi've
p1485
aValready
p1486
aVbeen
p1487
aVthrough
p1488
aV.
asg15
g16
(S'\x07\xe0\x01\x0f\x01\x00\x0c\x00\x00\x00'
tRp1489
sg18
Nsg19
VAustinC3
p1490
sa(dp1491
g3
(lp1492
Vfootball
p1493
aValmost
p1494
aVkilled
p1495
aVme
p1496
aV,
aVbut
p1497
aVit
p1498
aVdidn't
p1499
aV.
aValready
p1500
aVbeen
p1501
aVthrough
p1502
aVthe
p1503
aVmost
p1504
aVpain
p1505
aVa
aVperson
p1506
aVcan
p1507
aVgo
p1508
aVthrough
p1509
aV.
asg15
g16
(S"\x07\xe0\x01\x0f\x00;'\x00\x00\x00"
tRp1510
sg18
Nsg19
VAustinC3
p1511
sa(dp1512
g3
(lp1513
Vyou
p1514
aVget
p1515
aVput
p1516
aVthrough
p1517
aVtests
p1518
aVyour
p1519
aVwhole
p1520
aVlife
p1521
aV.
aVyou
p1522
aVjust
p1523
aVgotta
p1524
aVrespond
p1525
aVaccordingly
p1526
aVto
p1527
aVget
p1528
aVthe
p1529
aVresult
p1530
aVyou
p1531
aVwant
p1532
aV.
asg15
g16
(S'\x07\xe0\x01\x0f\x00:\x1a\x00\x00\x00'
tRp1533
sg18
Nsg19
VAustinC3
p1534
sa(dp1535
g3
(lp1536
Vi
aVwas
p1537
aVtold
p1538
aVi
aVcouldn't
p1539
aVplay
p1540
aVfootball
p1541
aVand
p1542
aVit
p1543
aVkilled
p1544
aVme
p1545
aV.
aVbut
p1546
aVi'm
p1547
aVgonna
p1548
aVplay
p1549
aV,
aVand
p1550
aVi'll
p1551
aVdo
p1552
aVwhatever
p1553
aVit
p1554
aVtakes
p1555
aVto
p1556
aVbe
p1557
aVthe
p1558
aVbest
p1559
aV.
asg15
g16
(S'\x07\xe0\x01\x0f\x009;\x00\x00\x00'
tRp1560
sg18
Nsg19
VAustinC3
p1561
sa(dp1562
g3
(lp1563
Vjust
p1564
aVgotta
p1565
aVgo
p1566
aVto
p1567
aVthe
p1568
aVgreatest
p1569
aVlengths
p1570
aVto
p1571
aVmake
p1572
aVit
p1573
aVhappen
p1574
asg15
g16
(S'\x07\xe0\x01\x0f\x009\x13\x00\x00\x00'
tRp1575
sg18
Nsg19
VAustinC3
p1576
sa(dp1577
g3
(lp1578
Vwhen
p1579
aVi
aVhear
p1580
aVsomeone
p1581
aVbe
p1582
aVtold
p1583
aVthey
p1584
aVcan't
p1585
aVdo
p1586
aVsomething
p1587
aVi
aVcan't
p1588
aVhelp
p1589
aVbut
p1590
aVget
p1591
aVmad
p1592
aV.
aVyou
p1593
aVcan
p1594
aVdo
p1595
aVwhatever
p1596
aVyou
p1597
aVwant
p1598
aV.
asg15
g16
(S'\x07\xe0\x01\x0f\x009\x05\x00\x00\x00'
tRp1599
sg18
Nsg19
VAustinC3
p1600
sa(dp1601
g3
(lp1602
Valways
p1603
aVremember
p1604
aVwho
p1605
aVstuck
p1606
aVby
p1607
aVyour
p1608
aVside
p1609
aVthrough
p1610
aVit
p1611
aVall
p1612
asg15
g16
(S'\x07\xe0\x01\x0f\x00&4\x00\x00\x00'
tRp1613
sg18
Nsg19
VAustinC3
p1614
sa(dp1615
g3
(lp1616
Vif
p1617
aVyou
p1618
aVwanna
p1619
aVbe
p1620
aVgreat
p1621
aV,
aVyou
p1622
aVgotta
p1623
aVbe
p1624
aVobsessed
p1625
aV\U0001f3c8
aV\U0001f4aa
aV\U0001f3fd
asg15
g16
(S'\x07\xe0\x01\x0e\x17*:\x00\x00\x00'
tRp1626
sg18
Nsg19
VAustinC3
p1627
sa(dp1628
g3
(lp1629
Vthunder
p1630
aVis
p1631
aVboomin
p1632
aVin
p1633
aVcv
p1634
aV\U0001f329
asg15
g16
(S'\x07\xe0\x01\x0e\x17!\x12\x00\x00\x00'
tRp1635
sg18
Nsg19
VAustinC3
p1636
sa(dp1637
g3
(lp1638
V@keith_anthony21
p1639
aVyessir
p1640
aV.
aVgotta
p1641
aVshow
p1642
aVthem
p1643
aVwhat
p1644
aVwe
p1645
aVcan
p1646
aVdo
p1647
aV#laneymob
p1648
asg15
g16
(S'\x07\xe0\x01\x0e\x17\x1e\x12\x00\x00\x00'
tRp1649
sg18
Nsg19
VAustinC3
p1650
sa(dp1651
g3
(lp1652
V@keith_anthony21
p1653
aVi
aVfly
p1654
aVout
p1655
aVthe
p1656
aV24
p1657
aVth
p1658
aVand
p1659
aVstart
p1660
aVschool
p1661
aVthe
p1662
aV26
p1663
aVth
p1664
asg15
g16
(S'\x07\xe0\x01\x0e\x17\x1d\x13\x00\x00\x00'
tRp1665
sg18
Nsg19
VAustinC3
p1666
sa(dp1667
g3
(lp1668
Vbe
p1669
aVready
p1670
aVto
p1671
aVgrind
p1672
asg15
g16
(S'\x07\xe0\x01\x0e\x17\x0b\x0c\x00\x00\x00'
tRp1673
sg18
Nsg19
VAustinC3
p1674
sa(dp1675
g3
(lp1676
Vanyone
p1677
aVwanna
p1678
aVget
p1679
aVsome
p1680
aVcardio
p1681
aVand
p1682
aVab
p1683
aVwork
p1684
aVin
p1685
aVat
p1686
aVcv
p1687
aV24
p1688
aV?
aVi'll
p1689
aVbe
p1690
aVthere
p1691
aVin
p1692
aV20
p1693
aV\U0001f4aa
aV\U0001f3fd
aV\U0001f608
asg15
g16
(S'\x07\xe0\x01\x0e\x17\x0b\x04\x00\x00\x00'
tRp1694
sg18
Nsg19
VAustinC3
p1695
sa(dp1696
g3
(lp1697
Vrt
p1698
aV@funnydudemarcus
p1699
aV:
aVhayward
p1700
aVplunge
p1701
aVbay
p1702
aVarea
p1703
aV,
aVca
p1704
aV\U0001f60d
aV\U0001f64c
aV\U0001f3fe
aVhttps://t.co/j98t1mnzvn
p1705
asg15
g16
(S'\x07\xe0\x01\x0e\x17\n\x10\x00\x00\x00'
tRp1706
sg18
Nsg19
VAustinC3
p1707
sa(dp1708
g3
(lp1709
Vamen
p1710
aVto
p1711
aVthat
p1712
aVellen
p1713
aVhttps://t.co/lycevqpw9c
p1714
asg15
g16
(S'\x07\xe0\x01\x0e\x16\x062\x00\x00\x00'
tRp1715
sg18
Nsg19
VAustinC3
p1716
sa(dp1717
g3
(lp1718
V@ciscobruuhhh
p1719
aV@aleconway8
p1720
aV@usasevensrugby
p1721
aVi'm
p1722
aVgonna
p1723
aVtry
p1724
aVit
p1725
aVtoday
p1726
asg15
g16
(S'\x07\xe0\x01\x0e\x14.\x1f\x00\x00\x00'
tRp1727
sg18
Nsg19
VAustinC3
p1728
sa(dp1729
g3
(lp1730
Vrt
p1731
aV@nflrt
p1732
aV:
aVchip
p1733
aVkelly
p1734
aVwill
p1735
aVhave
p1736
aV@kaepernick7
p1737
aVplaying
p1738
aVlike
p1739
aVit's
p1740
aV2012
p1741
aVhttps://t.co/9ns2zhg2d0
p1742
asg15
g16
(S'\x07\xe0\x01\x0e\x14\x08\x1b\x00\x00\x00'
tRp1743
sg18
Nsg19
VAustinC3
p1744
sa(dp1745
g3
(lp1746
Vi
aVthink
p1747
aVchip
p1748
aVwill
p1749
aVdo
p1750
aVgood
p1751
aVwith
p1752
aVthe
p1753
aVniners
p1754
asg15
g16
(S'\x07\xe0\x01\x0e\x14\x08\x16\x00\x00\x00'
tRp1755
sg18
Nsg19
VAustinC3
p1756
sa(dp1757
g3
(lp1758
V@m_davidson123
p1759
aVwhaaaaat
p1760
aV.
aVso
p1761
aVruthless
p1762
asg15
g16
(S'\x07\xe0\x01\x0e\x0e(\x1a\x00\x00\x00'
tRp1763
sg18
Nsg19
VAustinC3
p1764
sa(dp1765
g3
(lp1766
Vout
p1767
aVto
p1768
aVtahoe
p1769
aVin
p1770
aVthe
p1771
aVmorning
p1772
aV\u270c
aV\U0001f3fd
aV\ufe0f
asg15
g16
(S'\x07\xe0\x01\x0e\x08\x19(\x00\x00\x00'
tRp1773
sg18
Nsg19
VAustinC3
p1774
sa(dp1775
g3
(lp1776
Vi
aVused
p1777
aVto
p1778
aVeat
p1779
aVso
p1780
aVmuch
p1781
aVcereal
p1782
aV,
aVbut
p1783
aVnow
p1784
aVthe
p1785
aVtaste
p1786
aVjust
p1787
aVgets
p1788
aVold
p1789
aVtoo
p1790
aVfast
p1791
asg15
g16
(S'\x07\xe0\x01\x0e\x08\x0f2\x00\x00\x00'
tRp1792
sg18
Nsg19
VAustinC3
p1793
sa(dp1794
g3
(lp1795
V@jackbox
p1796
aVdeliver
p1797
aVme
p1798
aVa
aVmunchie
p1799
aVmeal
p1800
aVplease
p1801
asg15
g16
(S'\x07\xe0\x01\x0e\x08\t\x10\x00\x00\x00'
tRp1802
sg18
Nsg19
VAustinC3
p1803
sa(dp1804
g3
(lp1805
V@ciscobruuhhh
p1806
aVyou
p1807
aVright
p1808
aV.
aV.
aV.
aVi
aVgotta
p1809
aVstop
p1810
aVcattin
p1811
aVand
p1812
aVfall
p1813
aVasleep
p1814
aV.
aVwe
p1815
aVgonna
p1816
aVbe
p1817
aVslumped
p1818
aVtomorrow
p1819
aVlol
p1820
asg15
g16
(S'\x07\xe0\x01\x0e\x08\x05\x1f\x00\x00\x00'
tRp1821
sg18
Nsg19
VAustinC3
p1822
sa(dp1823
g3
(lp1824
V@ciscobruuhhh
p1825
aVbut
p1826
aVi'm
p1827
aVdown
p1828
aVif
p1829
aVyou
p1830
aVare
p1831
aV.
aV.
aV.
aV.
aV.
aV\U0001f633
asg15
g16
(S'\x07\xe0\x01\x0e\x08\x037\x00\x00\x00'
tRp1832
sg18
Nsg19
VAustinC3
p1833
sa(dp1834
g3
(lp1835
V@ciscobruuhhh
p1836
aV\U0001f602
aV\U0001f602
aV\U0001f602
aV\U0001f602
aVthe
p1837
aV2000
p1838
aVcalorie
p1839
aVmunchie
p1840
aVmeal
p1841
aVwill
p1842
aVbe
p1843
aVthe
p1844
aVend
p1845
aVof
p1846
aVour
p1847
aVgains
p1848
asg15
g16
(S'\x07\xe0\x01\x0e\x08\x02.\x00\x00\x00'
tRp1849
sg18
Nsg19
VAustinC3
p1850
sa(dp1851
g3
(lp1852
V@ciscobruuhhh
p1853
aVyou
p1854
aVdon't
p1855
aVknow
p1856
aVhow
p1857
aVbad
p1858
aVi
aVwant
p1859
aVa
aVmunchie
p1860
aVmeal
p1861
aVright
p1862
aVnow
p1863
aV.
aV.
aV.
aV.
aV.
asg15
g16
(S'\x07\xe0\x01\x0e\x08\x00.\x00\x00\x00'
tRp1864
sg18
Nsg19
VAustinC3
p1865
sa(dp1866
g3
(lp1867
Vleaving
p1868
aVfor
p1869
aVtahoe
p1870
aVin
p1871
aV7
aVhours
p1872
aVand
p1873
aVi
aVgot
p1874
aVnothing
p1875
aVpacked
p1876
aV.
aV.
aV.
aV.
aVwhoops
p1877
aV.
aV.
aV.
asg15
g16
(S'\x07\xe0\x01\x0e\x07;(\x00\x00\x00'
tRp1878
sg18
Nsg19
VAustinC3
p1879
sa(dp1880
g3
(lp1881
Vlate
p1882
aVnight
p1883
aVstarving
p1884
asg15
g16
(S'\x07\xe0\x01\x0e\x07:-\x00\x00\x00'
tRp1885
sg18
Nsg19
VAustinC3
p1886
sa(dp1887
g3
(lp1888
Vrt
p1889
aV@rated_r_ray
p1890
aV:
aV\U0001f60d
aV\U0001f60d
aV\U0001f60d
aV\U0001f60d
aVhttps://t.co/38rgmgffig
p1891
asg15
g16
(S'\x07\xe0\x01\x0e\x07.6\x00\x00\x00'
tRp1892
sg18
Nsg19
VAustinC3
p1893
sa(dp1894
g3
(lp1895
Vrt
p1896
aV@ciscobruuhhh
p1897
aV:
aVbc
p1898
aVi'm
p1899
aValways
p1900
aVdumbass
p1901
aVhot
p1902
asg15
g16
(S'\x07\xe0\x01\x0e\x07)1\x00\x00\x00'
tRp1903
sg18
Nsg19
VAustinC3
p1904
sa(dp1905
g3
(lp1906
V@ciscobruuhhh
p1907
aVgot
p1908
aVhigh
p1909
aVstandards
p1910
aVon
p1911
aVthere
p1912
aV.
aVbut
p1913
aVi
aVdo
p1914
aVmess
p1915
aVup
p1916
aVevery
p1917
aVnow
p1918
aVand
p1919
aVagain
p1920
aV.
aVkills
p1921
aVme
p1922
aVa
aVlittle
p1923
aVevery
p1924
aVtime
p1925
asg15
g16
(S'\x07\xe0\x01\x0e\x07#*\x00\x00\x00'
tRp1926
sg18
Nsg19
VAustinC3
p1927
sa(dp1928
g3
(lp1929
V@nildwesnild
p1930
aVso
p1931
aVright
p1932
aV\U0001f602
asg15
g16
(S'\x07\xe0\x01\x0e\x07\x1a\x16\x00\x00\x00'
tRp1933
sg18
Nsg19
VAustinC3
p1934
sa(dp1935
g3
(lp1936
V@nildwesnild
p1937
aV\U0001f602
aV\U0001f602
aV\U0001f602
aV\U0001f602
aV\U0001f602
aVreally
p1938
aVroastin
p1939
aVcisco
p1940
aVthough
p1941
aVlol
p1942
asg15
g16
(S'\x07\xe0\x01\x0e\x07\x15\x16\x00\x00\x00'
tRp1943
sg18
Nsg19
VAustinC3
p1944
sa(dp1945
g3
(lp1946
Vrt
p1947
aV@mr_drinksonme
p1948
aV:
aVif
p1949
aVi
aVwon
p1950
aV$
aV1,300,000,000,
p1951
aVi'd
p1952
aVgive
p1953
aVa
aVquarter
p1954
aVof
p1955
aVit
p1956
aVto
p1957
aVcharity
p1958
aV.
aVnot
p1959
aVsure
p1960
aVwhat
p1961
aVi'd
p1962
aVdo
p1963
aVwith
p1964
aVthe
p1965
aVother
p1966
aV$
aV1,299,999,999.75
p1967
aVthou
p1968
aV\u2026
asg15
g16
(S'\x07\xe0\x01\x0e\x07\x11\x0f\x00\x00\x00'
tRp1969
sg18
Nsg19
VAustinC3
p1970
sa(dp1971
g3
(lp1972
V@meechemarie
p1973
aVliterally
p1974
aVthe
p1975
aVworst
p1976
asg15
g16
(S'\x07\xe0\x01\x0e\x07\x11\x05\x00\x00\x00'
tRp1977
sg18
Nsg19
VAustinC3
p1978
sa(dp1979
g3
(lp1980
V@meechemarie
p1981
aVcuz
p1982
aVyou
p1983
aVstill
p1984
aVhaven't
p1985
aVpassed
p1986
aVthe
p1987
aV"
aVreply
p1988
aVto
p1989
aVtexts
p1990
aV"
aVlevel
p1991
aV.
aV#worsttexterever
p1992
asg15
g16
(S'\x07\xe0\x01\x0e\x07\x0b\x13\x00\x00\x00'
tRp1993
sg18
Nsg19
VAustinC3
p1994
sa(dp1995
g3
(lp1996
V@ciscobruuhhh
p1997
aVgains
p1998
aVlogic
p1999
aVbruh
p2000
aV.
aVit's
p2001
aVwhat
p2002
aVi
aVlive
p2003
aVby
p2004
aVtbh
p2005
aV\U0001f602
aVit's
p2006
aVhow
p2007
aVi
aVconvince
p2008
aVmyself
p2009
aVin-n-out
p2010
aVeveryday
p2011
aVis
p2012
aVokay
p2013
aV\U0001f4aa
aV\U0001f3fd
aV\U0001f602
aV\U0001f602
aV\U0001f602
asg15
g16
(S'\x07\xe0\x01\x0e\x07\x03!\x00\x00\x00'
tRp2014
sg18
Nsg19
VAustinC3
p2015
sa(dp2016
g3
(lp2017
V@ciscobruuhhh
p2018
aV@asiapaz_becker
p2019
aVgood
p2020
aVthing
p2021
aVwe
p2022
aVran
p2023
aVto
p2024
aVthe
p2025
aVgym
p2026
aVbruh
p2027
aVhahaha
p2028
asg15
g16
(S"\x07\xe0\x01\x0e\x07\x00'\x00\x00\x00"
tRp2029
sg18
Nsg19
VAustinC3
p2030
sa(dp2031
g3
(lp2032
Vrt
p2033
aV@officialjguzman
p2034
aV:
aV#stayonyourgrind2016
p2035
asg15
g16
(S'\x07\xe0\x01\x0e\x062\x1a\x00\x00\x00'
tRp2036
sg18
Nsg19
VAustinC3
p2037
sa(dp2038
g3
(lp2039
V@briittyoung
p2040
aVare
p2041
aVyou
p2042
aVfeeling
p2043
aVokay
p2044
aV.
aV.
aV.
aV?
asg15
g16
(S'\x07\xe0\x01\x0e\x06-\x16\x00\x00\x00'
tRp2045
sg18
Nsg19
VAustinC3
p2046
sa(dp2047
g3
(lp2048
V@briittyoung
p2049
aVwhat
p2050
aVare
p2051
aVyou
p2052
aVtalking
p2053
aVabout
p2054
aV.
aV.
aV.
aV?
asg15
g16
(S'\x07\xe0\x01\x0e\x06,1\x00\x00\x00'
tRp2055
sg18
Nsg19
VAustinC3
p2056
sa(dp2057
g3
(lp2058
Vwhen
p2059
aVi
aVget
p2060
aVbored
p2061
aV,
aVi
aVtweet
p2062
aV.
aVsomeone
p2063
aVentertain
p2064
aVme
p2065
aVand
p2066
aVend
p2067
aVthis
p2068
aVmadness
p2069
asg15
g16
(S'\x07\xe0\x01\x0e\x06&\x0c\x00\x00\x00'
tRp2070
sg18
Nsg19
VAustinC3
p2071
sa(dp2072
g3
(lp2073
V@officialjguzman
p2074
aV\U0001f60f
aV\U0001f60f
aV\U0001f60f
aV\u270a
aV\U0001f3fd
aVmy
p2075
aVboy
p2076
asg15
g16
(S'\x07\xe0\x01\x0e\x06$2\x00\x00\x00'
tRp2077
sg18
Nsg19
VAustinC3
p2078
sa(dp2079
g3
(lp2080
Vcertified
p2081
aVdime
p2082
aVpiece
p2083
asg15
g16
(S'\x07\xe0\x01\x0e\x06#\x14\x00\x00\x00'
tRp2084
sg18
Nsg19
VAustinC3
p2085
sa(dp2086
g3
(lp2087
Vrt
p2088
aV@kukoc_jr
p2089
aV:
aVrealist
p2090
aVfirst
p2091
aVverse
p2092
aVin
p2093
aVrap
p2094
aVhistory
p2095
aVhttps://t.co/y3ll8kcn8i
p2096
asg15
g16
(S"\x07\xe0\x01\x0e\x06!'\x00\x00\x00"
tRp2097
sg18
Nsg19
VAustinC3
p2098
sa(dp2099
g3
(lp2100
Vrt
p2101
aV@reallifekaz
p2102
aV:
aVwhen
p2103
aVyou
p2104
aVdon't
p2105
aVhit
p2106
aVthe
p2107
aVpowerball
p2108
aV,
aVbut
p2109
aVwendy's
p2110
aVstill
p2111
aVgot
p2112
aVthat
p2113
aV4
aVfor
p2114
aV$
aV4
aVhttps://t.co/rhrjynvq13
p2115
asg15
g16
(S'\x07\xe0\x01\x0e\x06\x19\x13\x00\x00\x00'
tRp2116
sg18
Nsg19
VAustinC3
p2117
sa(dp2118
g3
(lp2119
Vto
p2120
aVslide
p2121
aVinto
p2122
aV#oomfs
p2123
aVdms
p2124
aV,
aVor
p2125
aVnot
p2126
aV.
aV.
aV.
aV\U0001f914
asg15
g16
(S'\x07\xe0\x01\x0e\x06\x18.\x00\x00\x00'
tRp2127
sg18
Nsg19
VAustinC3
p2128
sa(dp2129
g3
(lp2130
Vrt
p2131
aV@ciscobruuhhh
p2132
aV:
aVi'm
p2133
aVhella
p2134
aVbored
p2135
aV.
aVlike
p2136
aVfr
p2137
aVjust
p2138
aVhella
p2139
aVbored
p2140
asg15
g16
(S'\x07\xe0\x01\x0e\x06\x15\n\x00\x00\x00'
tRp2141
sg18
Nsg19
VAustinC3
p2142
sa(dp2143
g3
(lp2144
Vwish
p2145
aVwe
p2146
aVcould
p2147
aVturn
p2148
aVback
p2149
aVtime
p2150
aV,
aVto
p2151
aVthe
p2152
aVgood
p2153
aVold
p2154
aVdayyyys
p2155
asg15
g16
(S'\x07\xe0\x01\x0e\x05:!\x00\x00\x00'
tRp2156
sg18
Nsg19
VAustinC3
p2157
sa(dp2158
g3
(lp2159
Vnetflix
p2160
aVhas
p2161
aVsuch
p2162
aVweird
p2163
aVmovies
p2164
aV.
aV.
aV.
asg15
g16
(S'\x07\xe0\x01\x0e\x05$-\x00\x00\x00'
tRp2165
sg18
Nsg19
VAustinC3
p2166
sa(dp2167
g3
(lp2168
Vi
aVmust
p2169
aVbe
p2170
aVa
aVdog
p2171
aVguy
p2172
aV,
aVcuz
p2173
aVi
aVcan't
p2174
aVdeal
p2175
aVwith
p2176
aVyou
p2177
aVcats
p2178
aV\U0001f431
aV\u270c
aV\U0001f3fd
aV\ufe0f
asg15
g16
(S'\x07\xe0\x01\x0e\x0483\x00\x00\x00'
tRp2179
sg18
Nsg19
VAustinC3
p2180
sa(dp2181
g3
(lp2182
V"
aVwhen
p2183
aVthe
p2184
aVnights
p2185
aVget
p2186
aVcold
p2187
aV,
aVi
aVcan
p2188
aVbe
p2189
aVthere
p2190
aVfor
p2191
aVyou
p2192
aVto
p2193
aVhold
p2194
aV"
aV\U0001f3a7
aV\U0001f3a7
asg15
g16
(S'\x07\xe0\x01\x0e\x0415\x00\x00\x00'
tRp2195
sg18
Nsg19
VAustinC3
p2196
sa(dp2197
g3
(lp2198
V@meechemarie
p2199
aVjesus
p2200
aVchrist
p2201
aVbruh
p2202
aV.
aVblowing
p2203
aVme
p2204
aVup
p2205
aV\U0001f602
aV\U0001f602
aV\U0001f602
aV\U0001f602
aV\U0001f602
asg15
g16
(S'\x07\xe0\x01\x0e\x04)\x1f\x00\x00\x00'
tRp2206
sg18
Nsg19
VAustinC3
p2207
sa(dp2208
g3
(lp2209
V@meechemarie
p2210
aV@dynamitethatguy
p2211
aVit's
p2212
aVall
p2213
aVgood
p2214
aV.
aVwe
p2215
aVdon't
p2216
aVmind
p2217
aV.
aVmaybe
p2218
aVstupid
p2219
aV,
aVbut
p2220
aVhotties
p2221
aV\U0001f60f
aV\U0001f60d
asg15
g16
(S'\x07\xe0\x01\x0e\x04"\x16\x00\x00\x00'
tRp2222
sg18
Nsg19
VAustinC3
p2223
sa(dp2224
g3
(lp2225
Vrt
p2226
aV@aleconway8
p2227
aV:
aVlol
p2228
aVmaybe
p2229
aV3
aVx
aVthat
p2230
aVlong
p2231
aV?
aVcome
p2232
aVone
p2233
aVfacebook
p2234
aVwe
p2235
aVhave
p2236
aVthe
p2237
aVsame
p2238
aVbirthday
p2239
aVand
p2240
aVare
p2241
aV"
aVbrothers
p2242
aV"
aVon
p2243
aVyour
p2244
aVwebsite
p2245
aV.
aV.
aV.
aVhttps://t.co/b8kk
p2246
aV\u2026
asg15
g16
(S'\x07\xe0\x01\x0e\x04!"\x00\x00\x00'
tRp2247
sg18
Nsg19
VAustinC3
p2248
sa(dp2249
g3
(lp2250
V@dynamitethatguy
p2251
aV@meechemarie
p2252
aVyes
p2253
aVbruh
p2254
aV.
aVwhatever
p2255
aVdynamite
p2256
aVsays
p2257
aVgoes
p2258
aV.
aVyou
p2259
aVgotta
p2260
aVstand
p2261
aVdown
p2262
aVmichelle
p2263
aV.
asg15
g16
(S'\x07\xe0\x01\x0e\x04\x1e#\x00\x00\x00'
tRp2264
sg18
Nsg19
VAustinC3
p2265
sa(dp2266
g3
(lp2267
V@meechemarie
p2268
aV99
p2269
aV%
aVof
p2270
aVit
p2271
aVis
p2272
asg15
g16
(S'\x07\xe0\x01\x0e\x04\x1d#\x00\x00\x00'
tRp2273
sg18
Nsg19
VAustinC3
p2274
sa(dp2275
g3
(lp2276
Vcountry
p2277
aVmusic
p2278
aVis
p2279
aVdepressing
p2280
aV.
aVbut
p2281
aVgood
p2282
aVif
p2283
aVyou're
p2284
aVsad
p2285
aVlol
p2286
asg15
g16
(S'\x07\xe0\x01\x0e\x04\x1c\x1c\x00\x00\x00'
tRp2287
sg18
Nsg19
VAustinC3
p2288
sa(dp2289
g3
(lp2290
Vdang
p2291
aV,
aVwe
p2292
aVhave
p2293
aVbeen
p2294
aVfriends
p2295
aVfor
p2296
aV7
aVyears
p2297
aV.
aVtime
p2298
aVflies
p2299
aV.
aVlol
p2300
aV@aleconway8
p2301
aV#conwaytwins
p2302
aVhttps://t.co/lz057ptkzj
p2303
asg15
g16
(S'\x07\xe0\x01\x0e\x04\x1a\x17\x00\x00\x00'
tRp2304
sg18
Nsg19
VAustinC3
p2305
sa(dp2306
g3
(lp2307
Vrt
p2308
aV@dynamitethatguy
p2309
aV:
aVreality
p2310
aVhits
p2311
aVyou
p2312
aVhttps://t.co/slpw9irzzf
p2313
asg15
g16
(S'\x07\xe0\x01\x0e\x04\x17\x0b\x00\x00\x00'
tRp2314
sg18
Nsg19
VAustinC3
p2315
sa(dp2316
g3
(lp2317
V#conwaytwins
p2318
aVwon
p2319
aVthe
p2320
aVpowerball
p2321
aV\U0001f4b8
aV\U0001f4b8
aV\U0001f4b8
aV\U0001f4b8
aV\U0001f4b8
asg15
g16
(S'\x07\xe0\x01\x0e\x04\x08)\x00\x00\x00'
tRp2322
sg18
Nsg19
VAustinC3
p2323
sa(dp2324
g3
(lp2325
V\U0001f602
aV\U0001f602
aV\U0001f602
aV\U0001f602
aV\U0001f602
aVthat
p2326
aVexplains
p2327
aVa
aVlot
p2328
aVfam
p2329
aVhttps://t.co/gcqeoml0kr
p2330
asg15
g16
(S'\x07\xe0\x01\x0e\x03\x00:\x00\x00\x00'
tRp2331
sg18
Nsg19
VAustinC3
p2332
sa(dp2333
g3
(lp2334
V@ciscobruuhhh
p2335
aV@dj_twannn
p2336
aVyeah
p2337
aV.
aVlet's
p2338
aVrun
p2339
aVto
p2340
aVthe
p2341
aVgym
p2342
aV.
aVi'll
p2343
aVbe
p2344
aVat
p2345
aVyour
p2346
aVhouse
p2347
aVin
p2348
aV5
asg15
g16
(S'\x07\xe0\x01\r\x17,$\x00\x00\x00'
tRp2349
sg18
Nsg19
VAustinC3
p2350
sa(dp2351
g3
(lp2352
V@ciscobruuhhh
p2353
aV@dj_twannn
p2354
aVcv
p2355
aVor
p2356
aVhayward
p2357
aV?
asg15
g16
(S'\x07\xe0\x01\r\x17*;\x00\x00\x00'
tRp2358
sg18
Nsg19
VAustinC3
p2359
sa(dp2360
g3
(lp2361
Vbeing
p2362
aVtaught
p2363
aVhow
p2364
aVto
p2365
aVcolor
p2366
aVby
p2367
aVthe
p2368
aVlittle
p2369
aVcousin
p2370
aVhttps://t.co/nylw5bgost
p2371
asg15
g16
(S'\x07\xe0\x01\r\x16\x08\r\x00\x00\x00'
tRp2372
sg18
Nsg19
VAustinC3
p2373
sa(dp2374
g3
(lp2375
Vrt
p2376
aV@mattyloyd
p2377
aV:
aVwhen
p2378
aVyou
p2379
aVget
p2380
aVfinger
p2381
aVhappy
p2382
aVand
p2383
aVdelete
p2384
aVthe
p2385
aVmusic
p2386
aVapp
p2387
aV\U0001f611
asg15
g16
(S'\x07\xe0\x01\r\x16\x00\x14\x00\x00\x00'
tRp2388
sg18
Nsg19
VAustinC3
p2389
sa(dp2390
g3
(lp2391
Vrt
p2392
aV@sneakerpics23
p2393
aV:
aVrt
p2394
aVif
p2395
aVyou
p2396
aVwant
p2397
aVthis
p2398
aVcloset
p2399
aVhttps://t.co/jc1sgwxojr
p2400
asg15
g16
(S"\x07\xe0\x01\r\x15'%\x00\x00\x00"
tRp2401
sg18
Nsg19
VAustinC3
p2402
sa(dp2403
g3
(lp2404
Vrt
p2405
aV@causewereguys
p2406
aV:
aVlmao
p2407
aVhttps://t.co/6c7gtnurcy
p2408
asg15
g16
(S'\x07\xe0\x01\r\x15\x16:\x00\x00\x00'
tRp2409
sg18
Nsg19
VAustinC3
p2410
sa(dp2411
g3
(lp2412
V@sierra_lynn5
p2413
aVmatt
p2414
aVwas
p2415
aVdope
p2416
aV,
aVbut
p2417
aVtim
p2418
aVis
p2419
aVmy
p2420
aVidol
p2421
aVlol
p2422
asg15
g16
(S'\x07\xe0\x01\r\t\x02)\x00\x00\x00'
tRp2423
sg18
Nsg19
VAustinC3
p2424
sa(dp2425
g3
(lp2426
V@sierra_lynn5
p2427
aVi
aVwish
p2428
aVdillon
p2429
aVwas
p2430
aVa
aVreal
p2431
aVplace
p2432
aVlol
p2433
aVi
aVwould
p2434
aVbe
p2435
aVthere
p2436
aVright
p2437
aVnow
p2438
aV.
aVbut
p2439
aVthat's
p2440
aVfor
p2441
aVsure
p2442
aVlife
p2443
aVgoals
p2444
asg15
g16
(S'\x07\xe0\x01\r\x08;\t\x00\x00\x00'
tRp2445
sg18
Nsg19
VAustinC3
p2446
sa(dp2447
g3
(lp2448
V@sierra_lynn5
p2449
aVcan't
p2450
aVlose
p2451
aV!
aV\U0001f64f
aV\U0001f3fd
aVbest
p2452
aVshow
p2453
aVever
p2454
asg15
g16
(S'\x07\xe0\x01\r\x0827\x00\x00\x00'
tRp2455
sg18
Nsg19
VAustinC3
p2456
sa(dp2457
g3
(lp2458
V@nakita_lealao
p2459
aVyessir
p2460
aV!
aVyou
p2461
aVtoo
p2462
aVbro
p2463
aV\u270a
aV\U0001f3fd
asg15
g16
(S'\x07\xe0\x01\r\x08\x1e+\x00\x00\x00'
tRp2464
sg18
Nsg19
VAustinC3
p2465
sa(dp2466
g3
(lp2467
V@nakita_lealao
p2468
aVnah
p2469
aVi
aVhave
p2470
aVno
p2471
aVeligibility
p2472
aVthere
p2473
aV.
aVi'm
p2474
aVgoing
p2475
aVto
p2476
aVtabor
p2477
aVcollege
p2478
aVin
p2479
aVkansas
p2480
aV\u2708
aV\ufe0f
asg15
g16
(S'\x07\xe0\x01\r\x08\x1d\x00\x00\x00\x00'
tRp2481
sg18
Nsg19
VAustinC3
p2482
sa(dp2483
g3
(lp2484
Vabout
p2485
aVa
aVmonth
p2486
aVout
p2487
aV.
aV.
aV.
aV.
aV#nobae
p2488
aVhttps://t.co/fvejqqpkrl
p2489
asg15
g16
(S'\x07\xe0\x01\r\x08\x173\x00\x00\x00'
tRp2490
sg18
Nsg19
VAustinC3
p2491
sa(dp2492
g3
(lp2493
Vno
p2494
aVone
p2495
aVi've
p2496
aVrecommended
p2497
aVit
p2498
aVto
p2499
aVhas
p2500
aVbeen
p2501
aVdisappointed
p2502
aV.
aVtrust
p2503
aVme
p2504
aVy'all
p2505
aV.
asg15
g16
(S'\x07\xe0\x01\r\x08\x0c\x14\x00\x00\x00'
tRp2506
sg18
Nsg19
VAustinC3
p2507
sa(dp2508
g3
(lp2509
Vif
p2510
aVyou've
p2511
aVnever
p2512
aVwatched
p2513
aVfriday
p2514
aVnight
p2515
aVlights
p2516
aV,
aVwatch
p2517
aVit
p2518
aVasap
p2519
aV.
asg15
g16
(S'\x07\xe0\x01\r\x08\x0b7\x00\x00\x00'
tRp2520
sg18
Nsg19
VAustinC3
p2521
sa(dp2522
g3
(lp2523
Vrt
p2524
aV@imyunggoidie
p2525
aV:
aVsnoop
p2526
aVnarrating
p2527
aVplanet
p2528
aVearth
p2529
aVis
p2530
aVone
p2531
aVof
p2532
aVthe
p2533
aVmost
p2534
aViconic
p2535
aVthings
p2536
aVof
p2537
aV2016
p2538
aVthis
p2539
aVfar
p2540
aVhttps://t.co/dxhm0jencs
p2541
asg15
g16
(S'\x07\xe0\x01\r\x08\x0b\x1a\x00\x00\x00'
tRp2542
sg18
Nsg19
VAustinC3
p2543
sa(dp2544
g3
(lp2545
V@nakita_lealao
p2546
aVi
aVleave
p2547
aVhere
p2548
aVthe
p2549
aV24
p2550
aVth
p2551
asg15
g16
(S'\x07\xe0\x01\r\x08\x08/\x00\x00\x00'
tRp2552
sg18
Nsg19
VAustinC3
p2553
sa(dp2554
g3
(lp2555
Vour
p2556
aVapologies
p2557
aV,
aVno
p2558
aV#conwaytwins
p2559
aVpics
p2560
aVhave
p2561
aVbeen
p2562
aVposted
p2563
aVlately
p2564
aV.
aVdon't
p2565
aVworry
p2566
aV,
aVsome
p2567
aVwill
p2568
aVbe
p2569
aVcoming
p2570
aVbefore
p2571
aVthe
p2572
aVseparation
p2573
aV.
asg15
g16
(S'\x07\xe0\x01\r\x08\x06\x0e\x00\x00\x00'
tRp2574
sg18
Nsg19
VAustinC3
p2575
sa(dp2576
g3
(lp2577
V@barrowbeasy
p2578
aV@aleconway8
p2579
aVlike
p2580
aV15
p2581
aVyears
p2582
aVstrong
p2583
aV\U0001f602
aV\U0001f602
aV\U0001f602
asg15
g16
(S'\x07\xe0\x01\r\x08\x05\x05\x00\x00\x00'
tRp2584
sg18
Nsg19
VAustinC3
p2585
sa(dp2586
g3
(lp2587
Vi
aVmiss
p2588
aVfootball
p2589
aVso
p2590
aVmuch
p2591
asg15
g16
(S'\x07\xe0\x01\r\x08\x02\x18\x00\x00\x00'
tRp2592
sg18
Nsg19
VAustinC3
p2593
sa(dp2594
g3
(lp2595
Vso
p2596
aVexcited
p2597
aVto
p2598
aVget
p2599
aVback
p2600
aVon
p2601
aVthe
p2602
aVfield
p2603
aV\U0001f60d
aVspring
p2604
aVball
p2605
aVis
p2606
aVgonna
p2607
aVmake
p2608
aVme
p2609
aVso
p2610
aVhappy
p2611
aV\U0001f64f
aV\U0001f3fd
asg15
g16
(S'\x07\xe0\x01\r\x08\x017\x00\x00\x00'
tRp2612
sg18
Nsg19
VAustinC3
p2613
sa(dp2614
g3
(lp2615
V@aleconway8
p2616
aVhow's
p2617
aVthat
p2618
aVhaterade
p2619
aVyou're
p2620
aVsippin
p2621
aVon
p2622
aV?
asg15
g16
(S'\x07\xe0\x01\r\x0774\x00\x00\x00'
tRp2623
sg18
Nsg19
VAustinC3
p2624
sa(dp2625
g3
(lp2626
Vit's
p2627
aVcoming
p2628
aValong
p2629
aV.
aVwait
p2630
aVtill
p2631
aVseason
p2632
aVhttps://t.co/vbi8qymxdi
p2633
asg15
g16
(S'\x07\xe0\x01\r\x075!\x00\x00\x00'
tRp2634
sg18
Nsg19
VAustinC3
p2635
sa(dp2636
g3
(lp2637
V#33
p2638
aVgonna
p2639
aVkill
p2640
aVthe
p2641
aVgame
p2642
aV\U0001f608
aV\U0001f3c8
aV\U0001f4aa
aV\U0001f3fd
aV#timriggins
p2643
asg15
g16
(S'\x07\xe0\x01\r\x073\x0e\x00\x00\x00'
tRp2644
sg18
Nsg19
VAustinC3
p2645
sa(dp2646
g3
(lp2647
Vmy
p2648
aVschool
p2649
aVis
p2650
aVgold
p2651
aVand
p2652
aVblue
p2653
aV.
aVjust
p2654
aVlike
p2655
aVthe
p2656
aVdillon
p2657
aVpanthers
p2658
aV.
aVayyyyye
p2659
aVlol
p2660
asg15
g16
(S'\x07\xe0\x01\r\x072%\x00\x00\x00'
tRp2661
sg18
Nsg19
VAustinC3
p2662
sa(dp2663
g3
(lp2664
Vmillion
p2665
aVdollar
p2666
aVidea
p2667
aV.
aVlet's
p2668
aVmake
p2669
aVit
p2670
aVhappen
p2671
aVbrother
p2672
aV.
aVhttps://t.co/dnn0td6zpb
p2673
asg15
g16
(S'\x07\xe0\x01\r\x07\x0e1\x00\x00\x00'
tRp2674
sg18
Nsg19
VAustinC3
p2675
sa.