(lp1
(dp2
S'text'
p3
(lp4
Va
aVfriendly
p5
aVreminder
p6
aVas
p7
aVi'm
p8
aVsick
p9
aVin
p10
aVbed
p11
aVwith
p12
aVthe
p13
aVflu
p14
aV-
aVplease
p15
aVupdate
p16
aVyour
p17
aVemergency
p18
aVkits
p19
aV.
aVinclude
p20
aVat
p21
aVleast
p22
aV7
aVdays
p23
aVof
p24
aVsupplies
p25
aV#blizzard2016
p26
aV!
asS'created_at'
p27
cdatetime
datetime
p28
(S'\x07\xe0\x01\x17\x12\x11&\x00\x00\x00'
tRp29
sS'lat/long'
p30
NsS'name'
p31
Vcaracaleo
p32
sa(dp33
g3
(lp34
Vhuge
p35
aVsupporter
p36
aVof
p37
aV@labdoorapp
p38
aVthey're
p39
aVhelping
p40
aVpeople
p41
aVbetter
p42
aVunderstand
p43
aVwhat
p44
aVthey
p45
aVput
p46
aVinto
p47
aVtheir
p48
aVbodies
p49
aV#supplements
p50
asg27
g28
(S'\x07\xe0\x01\x17\x06\x04"\x00\x00\x00'
tRp51
sg30
Nsg31
Vcaracaleo
p52
sa(dp53
g3
(lp54
V@jingdoc
p55
aVwhat
p56
aVvitamins
p57
aVdo
p58
aVmost
p59
aVpeople
p60
aVnot
p61
aVget
p62
aVout
p63
aVof
p64
aVtheir
p65
aVnormal
p66
aVdiets
p67
aV?
asg27
g28
(S'\x07\xe0\x01\x17\x06\x020\x00\x00\x00'
tRp68
sg30
Nsg31
Vcaracaleo
p69
sa(dp70
g3
(lp71
Vwhat
p72
aVtwo
p73
aVsongs
p74
aVwould
p75
aVyou
p76
aVpreform
p77
aVon
p78
aV@spikelsb
p79
aV?
asg27
g28
(S'\x07\xe0\x01\x17\x06\x02\x02\x00\x00\x00'
tRp80
sg30
Nsg31
Vcaracaleo
p81
sa(dp82
g3
(lp83
Vi
aVforgot
p84
aVhow
p85
aVgood
p86
aVfruit
p87
aVpunch
p88
aV@gatorade
p89
aVtastes
p90
aVperfect
p91
aVwhen
p92
aVyou're
p93
aVsick
p94
aV#undertheweather
p95
aV#sick
p96
aVhttps://t.co/podgm59uf5
p97
asg27
g28
(S'\x07\xe0\x01\x17\x05\x07\x1a\x00\x00\x00'
tRp98
sg30
Nsg31
Vcaracaleo
p99
sa(dp100
g3
(lp101
V@elfwriter
p102
aVyes
p103
aVthe
p104
aVthird
p105
aVbook
p106
aVwas
p107
aVso
p108
aVdifferent
p109
asg27
g28
(S'\x07\xe0\x01\x17\x00) \x00\x00\x00'
tRp110
sg30
Nsg31
Vcaracaleo
p111
sa(dp112
g3
(lp113
Vrt
p114
aV@gary_thedog
p115
aV:
aV#theforceawakens
p116
aVgary
p117
aVedition
p118
aV!
aVhttps://t.co/aegtqtalty
p119
asg27
g28
(S'\x07\xe0\x01\x15\x04\x1a\x00\x00\x00\x00'
tRp120
sg30
Nsg31
Vcaracaleo
p121
sa(dp122
g3
(lp123
V"
aVi'm
p124
aVhalf
p125
aVcaucasian
p126
aVand
p127
aVmusic
p128
aVdoesn't
p129
aVflow
p130
aVthrough
p131
aVmy
p132
aVbody
p133
aVlike
p134
aVthat
p135
aV"
aV@marriedau
p136
aV#marriedatfirstsight
p137
aVso
p138
aVadorable
p139
asg27
g28
(S'\x07\xe0\x01\x15\x039\x00\x00\x00\x00'
tRp140
sg30
Nsg31
Vcaracaleo
p141
sa(dp142
g3
(lp143
Vhttps://t.co/bkemhvofkt
p144
asg27
g28
(S'\x07\xe0\x01\x15\x02:(\x00\x00\x00'
tRp145
sg30
Nsg31
Vcaracaleo
p146
sa(dp147
g3
(lp148
Vrt
p149
aV@stephaniemlee
p150
aV:
aV.
aV@iamkoby
p151
aVwas
p152
aVkind
p153
aVenough
p154
aVto
p155
aVtalk
p156
aVto
p157
aVme
p158
aVabout
p159
aVhis
p160
aVbreakup
p161
aV\u2014
aVand
p162
aVhow
p163
aVhis
p164
aVfitbit
p165
aVcaptured
p166
aVit
p167
aV.
aVhttps://t.co/dfebsw6cp3
p168
aVhttps
p169
aV:
aV\u2026
asg27
g28
(S'\x07\xe0\x01\x14\x001\x03\x00\x00\x00'
tRp170
sg30
Nsg31
Vcaracaleo
p171
sa(dp172
g3
(lp173
V@iamkoby
p174
aVbreakups
p175
aVare
p176
aVrough
p177
aVthey
p178
aVhappen
p179
aVfor
p180
aVa
aVreason
p181
aV.
aVwishing
p182
aVyou
p183
aVthe
p184
aVbest
p185
aV!
asg27
g28
(S'\x07\xe0\x01\x14\x00/!\x00\x00\x00'
tRp186
sg30
Nsg31
Vcaracaleo
p187
sa(dp188
g3
(lp189
V@usweekly
p190
aV@taylorswift13
p191
aVthese
p192
aVare
p193
aV2
aVamazing
p194
aVentrepreneurs
p195
aVwe
p196
aVshould
p197
aVtalk
p198
aVmore
p199
aVabout
p200
aVthat
p201
aVthan
p202
aVwearing
p203
aVmakeup
p204
aVto
p205
aVthe
p206
aVgym
p207
aV!
aVright
p208
aV@emwatson
p209
aV?
asg27
g28
(S'\x07\xe0\x01\x14\x00$ \x00\x00\x00'
tRp210
sg30
Nsg31
Vcaracaleo
p211
sa(dp212
g3
(lp213
Vrt
p214
aV@halletecco
p215
aV:
aVexcited
p216
aVto
p217
aVshare
p218
aVthat
p219
aV@kinsights
p220
aVis
p221
aVjoining
p222
aV@caredotcom
p223
aV!
aVcongrats
p224
aV@mjacksonw
p225
aV@keithmuth
p226
aV@caracaleo
p227
aV@jenschung
p228
aV!
aVhttps://t.co
p229
aV\u2026
asg27
g28
(S'\x07\xe0\x01\x13\x1640\x00\x00\x00'
tRp230
sg30
Nsg31
Vcaracaleo
p231
sa(dp232
g3
(lp233
Vhow
p234
aVdo
p235
aVwe
p236
aVconvince
p237
aV@jasonderulo
p238
aVto
p239
aVbe
p240
aVon
p241
aVbroadway
p242
aVor
p243
aVmake
p244
aVa
aVvocal
p245
aVfocused
p246
aValbum
p247
aV?
asg27
g28
(S"\x07\xe0\x01\x13\x11'7\x00\x00\x00"
tRp248
sg30
Nsg31
Vcaracaleo
p249
sa(dp250
g3
(lp251
Vbut
p252
aVwait
p253
aVlet
p254
aVme
p255
aVtake
p256
aVa
aVselfie
p257
aV#dogsoftwitter
p258
aVhttps://t.co/ongqbda9kt
p259
asg27
g28
(S'\x07\xe0\x01\x13\x02;\x00\x00\x00\x00'
tRp260
sg30
Nsg31
Vcaracaleo
p261
sa(dp262
g3
(lp263
Vrt
p264
aV@karlthefog
p265
aV:
aVit's
p266
aVcoming
p267
aVhttps://t.co/445d5slvkv
p268
asg27
g28
(S'\x07\xe0\x01\x11\x16\t9\x00\x00\x00'
tRp269
sg30
Nsg31
Vcaracaleo
p270
sa(dp271
g3
(lp272
Vat
p273
aVwhat
p274
aVage
p275
aVdo
p276
aVpeople
p277
aVoutgrow
p278
aVtantrums
p279
aV?
aV#yourealittleoldforthis
p280
asg27
g28
(S'\x07\xe0\x01\x11\x028:\x00\x00\x00'
tRp281
sg30
Nsg31
Vcaracaleo
p282
sa(dp283
g3
(lp284
V@beamdental
p285
aVare
p286
aVyou
p287
aVguys
p288
aVentirely
p289
aVsold
p290
aVout
p291
aVof
p292
aVyour
p293
aVbrushes
p294
aV?
asg27
g28
(S'\x07\xe0\x01\x10\x00!\t\x00\x00\x00'
tRp295
sg30
Nsg31
Vcaracaleo
p296
sa(dp297
g3
(lp298
Vrt
p299
aV@rock_health
p300
aV:
aVwe're
p301
aVlooking
p302
aVfor
p303
aVa
aVbright
p304
aVmind
p305
aVto
p306
aVjoin
p307
aVour
p308
aVresearch
p309
aVteam
p310
aV.
aVapply
p311
aVor
p312
aVshare
p313
aVhere
p314
aVhttps://t.co/picb7ujqvm!
p315
aVhttps://t.co/zrxyv
p316
aV\u2026
asg27
g28
(S"\x07\xe0\x01\x0f\x13'\x13\x00\x00\x00"
tRp317
sg30
Nsg31
Vcaracaleo
p318
sa(dp319
g3
(lp320
Vhttps://t.co/shkiyrxlhr
p321
asg27
g28
(S'\x07\xe0\x01\x0e\x16\x1f\n\x00\x00\x00'
tRp322
sg30
Nsg31
Vcaracaleo
p323
sa(dp324
g3
(lp325
V@sal_castaneda
p326
aVlet's
p327
aVnot
p328
aVforget
p329
aVgalaxy
p330
aVquest
p331
asg27
g28
(S'\x07\xe0\x01\x0e\x0f\x1d\x06\x00\x00\x00'
tRp332
sg30
Nsg31
Vcaracaleo
p333
sa(dp334
g3
(lp335
Vcheck
p336
aVout
p337
aVthese
p338
aVemergency
p339
aVpreparedness
p340
aVguides
p341
aVfor
p342
aVpeople
p343
aVwith
p344
aV#specialneeds
p345
aVfrom
p346
aV@regionofhalton
p347
aVhttps://t.co/u3lptbqefh
p348
asg27
g28
(S'\x07\xe0\x01\x0e\x05."\x00\x00\x00'
tRp349
sg30
Nsg31
Vcaracaleo
p350
sa(dp351
g3
(lp352
Vrt
p353
aV@halletecco
p354
aV:
aVremember
p355
aVthis
p356
aV#jpm16
p357
aV:
aV"
aVit's
p358
aVnot
p359
aVthe
p360
aVstrongest
p361
aVof
p362
aVthe
p363
aVspecies
p364
aVthat
p365
aVsurvives
p366
aV,
aVnor
p367
aVthe
p368
aVmost
p369
aVintelligent
p370
aV,
aVbut
p371
aVthe
p372
aVone
p373
aVmost
p374
aVresp
p375
aV\u2026
asg27
g28
(S'\x07\xe0\x01\r\x0f1\x1f\x00\x00\x00'
tRp376
sg30
Nsg31
Vcaracaleo
p377
sa(dp378
g3
(lp379
V84
p380
aV%
aVof
p381
aVwomen
p382
aVin
p383
aVtech
p384
aVhave
p385
aVbeen
p386
aVtold
p387
aVthat
p388
aVthey
p389
aVwere
p390
aVtoo
p391
aVaggressive
p392
aVhttps://t.co/2tvg5mnqun
p393
asg27
g28
(S'\x07\xe0\x01\x0c\x04/\x1f\x00\x00\x00'
tRp394
sg30
Nsg31
Vcaracaleo
p395
sa(dp396
g3
(lp397
Vrt
p398
aV@sfgate
p399
aV:
aVsmall
p400
aV2.9
p401
aV#earthquake
p402
aVstrikes
p403
aVin
p404
aVthe
p405
aVeast
p406
aVbay
p407
aV,
aVaccording
p408
aVto
p409
aV@usgs
p410
aV.
aVdid
p411
aVyou
p412
aVfeel
p413
aVit
p414
aV?
aVhttps://t.co/xorurohjxk
p415
aVhttps://t.co/bt0lvb
p416
aV\u2026
asg27
g28
(S'\x07\xe0\x01\x0c\x04\x1f(\x00\x00\x00'
tRp417
sg30
Nsg31
Vcaracaleo
p418
sa(dp419
g3
(lp420
Vgeorge
p421
aVdid
p422
aVnot
p423
aVget
p424
aVto
p425
aVgo
p426
aVto
p427
aVany
p428
aV#jpm16
p429
aVevents
p430
aVhttps://t.co/r6dikjbmx2
p431
asg27
g28
(S'\x07\xe0\x01\x0c\x04\x1c8\x00\x00\x00'
tRp432
sg30
Nsg31
Vcaracaleo
p433
sa(dp434
g3
(lp435
Vrt
p436
aV@rock_health
p437
aV:
aVexcited
p438
aVto
p439
aVwelcome
p440
aV#digitalhealth's
p441
aVfinest
p442
aVto
p443
aVour
p444
aVinvite-only
p445
aV#jpm16
p446
aVparty
p447
aVtonight
p448
aVfor
p449
aVdigital
p450
aVhealth
p451
aVdebuts
p452
aVand
p453
aVover
p454
aV300
p455
aV\u2026
asg27
g28
(S'\x07\xe0\x01\x0b\x17+\x14\x00\x00\x00'
tRp456
sg30
Nsg31
Vcaracaleo
p457
sa(dp458
g3
(lp459
Vit's
p460
aVtoo
p461
aVearly
p462
aVfor
p463
aV#valentinesday
p464
aV,
aVinstead
p465
aVof
p466
aVconsumerism
p467
aVlet's
p468
aVsupport
p469
aVnon-profit
p470
aVcauses
p471
aVlike
p472
aV@sierraclub
p473
aV@redcross
p474
aV@humanesociety
p475
asg27
g28
(S'\x07\xe0\x01\x0b\x04\x11\x1a\x00\x00\x00'
tRp476
sg30
Nsg31
Vcaracaleo
p477
sa(dp478
g3
(lp479
Vi
aVlove
p480
aVthat
p481
aV#ridleyscott
p482
aVis
p483
aValso
p484
aVconfused
p485
aVthat
p486
aV#themartian
p487
aVis
p488
aVcategorized
p489
aVas
p490
aVa
aVcomedy
p491
aV@goldenglobes
p492
asg27
g28
(S'\x07\xe0\x01\x0b\x03-!\x00\x00\x00'
tRp493
sg30
Nsg31
Vcaracaleo
p494
sa(dp495
g3
(lp496
V@continents
p497
aVi'm
p498
aVconfused
p499
aVhow
p500
aVthe
p501
aVmartian
p502
aVis
p503
aVin
p504
aVthe
p505
aVcomedy
p506
aVcategory
p507
asg27
g28
(S'\x07\xe0\x01\x0b\x03, \x00\x00\x00'
tRp508
sg30
Nsg31
Vcaracaleo
p509
sa(dp510
g3
(lp511
V@continents
p512
aVi
aVwant
p513
aVa
aVreally
p514
aVgood
p515
aVmusical
p516
aVto
p517
aVcome
p518
aVout
p519
asg27
g28
(S"\x07\xe0\x01\x0b\x03'2\x00\x00\x00"
tRp520
sg30
Nsg31
Vcaracaleo
p521
sa(dp522
g3
(lp523
V"
aVcookies
p524
aVfor
p525
aVeveryone
p526
aV"
aV@therealtaraji
p527
aVi
aVwant
p528
aVto
p529
aVbe
p530
aVthe
p531
aVcookie
p532
aVfairy
p533
aVeveryday
p534
aV#goldenglobes
p535
asg27
g28
(S"\x07\xe0\x01\x0b\x03'\x1a\x00\x00\x00"
tRp536
sg30
Nsg31
Vcaracaleo
p537
sa(dp538
g3
(lp539
V@continents
p540
aVi
aVdon't
p541
aVget
p542
aVit
p543
aV.
aV.
aV.
aVshould've
p544
aVgone
p545
aVto
p546
aVmelissa
p547
aVor
p548
aVamy
p549
asg27
g28
(S'\x07\xe0\x01\x0b\x03&\x1c\x00\x00\x00'
tRp550
sg30
Nsg31
Vcaracaleo
p551
sa(dp552
g3
(lp553
Vi'm
p554
aVjust
p555
aVwaiting
p556
aVfor
p557
aVthem
p558
aVto
p559
aVannounce
p560
aVa
aVnew
p561
aVindiana
p562
aVjones
p563
aVfilm
p564
aV,
aVfirefly
p565
aVreboot
p566
aV,
aVor
p567
aVsomething
p568
aVelse
p569
aVfantastic
p570
aV@goldenglobes
p571
asg27
g28
(S'\x07\xe0\x01\x0b\x03\x1d\x02\x00\x00\x00'
tRp572
sg30
Nsg31
Vcaracaleo
p573
sa(dp574
g3
(lp575
Vrt
p576
aV@buzzfeed
p577
aV:
aVcookies
p578
aVfor
p579
aVeveryone
p580
asg27
g28
(S'\x07\xe0\x01\x0b\x03\x1c\x05\x00\x00\x00'
tRp581
sg30
Nsg31
Vcaracaleo
p582
sa(dp583
g3
(lp584
Vso
p585
aVhappy
p586
aVfor
p587
aV@ladygaga
p588
aVcongratulations
p589
aVon
p590
aVyour
p591
aVwell
p592
aVdeserved
p593
aVwin
p594
aVat
p595
aV@goldenglobes
p596
asg27
g28
(S'\x07\xe0\x01\x0b\x02/\x17\x00\x00\x00'
tRp597
sg30
Nsg31
Vcaracaleo
p598
sa(dp599
g3
(lp600
Vjust
p601
aVa
aVfriendly
p602
aVreminder
p603
aVdon't
p604
aVforget
p605
aVto
p606
aVupdate
p607
aVyour
p608
aV#earthquake
p609
aVkit
p610
aV@sf72org
p611
aV@sffdnert
p612
aV@
asg27
g28
(S'\x07\xe0\x01\n\x160\x13\x00\x00\x00'
tRp613
sg30
Nsg31
Vcaracaleo
p614
sa(dp615
g3
(lp616
Vrt
p617
aV@rock_health
p618
aV:
aVcongratulations
p619
aVto
p620
aVthe
p621
aVtop
p622
aV50
p623
aVin
p624
aVdigital
p625
aVhealth
p626
aV.
aVwe'll
p627
aVbe
p628
aVcelebrating
p629
aVthem
p630
aVtonight
p631
aV!
aVhttps://t.co/6vzdfwmysk
p632
aVhttps://t.co/v
p633
aV\u2026
asg27
g28
(S'\x07\xe0\x01\n\x16.4\x00\x00\x00'
tRp634
sg30
Nsg31
Vcaracaleo
p635
sa(dp636
g3
(lp637
Vrt
p638
aV@andrewavery_2
p639
aV:
aVthere
p640
aVwere
p641
aVno
p642
aVwinners
p643
aVin
p644
aVtonight's
p645
aV#powerball
p646
aVdrawing
p647
aV.
aVnext
p648
aVwednesday's
p649
aV#jackpot
p650
aVrises
p651
aVto
p652
aVan
p653
aVunbelievable
p654
aV$
aV1.3
p655
aVbillion
p656
aV.
asg27
g28
(S'\x07\xe0\x01\n\x04.7\x00\x00\x00'
tRp657
sg30
Nsg31
Vcaracaleo
p658
sa(dp659
g3
(lp660
V@andylassner
p661
aVi
aVhope
p662
aVthat
p663
aVsomeone
p664
aVworthy
p665
aVgets
p666
aVit
p667
asg27
g28
(S'\x07\xe0\x01\t\x17\x12\x03\x00\x00\x00'
tRp668
sg30
Nsg31
Vcaracaleo
p669
sa(dp670
g3
(lp671
Vi
aVwish
p672
aV@johnboyega
p673
aV@carrieffisher
p674
aV@mindykaling
p675
aV@bethbehrs
p676
aVand
p677
aV@jackwhitehall
p678
aVwere
p679
aVmy
p680
aVsquad
p681
aV#squadgoals
p682
asg27
g28
(S'\x07\xe0\x01\t\x05\x07\x1a\x00\x00\x00'
tRp683
sg30
Nsg31
Vcaracaleo
p684
sa(dp685
g3
(lp686
Vrt
p687
aV@karlthefog
p688
aV:
aVdownpour
p689
aVsilence
p690
aVdownpour
p691
aVsilence
p692
aVdownpour
p693
aVsilence
p694
aV#elnino2016
p695
asg27
g28
(S'\x07\xe0\x01\x07\x0c\x0f)\x00\x00\x00'
tRp696
sg30
Nsg31
Vcaracaleo
p697
sa(dp698
g3
(lp699
Vrt
p700
aV@livedoppler7hd
p701
aV:
aV#stormwatch
p702
aV:
aVtoday's
p703
aVstorm
p704
aVimpact
p705
aVscale
p706
aV3
aV:
aVheaviest
p707
aVrain
p708
aVin
p709
aVam
p710
aV,
aVpossible
p711
aVflooding
p712
aV/
aVmudslides
p713
aV.
aVhttps://t.co/jruxwlrx1b
p714
aVht
p715
aV\u2026
asg27
g28
(S'\x07\xe0\x01\x06\r7&\x00\x00\x00'
tRp716
sg30
Nsg31
Vcaracaleo
p717
sa(dp718
g3
(lp719
Vjet
p720
aVlag
p721
aVjet
p722
aVlag
p723
aVjet
p724
aVlag
p725
asg27
g28
(S'\x07\xe0\x01\x06\x0b)(\x00\x00\x00'
tRp726
sg30
Nsg31
Vcaracaleo
p727
sa(dp728
g3
(lp729
V@sal_castaneda
p730
aVi
aVjust
p731
aVfound
p732
aVout
p733
aVtoday
p734
aVthat
p735
aVit's
p736
aVhappening
p737
aVand
p738
aVpeople
p739
aVare
p740
aVrenting
p741
aVtheir
p742
aVplaces
p743
aVon
p744
aV@airbnb
p745
aVfor
p746
aVcrazy
p747
aV$
aV$
asg27
g28
(S'\x07\xe0\x01\x06\x01\x02#\x00\x00\x00'
tRp748
sg30
Nsg31
Vcaracaleo
p749
sa(dp750
g3
(lp751
Vrt
p752
aV@larrykim
p753
aV:
aVwhen
p754
aVyou're
p755
aVtrying
p756
aVto
p757
aVget
p758
aVback
p759
aVinto
p760
aVthe
p761
aVswing
p762
aVof
p763
aVthings
p764
aVafter
p765
aVa
aVlong
p766
aVbreak
p767
aV.
aV#mondaymotivation
p768
aV\U0001f611
aV\U0001f4a4
aV\U0001f602
aV\U0001f602
aV\U0001f602
aVhttps://t.co/wyasukmmve
p769
asg27
g28
(S'\x07\xe0\x01\x04\r\x13\x15\x00\x00\x00'
tRp770
sg30
Nsg31
Vcaracaleo
p771
sa(dp772
g3
(lp773
Vthank
p774
aVyou
p775
aVjet
p776
aVlag
p777
aVit's
p778
aV3
aVam
p779
aVand
p780
aVi've
p781
aVcooked
p782
aV3
aVthings
p783
aV,
aVdone
p784
aVyoga
p785
aV,
aVprepped
p786
aVfor
p787
aVwork
p788
aV,
aVand
p789
aVmade
p790
aVmuffins
p791
aV.
asg27
g28
(S'\x07\xe0\x01\x04\x0b\x1c\t\x00\x00\x00'
tRp792
sg30
Nsg31
Vcaracaleo
p793
sa(dp794
g3
(lp795
Vrt
p796
aV@rock_health
p797
aV:
aV#digitalhealth
p798
aV\u2014
aVfor
p799
aVyour
p800
aVkids
p801
aVand
p802
aVyour
p803
aVparents
p804
aV.
aV#ff
p805
aV@honor
p806
aV@kurbohealth
p807
aV@kinsights
p808
aV@cellscope
p809
asg27
g28
(S'\x07\xe0\x01\x02\x06\x060\x00\x00\x00'
tRp810
sg30
Nsg31
Vcaracaleo
p811
sa(dp812
g3
(lp813
Vwho
p814
aVis
p815
aVthe
p816
aVperson
p817
aVthat
p818
aVactually
p819
aVmakes
p820
aVthe
p821
aVlight
p822
aVsabers
p823
aVin
p824
aVthe
p825
aV#starwars
p826
aVuniverse
p827
aV?
aVis
p828
aVthere
p829
aVa
aVlight
p830
aVsaber
p831
aVmaster
p832
aV?
aV#starwarsforceawakens
p833
asg27
g28
(S'\x07\xe0\x01\x01\x10\x02\x02\x00\x00\x00'
tRp834
sg30
Nsg31
Vcaracaleo
p835
sa(dp836
g3
(lp837
V@mjacksonw
p838
aVfantastic
p839
aVand
p840
aVexhausting
p841
asg27
g28
(S'\x07\xdf\x0c\x1f\x0f4\x15\x00\x00\x00'
tRp842
sg30
Nsg31
Vcaracaleo
p843
sa(dp844
g3
(lp845
V@mjacksonw
p846
aVyesterday
p847
aVwas
p848
aVa
aVone
p849
aVam
p850
aVwake
p851
aVup
p852
aVand
p853
aVtoday
p854
aVwas
p855
aVonly
p856
aVa
aVthree
p857
aVam
p858
aVwake
p859
aVup
p860
aV:)
p861
asg27
g28
(S'\x07\xdf\x0c\x1f\x0f4\x0c\x00\x00\x00'
tRp862
sg30
Nsg31
Vcaracaleo
p863
sa(dp864
g3
(lp865
Vhttps://t.co/vjmvdukxx6
p866
asg27
g28
(S'\x07\xdf\x0c\x1f\x0c\x1a\x03\x00\x00\x00'
tRp867
sg30
Nsg31
Vcaracaleo
p868
sa(dp869
g3
(lp870
Vrt
p871
aV@sf72org
p872
aV:
aVwhen
p873
aVputting
p874
aVtogether
p875
aVyour
p876
aVemergency
p877
aVsupplies
p878
aVdon't
p879
aVforget
p880
aVto
p881
aVthink
p882
aVabout
p883
aVyour
p884
aV#pets
p885
aV!
aV#sf72
p886
aV#familytime
p887
aVhttps://t.co/y5sjj0ijkp
p888
asg27
g28
(S"\x07\xdf\x0c\x1f\x00\x1b'\x00\x00\x00"
tRp889
sg30
Nsg31
Vcaracaleo
p890
sa(dp891
g3
(lp892
Vand
p893
aVyou
p894
aVdon't
p895
aVknow
p896
aV@carrieffisher
p897
aV'
aVs
aVstory
p898
aVweight
p899
aVis
p900
aVa
aVcomplicated
p901
aVthing
p902
aVwith
p903
aVfactors
p904
aVlike
p905
aVdna
p906
aVhealth
p907
aVetc
p908
aV.
aVtake
p909
aVa
aVlook
p910
aVat
p911
aVyourself
p912
asg27
g28
(S'\x07\xdf\x0c\x1f\x00\x1b!\x00\x00\x00'
tRp913
sg30
Nsg31
Vcaracaleo
p914
sa(dp915
g3
(lp916
Vhonestly
p917
aV@carrieffisher
p918
aVhas
p919
aVa
aVbadass
p920
aVpersonality
p921
aV,
aVdon't
p922
aVcomment
p923
aVon
p924
aVher
p925
aVphysical
p926
aVappearance
p927
aV-
aVshe's
p928
aVawesome
p929
aV,
aVi
aVwish
p930
aVi
aVhad
p931
aVher
p932
aVattitude
p933
aV.
asg27
g28
(S'\x07\xdf\x0c\x1f\x00\x1b\x00\x00\x00\x00'
tRp934
sg30
Nsg31
Vcaracaleo
p935
sa(dp936
g3
(lp937
V@rushedmommy
p938
aVfeel
p939
aVbetter
p940
asg27
g28
(S'\x07\xdf\x0c\x1e\x168\x03\x00\x00\x00'
tRp941
sg30
Nsg31
Vcaracaleo
p942
sa(dp943
g3
(lp944
Vjet
p945
aVlag
p946
aV:
aV100
p947
aV-
aVmaryam
p948
aV:
aV0
asg27
g28
(S'\x07\xdf\x0c\x1e\x04\x13\x15\x00\x00\x00'
tRp949
sg30
Nsg31
Vcaracaleo
p950
sa(dp951
g3
(lp952
Vrt
p953
aV@mindykaling
p954
aV:
aVi
aVwas
p955
aVso
p956
aVjealous
p957
aVhow
p958
aVquickly
p959
aVpoe
p960
aVgave
p961
aVfinn
p962
aVa
aVnickname
p963
aV.
aVno
p964
aVone
p965
aVhas
p966
aVever
p967
aVgiven
p968
aVme
p969
aVa
aVnickname
p970
aVand
p971
aVi
aVhave
p972
aVbegged
p973
asg27
g28
(S'\x07\xdf\x0c\x1d\r%%\x00\x00\x00'
tRp974
sg30
Nsg31
Vcaracaleo
p975
sa(dp976
g3
(lp977
Vrt
p978
aV@kinsights
p979
aV:
aVthe
p980
aVsurprising
p981
aVchallenge
p982
aVof
p983
aVtracking
p984
aVpediatric
p985
aVblood
p986
aVpressure
p987
aVhttps://t.co/llgeernxgd
p988
aVhttps://t.co/nhdeg9pfja
p989
asg27
g28
(S'\x07\xdf\x0c\x1d\x04&\x1f\x00\x00\x00'
tRp990
sg30
Nsg31
Vcaracaleo
p991
sa(dp992
g3
(lp993
V@caracaleo
p994
aVupdate
p995
aVover
p996
aV12
p997
aVhours
p998
aVin
p999
aVand
p1000
aVhaven't
p1001
aVread
p1002
aVa
aVbook
p1003
asg27
g28
(S'\x07\xdf\x0c\x1b\x15\x1b \x00\x00\x00'
tRp1004
sg30
Nsg31
Vcaracaleo
p1005
sa(dp1006
g3
(lp1007
Vspending
p1008
aVmy
p1009
aVbirthday
p1010
aVflying
p1011
aV@aircanada
p1012
aVand
p1013
aVtraveling
p1014
aVover
p1015
aV24
p1016
aVhours
p1017
aV!
asg27
g28
(S'\x07\xdf\x0c\x1b\x15\x1b\n\x00\x00\x00'
tRp1018
sg30
Nsg31
Vcaracaleo
p1019
sa(dp1020
g3
(lp1021
V@andylassner
p1022
aVwhen
p1023
aVi'm
p1024
aVnot
p1025
aVin
p1026
aVireland
p1027
aVand
p1028
aVconstantly
p1029
aVeating
p1030
aVsoda
p1031
aVbread
p1032
asg27
g28
(S'\x07\xdf\x0c\x1b\x04\x11\x06\x00\x00\x00'
tRp1033
sg30
Nsg31
Vcaracaleo
p1034
sa(dp1035
g3
(lp1036
Vand
p1037
aVnow
p1038
aVi
aVhave
p1039
aV24
p1040
aV+
aVhours
p1041
aVof
p1042
aVtraveling
p1043
aVwhere
p1044
aVi
aVhope
p1045
aVto
p1046
aVread
p1047
aVa
aVfew
p1048
aVbooks
p1049
aVand
p1050
aVwill
p1051
aVprobably
p1052
aVget
p1053
aVnothing
p1054
aVdone
p1055
aVthat
p1056
aVi
aVwant
p1057
aVto
p1058
asg27
g28
(S'\x07\xdf\x0c\x1b\x04\x0f\x07\x00\x00\x00'
tRp1059
sg30
Nsg31
Vcaracaleo
p1060
sa(dp1061
g3
(lp1062
V@hunterwalk
p1063
aVi
aVfeel
p1064
aVlike
p1065
aVsomeone
p1066
aVwill
p1067
aVtake
p1068
aVthis
p1069
aVas
p1070
aVa
aVchallenge
p1071
aV#maytheforcebewithyou
p1072
asg27
g28
(S'\x07\xdf\x0c\x1a\x00\x13\x1e\x00\x00\x00'
tRp1073
sg30
Nsg31
Vcaracaleo
p1074
sa(dp1075
g3
(lp1076
Vrt
p1077
aV@cmdr_hadfield
p1078
aV:
aVfrom
p1079
aVour
p1080
aVrocket-shaped
p1081
aVtree
p1082
aVto
p1083
aVyours
p1084
aV,
aVmerry
p1085
aVchristmas
p1086
aV!
aVhttps://t.co/l7nhx1fi55
p1087
asg27
g28
(S'\x07\xdf\x0c\x19\r//\x00\x00\x00'
tRp1088
sg30
Nsg31
Vcaracaleo
p1089
sa(dp1090
g3
(lp1091
Vi
aVlove
p1092
aVeating
p1093
aVsmoked
p1094
aVsalmon
p1095
aVand
p1096
aVvegetable
p1097
aVsoup
p1098
aVin
p1099
aVireland
p1100
aV.
aVit
p1101
aVjust
p1102
aVtastes
p1103
aVso
p1104
aVgood
p1105
aV.
aVi
aVthink
p1106
aVit's
p1107
aVbetter
p1108
aVhere
p1109
aVespecially
p1110
aVthe
p1111
aVvegetable
p1112
aVsoup
p1113
aV.
asg27
g28
(S'\x07\xdf\x0c\x19\x08\x04&\x00\x00\x00'
tRp1114
sg30
Nsg31
Vcaracaleo
p1115
sa(dp1116
g3
(lp1117
Vrt
p1118
aV@karlthefog
p1119
aV:
aV'
aVtwas
p1120
aVthe
p1121
aVday
p1122
aVbefore
p1123
aVchristmas
p1124
aVwhen
p1125
aVall
p1126
aVthrough
p1127
aVthe
p1128
aVcity
p1129
aVnot
p1130
aVa
aVperson
p1131
aVventured
p1132
aVoutside
p1133
aV,
aVthe
p1134
aVrain
p1135
aVwas
p1136
aVtoo
p1137
aVshitty
p1138
asg27
g28
(S'\x07\xdf\x0c\x18\x16\x03-\x00\x00\x00'
tRp1139
sg30
Nsg31
Vcaracaleo
p1140
sa(dp1141
g3
(lp1142
Vhttps://t.co/d8jiefdkmr
p1143
asg27
g28
(S'\x07\xdf\x0c\x18\x113\x06\x00\x00\x00'
tRp1144
sg30
Nsg31
Vcaracaleo
p1145
sa(dp1146
g3
(lp1147
Vwhen
p1148
aVyour
p1149
aVdad
p1150
aVis
p1151
aVbabysitting
p1152
aVyour
p1153
aVdog
p1154
aVand
p1155
aVcan't
p1156
aVfigure
p1157
aVout
p1158
aVhow
p1159
aVto
p1160
aVput
p1161
aVon
p1162
aVa
aVjacket
p1163
aVhttps://t.co/coyneyog09
p1164
asg27
g28
(S'\x07\xdf\x0c\x16\x07\r\x1e\x00\x00\x00'
tRp1165
sg30
Nsg31
Vcaracaleo
p1166
sa(dp1167
g3
(lp1168
Vrt
p1169
aV@gary_thedog
p1170
aV:
aVwhat
p1171
aVhas
p1172
aVbeen
p1173
aVthe
p1174
aVbest
p1175
aVpart
p1176
aVof
p1177
aVstar
p1178
aVwars
p1179
aVcoming
p1180
aVback
p1181
aV?
asg27
g28
(S'\x07\xdf\x0c\x13\x12\x1b:\x00\x00\x00'
tRp1182
sg30
Nsg31
Vcaracaleo
p1183
sa(dp1184
g3
(lp1185
Vrt
p1186
aV@pewresearch
p1187
aV:
aVcharts
p1188
aV:
aVhow
p1189
aVparents
p1190
aVof
p1191
aVdifferent
p1192
aVincomes
p1193
aVview
p1194
aVconditions
p1195
aVfor
p1196
aVtheir
p1197
aVkids
p1198
aVhttps://t.co/zeukkbz0k6
p1199
aVhttps://t.co/oqrefz3ia3
p1200
asg27
g28
(S'\x07\xdf\x0c\x13\x12\x12\x07\x00\x00\x00'
tRp1201
sg30
Nsg31
Vcaracaleo
p1202
sa(dp1203
g3
(lp1204
Vrt
p1205
aV@dawnandhawkes
p1206
aV:
aV"
aVif
p1207
aVyou
p1208
aVfeel
p1209
aVcompelled
p1210
aVto
p1211
aVmake
p1212
aVmusic
p1213
aV,
aVsomeone
p1214
aVout
p1215
aVthere
p1216
aVmight
p1217
aVneed
p1218
aVto
p1219
aVhear
p1220
aVit
p1221
aVas
p1222
aVmuch
p1223
aVas
p1224
aVyou
p1225
aVneed
p1226
aVto
p1227
aVmake
p1228
aVit
p1229
aV.
aV"
aVhttps://t
p1230
aV\u2026
asg27
g28
(S'\x07\xdf\x0c\x12\x07\x1c \x00\x00\x00'
tRp1231
sg30
Nsg31
Vcaracaleo
p1232
sa(dp1233
g3
(lp1234
Vrt
p1235
aV@buzzfeed
p1236
aV:
aVcarrie
p1237
aVfisher
p1238
aV\u2019
aVs
aVdog
p1239
aVwent
p1240
aVcompletely
p1241
aVnuts
p1242
aVover
p1243
aVbb
p1244
aV-
aV8
aVat
p1245
aVthe
p1246
aV#starwarstheforceawakens
p1247
aVpremiere
p1248
aVhttps://t.co/vchomxo5hm
p1249
aVhttps://t
p1250
aV\u2026
asg27
g28
(S'\x07\xdf\x0c\x12\x04\x15*\x00\x00\x00'
tRp1251
sg30
Nsg31
Vcaracaleo
p1252
sa(dp1253
g3
(lp1254
Vrt
p1255
aV@abc7newsbayarea
p1256
aV:
aVphotos
p1257
aV:
aVbay
p1258
aVarea
p1259
aV#starwars
p1260
aVfans
p1261
aVgear
p1262
aVup
p1263
aVfor
p1264
aV#theforceawakens
p1265
aV.
aVtag
p1266
aVyour
p1267
aVfan
p1268
aVphotos
p1269
aV#abc7now
p1270
aV!
aVhttps://t.co/kdvx5ykmkh
p1271
aVht
p1272
aV\u2026
asg27
g28
(S'\x07\xdf\x0c\x12\x04\x14$\x00\x00\x00'
tRp1273
sg30
Nsg31
Vcaracaleo
p1274
sa(dp1275
g3
(lp1276
V@shaycolson
p1277
aVwas
p1278
aVhighly
p1279
aVimpressed
p1280
aVby
p1281
aV@lukerockhold
p1282
aVgreat
p1283
aVskills
p1284
aVright
p1285
aVthere
p1286
aVand
p1287
aVimpressive
p1288
aVfighting
p1289
asg27
g28
(S'\x07\xdf\x0c\r\x06\x0c\x18\x00\x00\x00'
tRp1290
sg30
Nsg31
Vcaracaleo
p1291
sa(dp1292
g3
(lp1293
Vrt
p1294
aV@youngfollowill
p1295
aV:
aVi
aVjust
p1296
aVpaid
p1297
aV$
aV60
p1298
aVfor
p1299
aVa
aVfight
p1300
aVi
aVcould
p1301
aVhave
p1302
aVwatched
p1303
aVon
p1304
aVvine
p1305
aV.
aV#ufc194
p1306
asg27
g28
(S'\x07\xdf\x0c\r\x06\n\x07\x00\x00\x00'
tRp1307
sg30
Nsg31
Vcaracaleo
p1308
sa(dp1309
g3
(lp1310
Vi
aVwouldn't
p1311
aVwant
p1312
aVto
p1313
aVbe
p1314
aVin
p1315
aVthe
p1316
aVoctagon
p1317
aVwith
p1318
aV@thenotoriousmma
p1319
aVfor
p1320
aVeven
p1321
aV13
p1322
aVseconds
p1323
aV.
aV.
aV.
aV.
aV.
aV#ufc194
p1324
asg27
g28
(S'\x07\xdf\x0c\r\x06\t\x12\x00\x00\x00'
tRp1325
sg30
Nsg31
Vcaracaleo
p1326
sa(dp1327
g3
(lp1328
V@shaycolson
p1329
aVit
p1330
aVwasn't
p1331
aVreally
p1332
aVa
aVfight
p1333
aV.
aVsame
p1334
aVthing
p1335
aVwith
p1336
aVthat
p1337
aVmayweather
p1338
aVfight
p1339
aV.
aV.
aV.
aVi
aVjust
p1340
aVwant
p1341
aVa
aVgood
p1342
aVfight
p1343
aVjust
p1344
aVlike
p1345
aVi
aVlove
p1346
aVwatching
p1347
aVgood
p1348
aVgames
p1349
asg27
g28
(S'\x07\xdf\x0c\r\x06\x07\x0e\x00\x00\x00'
tRp1350
sg30
Nsg31
Vcaracaleo
p1351
sa(dp1352
g3
(lp1353
Vrt
p1354
aV@luvthispayne
p1355
aV:
aVonly
p1356
aVgood
p1357
aVthat'll
p1358
aVcome
p1359
aVfrom
p1360
aVconnor's
p1361
aVwin
p1362
aVis
p1363
aVme
p1364
aVseeing
p1365
aVhim
p1366
aVin
p1367
aVsuits
p1368
aVall
p1369
aVweek
p1370
aV.
aVthe
p1371
aVman
p1372
aVcan
p1373
aVdress
p1374
aV.
aV#ufc194
p1375
asg27
g28
(S'\x07\xdf\x0c\r\x06\x04 \x00\x00\x00'
tRp1376
sg30
Nsg31
Vcaracaleo
p1377
sa(dp1378
g3
(lp1379
V@shaycolson
p1380
aVi
aVlike
p1381
aVto
p1382
aVactually
p1383
aVsee
p1384
aVa
aVgood
p1385
aVfight
p1386
aVto
p1387
aVsee
p1388
aVwho
p1389
aVis
p1390
aVreally
p1391
aVbetter
p1392
aV.
asg27
g28
(S'\x07\xdf\x0c\r\x06\x03!\x00\x00\x00'
tRp1393
sg30
Nsg31
Vcaracaleo
p1394
sa(dp1395
g3
(lp1396
V@shaycolson
p1397
aVhe
p1398
aVlooked
p1399
aVreally
p1400
aVsickly
p1401
aVtoo
p1402
aVand
p1403
aVso
p1404
aVmany
p1405
aVbets
p1406
aVwere
p1407
aVon
p1408
aValdo
p1409
aVbecause
p1410
aVof
p1411
aVthat
p1412
aV.
aVit's
p1413
aVhard
p1414
aVto
p1415
aVreally
p1416
aVsee
p1417
aVif
p1418
aVhe's
p1419
aVbetter
p1420
aVin
p1421
aV13
p1422
aVsecs
p1423
asg27
g28
(S'\x07\xdf\x0c\r\x06\x03\x02\x00\x00\x00'
tRp1424
sg30
Nsg31
Vcaracaleo
p1425
sa(dp1426
g3
(lp1427
V@sal_castaneda
p1428
aVmajor
p1429
aVlet
p1430
aVdown
p1431
aVthe
p1432
aVfights
p1433
aVearlier
p1434
aVwere
p1435
aVbetter
p1436
asg27
g28
(S'\x07\xdf\x0c\r\x06\x02\x15\x00\x00\x00'
tRp1437
sg30
Nsg31
Vcaracaleo
p1438
sa(dp1439
g3
(lp1440
Vthat
p1441
aVwas
p1442
aVa
aVmajor
p1443
aVletdown
p1444
aV#ufc194
p1445
asg27
g28
(S'\x07\xdf\x0c\r\x06\x01\x17\x00\x00\x00'
tRp1446
sg30
Nsg31
Vcaracaleo
p1447
sa(dp1448
g3
(lp1449
V@sal_castaneda
p1450
aVi
aVwaited
p1451
aVand
p1452
aVwatched
p1453
aVall
p1454
aVthese
p1455
aVother
p1456
aVfights
p1457
aVfor
p1458
aV13
p1459
aVsecond
p1460
aV!
aV?
aV!
aV#lame
p1461
asg27
g28
(S'\x07\xdf\x0c\r\x06\x00-\x00\x00\x00'
tRp1462
sg30
Nsg31
Vcaracaleo
p1463
sa(dp1464
g3
(lp1465
Vrt
p1466
aV@espnstatsinfo
p1467
aV:
aVconor
p1468
aVmcgregor
p1469
aV:
aVwins
p1470
aVby
p1471
aVknockout
p1472
aVin
p1473
aV13
p1474
aVseconds
p1475
aV;
aVfastest
p1476
aVin
p1477
aVa
aVtitle
p1478
aVfight
p1479
aVin
p1480
aVufc
p1481
aVhistory
p1482
aV#ufc194
p1483
asg27
g28
(S'\x07\xdf\x0c\r\x06\x00\x06\x00\x00\x00'
tRp1484
sg30
Nsg31
Vcaracaleo
p1485
sa(dp1486
g3
(lp1487
Vrt
p1488
aV@onlyyoda
p1489
aV:
aVthat
p1490
aVwas
p1491
aVquick
p1492
aV\u2026
aV#ufc194
p1493
aVhttps://t.co/ujp0nkdthr
p1494
asg27
g28
(S'\x07\xdf\x0c\r\x05;\x13\x00\x00\x00'
tRp1495
sg30
Nsg31
Vcaracaleo
p1496
sa(dp1497
g3
(lp1498
Vi
aVwonder
p1499
aVwas
p1500
aV@ibmwatson
p1501
aVnamed
p1502
aVafter
p1503
aVkatherine
p1504
aVhepburn's
p1505
aVcharacter
p1506
aVms
p1507
aV.
aVwatson
p1508
aVin
p1509
aVthe
p1510
aVdesk
p1511
aVset
p1512
aV.
aVi
aVwould
p1513
aVlove
p1514
aVthat
p1515
asg27
g28
(S'\x07\xdf\x0c\n\x01;\x01\x00\x00\x00'
tRp1516
sg30
Nsg31
Vcaracaleo
p1517
sa(dp1518
g3
(lp1519
Valright
p1520
aV,
aVi
aVneed
p1521
aVsome
p1522
aVnew
p1523
aV#books
p1524
aVto
p1525
aV#read
p1526
aVduring
p1527
aVthe
p1528
aVholidays
p1529
aV.
aVany
p1530
aVsuggestions
p1531
aV?
aV#readinglist
p1532
asg27
g28
(S'\x07\xdf\x0c\t\x14:!\x00\x00\x00'
tRp1533
sg30
Nsg31
Vcaracaleo
p1534
sa(dp1535
g3
(lp1536
Vrt
p1537
aV@kinsights
p1538
aV:
aVhow
p1539
aVto
p1540
aVcreate
p1541
aVchild's
p1542
aVemergency
p1543
aVkit
p1544
aVfor
p1545
aVschool
p1546
aVhttps://t.co/b3l6wcjjkz
p1547
aVhttps://t.co/msd9l63h5i
p1548
asg27
g28
(S'\x07\xdf\x0c\t\x1498\x00\x00\x00'
tRp1549
sg30
Nsg31
Vcaracaleo
p1550
sa(dp1551
g3
(lp1552
V"
aVhello
p1553
aVfrom
p1554
aVthe
p1555
aVother
p1556
aVside
p1557
aVi
aVmust've
p1558
aVcalled
p1559
aVa
aVthousand
p1560
aVtimes
p1561
aVto
p1562
aVtell
p1563
aVyou
p1564
aVi'm
p1565
aVsorry
p1566
aV"
asg27
g28
(S'\x07\xdf\x0c\x05\x14/1\x00\x00\x00'
tRp1567
sg30
Nsg31
Vcaracaleo
p1568
sa(dp1569
g3
(lp1570
Vrt
p1571
aV@purina
p1572
aV:
aV@caracaleo
p1573
aVsherlock
p1574
aVmust
p1575
aVbe
p1576
aVdreaming
p1577
aVup
p1578
aVthe
p1579
aVnext
p1580
aVbig
p1581
aVidea
p1582
aV,
aVmaryam
p1583
aV!
aVthanks
p1584
aVfor
p1585
aV#dogthanking
p1586
aV!
aVhttps://t.co/8fm9sdbpg1
p1587
aVhttps://t.c
p1588
aV\u2026
asg27
g28
(S'\x07\xdf\x0c\x01\x10\r!\x00\x00\x00'
tRp1589
sg30
Nsg31
Vcaracaleo
p1590
sa(dp1591
g3
(lp1592
Vrt
p1593
aV@karlthefog
p1594
aV:
aVgoodnight
p1595
aVsan
p1596
aVfrancisco
p1597
aV.
aVmay
p1598
aVyou
p1599
aVdream
p1600
aVof
p1601
aVan
p1602
aVapartment
p1603
aVwith
p1604
aVlaundry
p1605
aVand
p1606
aVnever
p1607
aVhaving
p1608
aVto
p1609
aVpay
p1610
aVextra
p1611
aVfor
p1612
aVguacamole
p1613
aV.
asg27
g28
(S'\x07\xdf\x0b\x1e\x0698\x00\x00\x00'
tRp1614
sg30
Nsg31
Vcaracaleo
p1615
sa(dp1616
g3
(lp1617
V@caracaleo
p1618
aVhttps://t.co/e5nhlstx3u
p1619
asg27
g28
(S'\x07\xdf\x0b\x1d\x11&\x0c\x00\x00\x00'
tRp1620
sg30
Nsg31
Vcaracaleo
p1621
sa(dp1622
g3
(lp1623
Vtoday
p1624
aVi
aVmet
p1625
aVa
aVservice
p1626
aVshitzu
p1627
aVnamed
p1628
aVpancake
p1629
aV#bestdayever
p1630
asg27
g28
(S'\x07\xdf\x0b\x1d\x11%#\x00\x00\x00'
tRp1631
sg30
Nsg31
Vcaracaleo
p1632
sa(dp1633
g3
(lp1634
Vsherlock
p1635
aV#dogthanking
p1636
aV@purina
p1637
aVhttps://t.co/fywvrrwmrt
p1638
asg27
g28
(S'\x07\xdf\x0b\x1c\x059\x01\x00\x00\x00'
tRp1639
sg30
Nsg31
Vcaracaleo
p1640
sa(dp1641
g3
(lp1642
Vwatson
p1643
aV#dogthanking
p1644
aV@purina
p1645
aVhttps://t.co/w9lqrydt2y
p1646
asg27
g28
(S'\x07\xdf\x0b\x1c\x05\x1b\x1b\x00\x00\x00'
tRp1647
sg30
Nsg31
Vcaracaleo
p1648
sa(dp1649
g3
(lp1650
Vrt
p1651
aV@nbcbayarea
p1652
aV:
aVcongrats
p1653
aVon
p1654
aVwinning
p1655
aVthis
p1656
aVyear
p1657
aV\u2019
aVs
aV#nationaldogshow
p1658
aV,
aVcharlie
p1659
aV!
aV\U0001f43e
aVhttps://t.co/5oa91vkomi
p1660
aVhttps://t.co/vicfuvzhgl
p1661
asg27
g28
(S'\x07\xdf\x0b\x1b\x12- \x00\x00\x00'
tRp1662
sg30
Nsg31
Vcaracaleo
p1663
sa(dp1664
g3
(lp1665
Vi
aVjust
p1666
aVsaw
p1667
aVmy
p1668
aVfirst
p1669
aVman
p1670
aVbun
p1671
aVin
p1672
aVthe
p1673
aVwild
p1674
asg27
g28
(S'\x07\xdf\x0b\x18\x1781\x00\x00\x00'
tRp1675
sg30
Nsg31
Vcaracaleo
p1676
sa(dp1677
g3
(lp1678
V@nbcbayarea
p1679
aVhas
p1680
aVanyone
p1681
aVthought
p1682
aVabout
p1683
aVcost
p1684
aVand
p1685
aVenvironmental
p1686
aVimpact
p1687
aV!
aV!
aV?
asg27
g28
(S'\x07\xdf\x0b\x15\x05)2\x00\x00\x00'
tRp1688
sg30
Nsg31
Vcaracaleo
p1689
sa(dp1690
g3
(lp1691
Vso
p1692
aVglad
p1693
aVto
p1694
aVsee
p1695
aVthat
p1696
aV@labdoorapp
p1697
aVhas
p1698
aVrankings
p1699
aVfor
p1700
aVvitamin
p1701
aVc
aV,
aVwould
p1702
aVlove
p1703
aVto
p1704
aVsee
p1705
aVcollagen
p1706
aV,
aVbiotin
p1707
aVproducts
p1708
aVon
p1709
aVtheir
p1710
aVlist
p1711
aV!
aV#supplements
p1712
asg27
g28
(S'\x07\xdf\x0b\x13\x14\x17,\x00\x00\x00'
tRp1713
sg30
Nsg31
Vcaracaleo
p1714
sa(dp1715
g3
(lp1716
Vhow
p1717
aVam
p1718
aVi
aVjust
p1719
aVnoticing
p1720
aVthat
p1721
aVdaryl
p1722
aV@wwwbigbaldhead
p1723
aVis
p1724
aVin
p1725
aV@ladygaga
p1726
aVjudas
p1727
aVvideo
p1728
aV?
aV!
asg27
g28
(S'\x07\xdf\x0b\x13\x10$%\x00\x00\x00'
tRp1729
sg30
Nsg31
Vcaracaleo
p1730
sa(dp1731
g3
(lp1732
Vrt
p1733
aV@sfgov
p1734
aV:
aVthere's
p1735
aVrain
p1736
aVin
p1737
aVthe
p1738
aV#sf
p1739
aVbay
p1740
aVarea
p1741
aV!
aVgreat
p1742
aVreminder
p1743
aVto
p1744
aVbe
p1745
aV#elninoready
p1746
aV.
aVfollow
p1747
aV@sfpublicworks
p1748
aV@sf72org
p1749
aV@sfwater
p1750
aVfor
p1751
aVnews
p1752
aV&
aVamp
p1753
aV;
aVupdates
p1754
aV.
asg27
g28
(S'\x07\xdf\x0b\x0f\x0f5&\x00\x00\x00'
tRp1755
sg30
Nsg31
Vcaracaleo
p1756
sa(dp1757
g3
(lp1758
V@elfwriter
p1759
aVthird
p1760
aVbook
p1761
aV!
aVthird
p1762
aVbook
p1763
aV!
aVwe
p1764
aVneed
p1765
aVthe
p1766
aVthird
p1767
aVbook
p1768
aV!
asg27
g28
(S'\x07\xdf\x0b\x0c\x13 \x0c\x00\x00\x00'
tRp1769
sg30
Nsg31
Vcaracaleo
p1770
sa(dp1771
g3
(lp1772
Vrt
p1773
aV@sbadsgood
p1774
aV:
aV13
p1775
aVhilarious
p1776
aVmerit
p1777
aVbadges
p1778
aVwhich
p1779
aVare
p1780
aVperfect
p1781
aVfor
p1782
aVmillennials
p1783
aVhttps://t.co/wkh76lfqwy
p1784
aVhttps://t.co/qmevyzocye
p1785
asg27
g28
(S'\x07\xdf\x0b\n\x04:5\x00\x00\x00'
tRp1786
sg30
Nsg31
Vcaracaleo
p1787
sa(dp1788
g3
(lp1789
Vhttps://t.co/mjxrzrc2nl
p1790
asg27
g28
(S'\x07\xdf\x0b\x01\x0f \x1a\x00\x00\x00'
tRp1791
sg30
Nsg31
Vcaracaleo
p1792
sa(dp1793
g3
(lp1794
Vrt
p1795
aV@kinsights
p1796
aV:
aVtreats
p1797
aV,
aVno
p1798
aVtricks
p1799
aVand
p1800
aVsafety
p1801
aVfirst
p1802
aVon
p1803
aVhalloween
p1804
aVfrom
p1805
aV@redcross
p1806
aVhttps://t.co/4qy1iusdz7
p1807
asg27
g28
(S'\x07\xdf\n\x1e\x17\x12*\x00\x00\x00'
tRp1808
sg30
Nsg31
Vcaracaleo
p1809
sa(dp1810
g3
(lp1811
Vlooking
p1812
aVfor
p1813
aVhealth
p1814
aVcoverage
p1815
aV?
aVcheck
p1816
aVout
p1817
aV@stridehealth
p1818
aV#health
p1819
aVhttps://t.co/go8izhsuut
p1820
asg27
g28
(S'\x07\xdf\n\x1d\x0f\x182\x00\x00\x00'
tRp1821
sg30
Nsg31
Vcaracaleo
p1822
sa(dp1823
g3
(lp1824
Vi
aVhope
p1825
aVthis
p1826
aVputs
p1827
aVa
aVsmile
p1828
aVon
p1829
aVyour
p1830
aVface
p1831
aV.
aVstella
p1832
aVlikes
p1833
aVleaves
p1834
aVhttps://t.co/nlxutz5f9k
p1835
asg27
g28
(S'\x07\xdf\n\x1d\x049\x06\x00\x00\x00'
tRp1836
sg30
Nsg31
Vcaracaleo
p1837
sa(dp1838
g3
(lp1839
Vrt
p1840
aV@jason
p1841
aV:
aVwe
p1842
aVare
p1843
aVkilling
p1844
aVourselves
p1845
aV&
aVamp
p1846
aV;
aVour
p1847
aVkids
p1848
aVw
aV/
aVsugar
p1849
aV.
aVhttps://t.co/x7nbdwfgln
p1850
aVshocking
p1851
aVhow
p1852
aVparents
p1853
aVgive
p1854
aVkids
p1855
aVunlimited
p1856
aVsugar
p1857
aVhttps://t.co
p1858
aV\u2026
asg27
g28
(S'\x07\xdf\n\x1c\x14\x11\x1a\x00\x00\x00'
tRp1859
sg30
Nsg31
Vcaracaleo
p1860
sa(dp1861
g3
(lp1862
Vrt
p1863
aV@rock_health
p1864
aV:
aVdo
p1865
aV33
p1866
aVk
aV#digitalhealth
p1867
aVfans
p1868
aVknow
p1869
aVsomething
p1870
aVyou
p1871
aVdon't
p1872
aV?
aVhttps://t.co/ggiufyuybs
p1873
asg27
g28
(S'\x07\xdf\n\x1a\x02\x015\x00\x00\x00'
tRp1874
sg30
Nsg31
Vcaracaleo
p1875
sa(dp1876
g3
(lp1877
V.
aV@costco
p1878
aValways
p1879
aVa
aVgood
p1880
aVidea
p1881
aVbut
p1882
aVnever
p1883
aVa
aVgood
p1884
aVidea
p1885
asg27
g28
(S'\x07\xdf\n\x19\x12\n%\x00\x00\x00'
tRp1886
sg30
Nsg31
Vcaracaleo
p1887
sa(dp1888
g3
(lp1889
Vgoogle
p1890
aVshould
p1891
aVtell
p1892
aVyou
p1893
aVif
p1894
aVyou're
p1895
aVthe
p1896
aVfirst
p1897
aVperson
p1898
aVto
p1899
aVever
p1900
aVgoogle
p1901
aVsomething
p1902
asg27
g28
(S'\x07\xdf\n\x16\x05\r1\x00\x00\x00'
tRp1903
sg30
Nsg31
Vcaracaleo
p1904
sa(dp1905
g3
(lp1906
V@sparkszilla
p1907
aVnot
p1908
aVassume
p1909
aVbut
p1910
aVthey
p1911
aVshould
p1912
aVhave
p1913
asg27
g28
(S'\x07\xdf\n\x15\x15\x0e\n\x00\x00\x00'
tRp1914
sg30
Nsg31
Vcaracaleo
p1915
sa(dp1916
g3
(lp1917
V@sparkszilla
p1918
aVyes
p1919
asg27
g28
(S'\x07\xdf\n\x15\x15\r2\x00\x00\x00'
tRp1920
sg30
Nsg31
Vcaracaleo
p1921
sa(dp1922
g3
(lp1923
Vrt
p1924
aV@rock_health
p1925
aV:
aVbreaking
p1926
aV:
aVfda
p1927
aVclears
p1928
aV@23andme
p1929
aVto
p1930
aVrelease
p1931
aVhealth
p1932
aVinformation
p1933
aVthrough
p1934
aVgenetic
p1935
aVtests
p1936
aVfollowing
p1937
aVtwo
p1938
aVyear
p1939
aVban
p1940
aV.
aVhttps://t.co/c8b
p1941
aV\u2026
asg27
g28
(S'\x07\xdf\n\x15\x0e\x042\x00\x00\x00'
tRp1942
sg30
Nsg31
Vcaracaleo
p1943
sa(dp1944
g3
(lp1945
V"
aVthe
p1946
aVforce
p1947
aVis
p1948
aVcalling
p1949
aVto
p1950
aVyou
p1951
aV,
aVjust
p1952
aVlet
p1953
aVit
p1954
aVin
p1955
aV"
aV@starwars
p1956
aVhow
p1957
aVcould
p1958
aVi
aVnot
p1959
aVbuy
p1960
aVtickets
p1961
aV?
asg27
g28
(S'\x07\xdf\n\x14\x14\x056\x00\x00\x00'
tRp1962
sg30
Nsg31
Vcaracaleo
p1963
sa(dp1964
g3
(lp1965
Vrt
p1966
aV@time
p1967
aV:
aV'
aVstar
p1968
aVwars
p1969
aV'
aVsold
p1970
aVan
p1971
aV"
aVunprecedented
p1972
aV"
aVamount
p1973
aVof
p1974
aVpre-sale
p1975
aVtickets
p1976
aVhttps://t.co/k5ekcrgzeq
p1977
asg27
g28
(S'\x07\xdf\n\x14\x14\x00;\x00\x00\x00'
tRp1978
sg30
Nsg31
Vcaracaleo
p1979
sa(dp1980
g3
(lp1981
Vrt
p1982
aV@producthunt
p1983
aV:
aVdid
p1984
aVyou
p1985
aVsnag
p1986
aVa
aVticket
p1987
aVto
p1988
aVstar
p1989
aVwars
p1990
aV?
aVif
p1991
aVnot
p1992
aV,
aVyou
p1993
aVmight
p1994
aVwant
p1995
aVto
p1996
aVbefore
p1997
aVvisiting
p1998
aVstarpuns
p1999
aV:
aVhttps://t.co/ayexy9jvwv
p2000
aVhttps://t.
p2001
aV\u2026
asg27
g28
(S'\x07\xdf\n\x14\x022\x14\x00\x00\x00'
tRp2002
sg30
Nsg31
Vcaracaleo
p2003
sa(dp2004
g3
(lp2005
Vi
aVjust
p2006
aVtried
p2007
aVnew
p2008
aV@tictacglobal
p2009
aVmixers
p2010
aV#cherrycola
p2011
aVand
p2012
aVi'm
p2013
aVin
p2014
aVlove
p2015
asg27
g28
(S'\x07\xdf\n\x14\x02\x08\x16\x00\x00\x00'
tRp2016
sg30
Nsg31
Vcaracaleo
p2017
sa(dp2018
g3
(lp2019
Vrt
p2020
aV@chrissyfarr
p2021
aV:
aVi
aVthought
p2022
aVpeople
p2023
aVshould
p2024
aVshop
p2025
aVmore
p2026
aVfor
p2027
aVhealth
p2028
aVcare
p2029
aV.
aVthen
p2030
aVi
aVactually
p2031
aVtried
p2032
aVit
p2033
aV.
aVhttps://t.co/f7us4gfvl8
p2034
aVby
p2035
aV@sarahkliff
p2036
asg27
g28
(S'\x07\xdf\n\x14\x01\n\n\x00\x00\x00'
tRp2037
sg30
Nsg31
Vcaracaleo
p2038
sa(dp2039
g3
(lp2040
Vrt
p2041
aV@laughingsquid
p2042
aV:
aVa
aVted-ed
p2043
aVlesson
p2044
aVthat
p2045
aVexplains
p2046
aVhow
p2047
aVmemories
p2048
aVare
p2049
aVformed
p2050
aVand
p2051
aVwhy
p2052
aVpeople
p2053
aVlose
p2054
aVmemories
p2055
aVover
p2056
aVtime
p2057
aVhttps://t.co/l7fwwmxfkd
p2058
aVhtt
p2059
aV\u2026
asg27
g28
(S'\x07\xdf\n\x13\x17\x14$\x00\x00\x00'
tRp2060
sg30
Nsg31
Vcaracaleo
p2061
sa(dp2062
g3
(lp2063
Vrt
p2064
aV@rock_health
p2065
aV:
aVannouncing
p2066
aVour
p2067
aVlandmark
p2068
aVreport
p2069
aVon
p2070
aVthe
p2071
aVstate
p2072
aVof
p2073
aVconsumer
p2074
aVadoption
p2075
aVof
p2076
aV#digitalhealth
p2077
aVhttp://t.co/hskrswikcz
p2078
aVhttp://t.co/0yij
p2079
aV\u2026
asg27
g28
(S'\x07\xdf\n\x13\x10)\x14\x00\x00\x00'
tRp2080
sg30
Nsg31
Vcaracaleo
p2081
sa(dp2082
g3
(lp2083
Vmy
p2084
aVneighbors
p2085
aVdecided
p2086
aVto
p2087
aVdecorate
p2088
aVwith
p2089
aVbaby
p2090
aVzombies
p2091
aV#halloween
p2092
aV#zombie
p2093
aVhttp://t.co/sbwt7kothb
p2094
asg27
g28
(S'\x07\xdf\n\x13\x05\x0e\x1b\x00\x00\x00'
tRp2095
sg30
Nsg31
Vcaracaleo
p2096
sa(dp2097
g3
(lp2098
V"
aVi
aVgot
p2099
aVto
p2100
aVmake
p2101
aVit
p2102
aVright
p2103
aVfor
p2104
aVevery
p2105
aV1
aVconcerned
p2106
aV.
aVeven
p2107
aVif
p2108
aVit's
p2109
aVme
p2110
aV,
aVit
p2111
aVmeans
p2112
aVit's
p2113
aVme
p2114
aVwhat's
p2115
aVgettin
p2116
aVburned
p2117
aV.
aVcause
p2118
aVi
aVcould
p2119
aVnever
p2120
aVmake
p2121
aVyou
p2122
aVunhappy
p2123
aV"
asg27
g28
(S'\x07\xdf\n\x13\x05\t&\x00\x00\x00'
tRp2124
sg30
Nsg31
Vcaracaleo
p2125
sa(dp2126
g3
(lp2127
Vif
p2128
aVyou're
p2129
aVlooking
p2130
aVfor
p2131
aVa
aVbaby
p2132
aVshower
p2133
aVgift
p2134
aVcheck
p2135
aVout
p2136
aV@pacifyapp
p2137
aV,
aVsuch
p2138
aVa
aVsmart
p2139
aVtool
p2140
aVfor
p2141
aVnew
p2142
aVparents
p2143
aV#newmomgifts
p2144
asg27
g28
(S'\x07\xdf\n\x12\x10$"\x00\x00\x00'
tRp2145
sg30
Nsg31
Vcaracaleo
p2146
sa(dp2147
g3
(lp2148
Vwish
p2149
aVwe
p2150
aVcould
p2151
aVturn
p2152
aVback
p2153
aVtime
p2154
aVto
p2155
aVthe
p2156
aVgood
p2157
aVold
p2158
aVdays
p2159
asg27
g28
(S'\x07\xdf\n\x12\x0e\x1a*\x00\x00\x00'
tRp2160
sg30
Nsg31
Vcaracaleo
p2161
sa(dp2162
g3
(lp2163
Vrt
p2164
aV@jason
p2165
aV:
aVthese
p2166
aVtweets
p2167
aVfrom
p2168
aV@theranos
p2169
aVare
p2170
aVan
p2171
aV'
aVinteresting
p2172
aV'
aVway
p2173
aVto
p2174
aVrespond
p2175
aVto
p2176
aVthe
p2177
aV@wsj
p2178
aV'
aVs
aVinvestigative
p2179
aVpiece
p2180
aV.
aVthoughts
p2181
aV?
aVhttp://t.co/jbvgvbo
p2182
aV\u2026
asg27
g28
(S'\x07\xdf\n\x12\x0e\x13\x16\x00\x00\x00'
tRp2183
sg30
Nsg31
Vcaracaleo
p2184
sa(dp2185
g3
(lp2186
Vwhen
p2187
aVyour
p2188
aVdreams
p2189
aVdon't
p2190
aVlet
p2191
aVyou
p2192
aVsleep
p2193
aV.
aV.
aV.
aV.
aV.
aV.
aV#needmoresleep
p2194
asg27
g28
(S'\x07\xdf\n\x12\x0e\x12)\x00\x00\x00'
tRp2195
sg30
Nsg31
Vcaracaleo
p2196
sa(dp2197
g3
(lp2198
Vrt
p2199
aV@kinsights
p2200
aV:
aVall
p2201
aVyour
p2202
aVflu
p2203
aVshot
p2204
aVquestions
p2205
aVanswered
p2206
aV#flushot
p2207
aVhttp://t.co/u2wudftyvm
p2208
asg27
g28
(S'\x07\xdf\n\x10\x15+\x00\x00\x00\x00'
tRp2209
sg30
Nsg31
Vcaracaleo
p2210
sa(dp2211
g3
(lp2212
V"
aVi
aVgot
p2213
aVbored
p2214
aVof
p2215
aVmy
p2216
aVface
p2217
aVi
aVneeded
p2218
aVa
aVchange
p2219
aV"
aV#whymydadgrewamustache
p2220
aV#shitmydadsays
p2221
asg27
g28
(S"\x07\xdf\n\x10\x0e'3\x00\x00\x00"
tRp2222
sg30
Nsg31
Vcaracaleo
p2223
sa(dp2224
g3
(lp2225
Vrt
p2226
aV@readygov
p2227
aV:
aVtoday
p2228
aVat
p2229
aV10
p2230
aV:
aV15
p2231
aVam
p2232
aV#shakeout
p2233
aV&
aVamp
p2234
aV;
aVparticipate
p2235
aVin
p2236
aVthe
p2237
aVworlds
p2238
aVlargest
p2239
aVearthquake
p2240
aVdrill
p2241
aV.
aVdrop
p2242
aV!
aVcover
p2243
aV!
aV&
aVamp
p2244
aV;
aVhold
p2245
aVon
p2246
aV!
aVhttp://t.co/nmywr0v
p2247
aV\u2026
asg27
g28
(S'\x07\xdf\n\x0f\x0e)\r\x00\x00\x00'
tRp2248
sg30
Nsg31
Vcaracaleo
p2249
sa(dp2250
g3
(lp2251
Vsomebody
p2252
aVgot
p2253
aVskunked
p2254
aV.
aV.
aV.
aVagain
p2255
aVand
p2256
aVso
p2257
aVdid
p2258
aVhis
p2259
aVbrother
p2260
aV#dogsoftwitter
p2261
aV#sanfranciscodogs
p2262
aV#sf
p2263
aVhttp://t.co/gb2csjzrui
p2264
asg27
g28
(S'\x07\xdf\n\x0f\x04,\x03\x00\x00\x00'
tRp2265
sg30
Nsg31
Vcaracaleo
p2266
sa(dp2267
g3
(lp2268
Vrt
p2269
aV@redcrossbayarea
p2270
aV:
aVhave
p2271
aVyou
p2272
aVregistered
p2273
aVfor
p2274
aVthe
p2275
aVlargest-ever
p2276
aVearthquake
p2277
aVdrill
p2278
aVin
p2279
aVcalifornia
p2280
aVon
p2281
aVoctober
p2282
aV15
p2283
aV?
aVhttp://t.co/pdpjt8rjdy
p2284
aVhttp://t
p2285
aV\u2026
asg27
g28
(S'\x07\xdf\n\x0c\x17.&\x00\x00\x00'
tRp2286
sg30
Nsg31
Vcaracaleo
p2287
sa(dp2288
g3
(lp2289
V@cartwright1984
p2290
aVit's
p2291
aVthe
p2292
aVbest
p2293
aVtime
p2294
aVof
p2295
aVthe
p2296
aVyear
p2297
aV!
aV!
aV!
asg27
g28
(S'\x07\xdf\n\x0c\x159/\x00\x00\x00'
tRp2298
sg30
Nsg31
Vcaracaleo
p2299
sa(dp2300
g3
(lp2301
Vrt
p2302
aV@kinsights
p2303
aV:
aVhow
p2304
aVdo
p2305
aVi
aVsupport
p2306
aVmy
p2307
aVintroverted
p2308
aVchild
p2309
aV?
aVhttp://t.co/opbwslnqnf
p2310
aVhttp://t.co/7zlbqyqnsl
p2311
asg27
g28
(S'\x07\xdf\n\x0c\x154!\x00\x00\x00'
tRp2312
sg30
Nsg31
Vcaracaleo
p2313
sa(dp2314
g3
(lp2315
V"
aVall
p2316
aVwomen
p2317
aVare
p2318
aVnaturally
p2319
aVbadass
p2320
aV"
aV@aliciakeys
p2321
aV#preach
p2322
asg27
g28
(S'\x07\xdf\n\x0c\x04-,\x00\x00\x00'
tRp2323
sg30
Nsg31
Vcaracaleo
p2324
sa(dp2325
g3
(lp2326
Vit's
p2327
aVnot
p2328
aVeven
p2329
aV#halloween
p2330
aVbut
p2331
aVall
p2332
aVthe
p2333
aVhalloween
p2334
aVstuff
p2335
aVis
p2336
aVdiscounted
p2337
aVand
p2338
aVchristmas
p2339
aVstuff
p2340
aVis
p2341
aVon
p2342
aVshelves
p2343
asg27
g28
(S'\x07\xdf\n\n\x14\x1c\x14\x00\x00\x00'
tRp2344
sg30
Nsg31
Vcaracaleo
p2345
sa(dp2346
g3
(lp2347
V@sarahpekdemir
p2348
aVjust
p2349
aVgot
p2350
aVit
p2351
aVnow
p2352
aV!
aVso
p2353
aVexcited
p2354
aV!
aVstarting
p2355
aVit
p2356
aVtoday
p2357
asg27
g28
(S'\x07\xdf\n\n\x11\x1e\x01\x00\x00\x00'
tRp2358
sg30
Nsg31
Vcaracaleo
p2359
sa(dp2360
g3
(lp2361
V@ken_r_weaver
p2362
aVlooks
p2363
aVamazing
p2364
asg27
g28
(S'\x07\xdf\n\n\x04\x039\x00\x00\x00'
tRp2365
sg30
Nsg31
Vcaracaleo
p2366
sa(dp2367
g3
(lp2368
Vhow
p2369
aVwould
p2370
aVyou
p2371
aVweigh
p2372
aVa
aVplane
p2373
aVwithout
p2374
aVscales
p2375
aV?
asg27
g28
(S'\x07\xdf\n\x08\x17)\r\x00\x00\x00'
tRp2376
sg30
Nsg31
Vcaracaleo
p2377
sa(dp2378
g3
(lp2379
V@andieveslage
p2380
aVit
p2381
aVwas
p2382
aVa
aVpoor
p2383
aVchoice
p2384
asg27
g28
(S'\x07\xdf\n\x08\x130$\x00\x00\x00'
tRp2385
sg30
Nsg31
Vcaracaleo
p2386
sa(dp2387
g3
(lp2388
Vcinnamon
p2389
aVis
p2390
aVnot
p2391
aVan
p2392
aVacceptable
p2393
aVsubstitute
p2394
aVfor
p2395
aVbaby
p2396
aVpowder
p2397
aVor
p2398
aVdry
p2399
aVshampoo
p2400
aV.
aV#protips
p2401
asg27
g28
(S'\x07\xdf\n\x08\x12(\x12\x00\x00\x00'
tRp2402
sg30
Nsg31
Vcaracaleo
p2403
sa(dp2404
g3
(lp2405
Vrt
p2406
aV@drseisenberg
p2407
aV:
aVthe
p2408
aVorigin
p2409
aVof
p2410
aVthe
p2411
aV8
aV-
aVhour
p2412
aVwork
p2413
aVday
p2414
aVand
p2415
aVwhy
p2416
aVwe
p2417
aVshould
p2418
aVrethink
p2419
aVit
p2420
aVhttp://t.co/qhvkrseu5b
p2421
asg27
g28
(S'\x07\xdf\n\x08\x0e\x0e\x11\x00\x00\x00'
tRp2422
sg30
Nsg31
Vcaracaleo
p2423
sa(dp2424
g3
(lp2425
Vi'm
p2426
aVso
p2427
aVexcited
p2428
aVfor
p2429
aV@ahsfx
p2430
aVwith
p2431
aV@ladygaga
p2432
aV#cantwait
p2433
asg27
g28
(S'\x07\xdf\n\x08\x00" \x00\x00\x00'
tRp2434
sg30
Nsg31
Vcaracaleo
p2435
sa(dp2436
g3
(lp2437
V@kidshealth
p2438
aVno
p2439
aVlink
p2440
asg27
g28
(S'\x07\xdf\n\x07\x12\x1f4\x00\x00\x00'
tRp2441
sg30
Nsg31
Vcaracaleo
p2442
sa(dp2443
g3
(lp2444
V@davidcruztmm
p2445
aVlove
p2446
aVit
p2447
asg27
g28
(S'\x07\xdf\n\x07\x12\x1f$\x00\x00\x00'
tRp2448
sg30
Nsg31
Vcaracaleo
p2449
sa(dp2450
g3
(lp2451
V@davidcruztmm
p2452
aVmy
p2453
aVaunt
p2454
aVkept
p2455
aVher
p2456
aVlast
p2457
aVname
p2458
aVand
p2459
aVher
p2460
aVdaughters
p2461
aVhave
p2462
aVher
p2463
aVlast
p2464
aVname
p2465
aVtoo
p2466
aVbut
p2467
aVthe
p2468
aVdad
p2469
aVkept
p2470
aVhis
p2471
aVown
p2472
aVname
p2473
aV.
aVwhatever
p2474
aVworks
p2475
aVfor
p2476
aVyou
p2477
asg27
g28
(S'\x07\xdf\n\x07\x12\x17\r\x00\x00\x00'
tRp2478
sg30
Nsg31
Vcaracaleo
p2479
sa(dp2480
g3
(lp2481
V@davidcruztmm
p2482
aVi've
p2483
aVheard
p2484
aVpeople
p2485
aVhyphenate
p2486
aVand
p2487
aVmake
p2488
aVones
p2489
aVup
p2490
aV.
aVi
aVchanged
p2491
aVmy
p2492
aVname
p2493
aVbecause
p2494
aVi
aVwanted
p2495
aVto
p2496
aVhave
p2497
aVthe
p2498
aVsame
p2499
aVname
p2500
aVas
p2501
aVmy
p2502
aVkids
p2503
aV.
asg27
g28
(S'\x07\xdf\n\x07\x12\x16-\x00\x00\x00'
tRp2504
sg30
Nsg31
Vcaracaleo
p2505
sa(dp2506
g3
(lp2507
Vrt
p2508
aV@kinsights
p2509
aV:
aV20
p2510
aVdelicious
p2511
aVone-pot
p2512
aVmeals
p2513
aV#recipes
p2514
aVhttp://t.co/wlxyckqozw
p2515
aVhttp://t.co/8hdoyilkp6
p2516
asg27
g28
(S'\x07\xdf\n\x05\x13\x13\x02\x00\x00\x00'
tRp2517
sg30
Nsg31
Vcaracaleo
p2518
sa(dp2519
g3
(lp2520
Vbest
p2521
aVnews
p2522
aVever
p2523
aVthe
p2524
aV@cheerios
p2525
aVis
p2526
aV#glutenfree
p2527
aVespecially
p2528
aVhoney
p2529
aVnut
p2530
aV!
asg27
g28
(S'\x07\xdf\n\x05\x02\x0f\x08\x00\x00\x00'
tRp2531
sg30
Nsg31
Vcaracaleo
p2532
sa(dp2533
g3
(lp2534
Vrt
p2535
aV@fema
p2536
aV:
aVif
p2537
aVit's
p2538
aVraining
p2539
aVwhere
p2540
aVyou
p2541
aVlive
p2542
aV,
aVlisten
p2543
aVto
p2544
aVweather
p2545
aVupdates
p2546
aV&
aVamp
p2547
aV;
aVshare
p2548
aVthese
p2549
aV3
aVtips
p2550
aVwith
p2551
aVfriends
p2552
aV:
aVhttp://t.co/o7eeiqxgqb
p2553
aVhttp://t.co/n
p2554
aV\u2026
asg27
g28
(S'\x07\xdf\n\x03\x0e41\x00\x00\x00'
tRp2555
sg30
Nsg31
Vcaracaleo
p2556
sa(dp2557
g3
(lp2558
Vrt
p2559
aV@readygov
p2560
aV:
aVif
p2561
aVofficials
p2562
aVask
p2563
aVyou
p2564
aVto
p2565
aVevacuate
p2566
aVyour
p2567
aVhome
p2568
aVduring
p2569
aV#flooding
p2570
aV,
aVtake
p2571
aVyour
p2572
aVpets
p2573
aVwith
p2574
aVyou
p2575
aV!
aVtips
p2576
aV:
aVhttps://t.co/5bsjrv1div
p2577
aVhttp://t.
p2578
aV\u2026
asg27
g28
(S'\x07\xdf\n\x03\x0e4\x00\x00\x00\x00'
tRp2579
sg30
Nsg31
Vcaracaleo
p2580
sa(dp2581
g3
(lp2582
V"
aVjust
p2583
aVbecause
p2584
aVyou're
p2585
aVin
p2586
aVfirst
p2587
aVclass
p2588
aVdoesn't
p2589
aVmean
p2590
aVyou're
p2591
aVa
aVfirst
p2592
aVclass
p2593
aVperson
p2594
aV"
aV#philomena
p2595
asg27
g28
(S'\x07\xdf\n\x02\x0e\x1f\x0c\x00\x00\x00'
tRp2596
sg30
Nsg31
Vcaracaleo
p2597
sa(dp2598
g3
(lp2599
V@sbadsgood
p2600
aVseems
p2601
aViike
p2602
aVa
aVgreat
p2603
aVthing
p2604
aVfor
p2605
aVcertain
p2606
aV#raredisease
p2607
asg27
g28
(S'\x07\xdf\n\x02\x02(;\x00\x00\x00'
tRp2608
sg30
Nsg31
Vcaracaleo
p2609
sa(dp2610
g3
(lp2611
V"
aVthey're
p2612
aVlike
p2613
aVknights
p2614
aVin
p2615
aVthe
p2616
aVfuture
p2617
aV,
aVin
p2618
aVspace
p2619
aV,
aVbut
p2620
aVa
aVlong
p2621
aVtime
p2622
aVago
p2623
aV"
aV#starwars
p2624
asg27
g28
(S'\x07\xdf\n\x01\x13\x0f2\x00\x00\x00'
tRp2625
sg30
Nsg31
Vcaracaleo
p2626
sa(dp2627
g3
(lp2628
Vrt
p2629
aV@kidshealth
p2630
aV:
aVsudden
p2631
aVinfant
p2632
aVdeath
p2633
aVsyndrome
p2634
aV(
aV#sids
p2635
aV)
aVawareness
p2636
aVmonth
p2637
aVstarts
p2638
aVtoday
p2639
aV.
aVread
p2640
aVhow
p2641
aVyou
p2642
aVcan
p2643
aVhelp
p2644
aVreduce
p2645
aVyour
p2646
aVinfant's
p2647
aVrisk
p2648
aV.
aVhttp
p2649
aV:/
p2650
aV/
aV\u2026
asg27
g28
(S'\x07\xdf\n\x01\x0e#7\x00\x00\x00'
tRp2651
sg30
Nsg31
Vcaracaleo
p2652
sa(dp2653
g3
(lp2654
V@sal_castaneda
p2655
aVnever
p2656
aVtoo
p2657
aVearly
p2658
asg27
g28
(S'\x07\xdf\n\x01\x0e#+\x00\x00\x00'
tRp2659
sg30
Nsg31
Vcaracaleo
p2660
sa(dp2661
g3
(lp2662
V@marie_lu
p2663
aVor
p2664
aVa
aVbug
p2665
aVthat's
p2666
aVa
aVcharacter
p2667
aV?
aVlol
p2668
asg27
g28
(S'\x07\xdf\n\x01\x04$\x08\x00\x00\x00'
tRp2669
sg30
Nsg31
Vcaracaleo
p2670
sa(dp2671
g3
(lp2672
V50
p2673
aV%
aVof
p2674
aVindividuals
p2675
aVwith
p2676
aVa
aV#raredisease
p2677
aVare
p2678
aVchildren
p2679
aV,
aVand
p2680
aVsome
p2681
aVof
p2682
aVthese
p2683
aVconditions
p2684
aVmay
p2685
aVnot
p2686
aVbe
p2687
aVas
p2688
aVrare
p2689
aVas
p2690
aVwe
p2691
aVthink
p2692
aVjust
p2693
aVundiagnosed
p2694
asg27
g28
(S'\x07\xdf\n\x01\x04#(\x00\x00\x00'
tRp2695
sg30
Nsg31
Vcaracaleo
p2696
sa(dp2697
g3
(lp2698
V@marie_lu
p2699
aVmaybe
p2700
aVyou
p2701
aVcould
p2702
aVwrite
p2703
aVa
aVbook
p2704
aVabout
p2705
aVbugs
p2706
aV?
asg27
g28
(S'\x07\xdf\n\x01\x04\x1f\x14\x00\x00\x00'
tRp2707
sg30
Nsg31
Vcaracaleo
p2708
sa(dp2709
g3
(lp2710
Vrt
p2711
aV@kinsights
p2712
aV:
aVright
p2713
aVnow
p2714
aV@mjacksonw
p2715
aVis
p2716
aVsharing
p2717
aVhis
p2718
aVthoughts
p2719
aVon
p2720
aV#pediatrics
p2721
aVand
p2722
aVinnovation
p2723
aVat
p2724
aV#rhsum
p2725
aVhttp://t.co/dnq8gxued6
p2726
asg27
g28
(S'\x07\xdf\t\x1e\x14!\x12\x00\x00\x00'
tRp2727
sg30
Nsg31
Vcaracaleo
p2728
sa(dp2729
g3
(lp2730
Vsuch
p2731
aVa
aVpleasure
p2732
aVseeing
p2733
aV@dhewlett
p2734
aVon
p2735
aV#darkmatter
p2736
aVoh
p2737
aVhow
p2738
aVi
aVwish
p2739
aVi
aVcould
p2740
aVbe
p2741
aVon
p2742
aVa
aV@syfytv
p2743
aVshow
p2744
aV!
asg27
g28
(S'\x07\xdf\t\x1e\x11-\x1e\x00\x00\x00'
tRp2745
sg30
Nsg31
Vcaracaleo
p2746
sa(dp2747
g3
(lp2748
Vrt
p2749
aV@xcell_bio
p2750
aV:
aVxcell
p2751
aVis
p2752
aVhonored
p2753
aVto
p2754
aVbe
p2755
aVnominated
p2756
aVin
p2757
aVthe
p2758
aV"
aVmost
p2759
aVintriguing
p2760
aVcompany
p2761
aV"
aVcategory
p2762
aVof
p2763
aVthe
p2764
aV2015
p2765
aV@qb3
p2766
aVawards
p2767
aV!
aVhttp://t.co/66qxripjao
p2768
asg27
g28
(S'\x07\xdf\t\x1e\x04\x141\x00\x00\x00'
tRp2769
sg30
Nsg31
Vcaracaleo
p2770
sa(dp2771
g3
(lp2772
Vnext
p2773
aVon
p2774
aVthe
p2775
aVreading
p2776
aVlist
p2777
aV#jonathanstrangeandmrnorrell
p2778
aVby
p2779
aV#susannaclarke
p2780
aVhttp://t.co/8qlmepg7bx
p2781
asg27
g28
(S'\x07\xdf\t\x1e\x037\x1d\x00\x00\x00'
tRp2782
sg30
Nsg31
Vcaracaleo
p2783
sa(dp2784
g3
(lp2785
Vrt
p2786
aV@girlscouts
p2787
aV:
aV#62milliongirls
p2788
aVworldwide
p2789
aVare
p2790
aVnot
p2791
aVin
p2792
aVschool
p2793
aV.
aVjoin
p2794
aV@flotus
p2795
aVand
p2796
aVgive
p2797
aV62
p2798
aVmillion
p2799
aVgirls
p2800
aVa
aVchance
p2801
aV.
aVhttp://t.co/wsbju0zuiw
p2802
asg27
g28
(S'\x07\xdf\t\x1d\x12&)\x00\x00\x00'
tRp2803
sg30
Nsg31
Vcaracaleo
p2804
sa(dp2805
g3
(lp2806
Vapparently
p2807
aVcompanies
p2808
aVhave
p2809
aVskipped
p2810
aVover
p2811
aVthanksgiving
p2812
aVand
p2813
aVhalloween
p2814
aVand
p2815
aVare
p2816
aValready
p2817
aVpromoting
p2818
aVxmas
p2819
aV#emailmarketing
p2820
asg27
g28
(S'\x07\xdf\t\x1d\x12$8\x00\x00\x00'
tRp2821
sg30
Nsg31
Vcaracaleo
p2822
sa(dp2823
g3
(lp2824
Vgreat
p2825
aVjob
p2826
aV#johnoliver
p2827
aV@lastweektonight
p2828
aVthanks
p2829
aVfor
p2830
aVhighlight
p2831
aVthe
p2832
aV#refugeecrisis
p2833
aVhttp://t.co/9kobxqkj42
p2834
asg27
g28
(S'\x07\xdf\t\x1d\x04&\n\x00\x00\x00'
tRp2835
sg30
Nsg31
Vcaracaleo
p2836
sa(dp2837
g3
(lp2838
Vwhen
p2839
aVyou're
p2840
aVsick
p2841
aVthere's
p2842
aVnothing
p2843
aVbetter
p2844
aVthan
p2845
aVhaving
p2846
aVa
aVdog
p2847
aVto
p2848
aVcomfort
p2849
aVyou
p2850
aV#dogsoftwitter
p2851
aV#whenyouresick
p2852
asg27
g28
(S'\x07\xdf\t\x1d\x04\x01\x0c\x00\x00\x00'
tRp2853
sg30
Nsg31
Vcaracaleo
p2854
sa(dp2855
g3
(lp2856
V"
aVgood
p2857
aVhistorians
p2858
aVkeep
p2859
aVthe
p2860
aVpast
p2861
aVin
p2862
aVtheir
p2863
aVhead
p2864
aVand
p2865
aVthe
p2866
aVfuture
p2867
aVin
p2868
aVtheir
p2869
aVheart
p2870
aV"
aV@robertjbennett
p2871
aV#cityofstairs
p2872
asg27
g28
(S'\x07\xdf\t\x1c\x17\x1a\x02\x00\x00\x00'
tRp2873
sg30
Nsg31
Vcaracaleo
p2874
sa(dp2875
g3
(lp2876
Vbright
p2877
aVlights
p2878
aVbig
p2879
aVcity
p2880
aVhttp://t.co/27kbt2yk5a
p2881
asg27
g28
(S'\x07\xdf\t\x1a\x04\x1d#\x00\x00\x00'
tRp2882
sg30
Nsg31
Vcaracaleo
p2883
sa(dp2884
g3
(lp2885
V@sarahpekdemir
p2886
aVsounds
p2887
aVgreat
p2888
aV!
asg27
g28
(S'\x07\xdf\t\x1a\x04\x1d\x1d\x00\x00\x00'
tRp2889
sg30
Nsg31
Vcaracaleo
p2890
sa(dp2891
g3
(lp2892
Vready
p2893
aVand
p2894
aVwaiting
p2895
aVfor
p2896
aV@acdc
p2897
aVat
p2898
aV@attparksf
p2899
aVhttp://t.co/lpyc4usgob
p2900
asg27
g28
(S'\x07\xdf\t\x1a\x02#\n\x00\x00\x00'
tRp2901
sg30
Nsg31
Vcaracaleo
p2902
sa(dp2903
g3
(lp2904
V#booklover
p2905
aVhttp://t.co/zqaaxqyklu
p2906
asg27
g28
(S"\x07\xdf\t\x17\x0f#'\x00\x00\x00"
tRp2907
sg30
Nsg31
Vcaracaleo
p2908
sa(dp2909
g3
(lp2910
Vrt
p2911
aV@girlscouts
p2912
aV:
aVcalling
p2913
aVall
p2914
aVteachers
p2915
aVand
p2916
aVparents
p2917
aV!
aVhere
p2918
aV\u2019
aVs
aVhow
p2919
aVyou
p2920
aVcan
p2921
aVget
p2922
aVyour
p2923
aVkids
p2924
aVmore
p2925
aVinvolved
p2926
aVin
p2927
aV#code
p2928
aV:
aVhttp://t.co/0squxf6pn9
p2929
asg27
g28
(S'\x07\xdf\t\x16\x107\x14\x00\x00\x00'
tRp2930
sg30
Nsg31
Vcaracaleo
p2931
sa(dp2932
g3
(lp2933
Vrt
p2934
aV@sfchronicle
p2935
aV:
aVif
p2936
aVyour
p2937
aVcar
p2938
aVisn't
p2939
aVgetting
p2940
aVbroken
p2941
aVinto
p2942
aVin
p2943
aV#sf
p2944
aV,
aVit's
p2945
aVgetting
p2946
aVstolen
p2947
aV.
aVvia
p2948
aV@joaquinpalomino
p2949
aVhttp://t.co/xxtzkvhar7
p2950
aVhttp://t.co
p2951
aV\u2026
asg27
g28
(S'\x07\xdf\t\x14\x05\x0b4\x00\x00\x00'
tRp2952
sg30
Nsg31
Vcaracaleo
p2953
sa(dp2954
g3
(lp2955
Vwhat
p2956
aVare
p2957
aVyou
p2958
aVgoing
p2959
aVto
p2960
aVbe
p2961
aVfor
p2962
aV#halloween
p2963
aV?
aV#trickortreat
p2964
asg27
g28
(S'\x07\xdf\t\x14\x02-6\x00\x00\x00'
tRp2965
sg30
Nsg31
Vcaracaleo
p2966
sa(dp2967
g3
(lp2968
Vrt
p2969
aV@drjaimefriedman
p2970
aV:
aVthis
p2971
aVyear's
p2972
aVflu
p2973
aVvaccine
p2974
aVshould
p2975
aVbe
p2976
aVbetter
p2977
aVmatch
p2978
aV:
aVcdc
p2979
aVhttp://t.co/logtrbcdo6
p2980
asg27
g28
(S'\x07\xdf\t\x13\x10;\t\x00\x00\x00'
tRp2981
sg30
Nsg31
Vcaracaleo
p2982
sa(dp2983
g3
(lp2984
V@kron4news
p2985
aV@lizzybethfisch
p2986
asg27
g28
(S'\x07\xdf\t\x13\x109\x0f\x00\x00\x00'
tRp2987
sg30
Nsg31
Vcaracaleo
p2988
sa(dp2989
g3
(lp2990
V@questnutrition
p2991
aVdo
p2992
aVall
p2993
aVof
p2994
aVyour
p2995
aVprotein
p2996
aVpowders
p2997
aVhave
p2998
aVdairy
p2999
aV?
asg27
g28
(S'\x07\xdf\t\x11\x14\x01,\x00\x00\x00'
tRp3000
sg30
Nsg31
Vcaracaleo
p3001
sa(dp3002
g3
(lp3003
Vrt
p3004
aV@labdoorapp
p3005
aV:
aVhow
p3006
aVdo
p3007
aV6
aVhealth
p3008
aVconditions
p3009
aVfinancially
p3010
aVimpact
p3011
aVall
p3012
aV50
p3013
aVstates
p3014
aV?
aVhttp://t.co/ymzp2xjsgv
p3015
asg27
g28
(S'\x07\xdf\t\x11\x12\x12\x15\x00\x00\x00'
tRp3016
sg30
Nsg31
Vcaracaleo
p3017
sa(dp3018
g3
(lp3019
Vi
aVtotally
p3020
aVcan't
p3021
aVorder
p3022
aVany
p3023
aVsupplements
p3024
aVwithout
p3025
aV@labdoorapp
p3026
aVnow
p3027
aV,
aVcan't
p3028
aVwait
p3029
aVfor
p3030
aVmore
p3031
aVto
p3032
aVbe
p3033
aVon
p3034
aVthere
p3035
aV!
asg27
g28
(S'\x07\xdf\t\x11\x11; \x00\x00\x00'
tRp3036
sg30
Nsg31
Vcaracaleo
p3037
sa(dp3038
g3
(lp3039
Vrt
p3040
aV@nbcbayarea
p3041
aV:
aVtsunami
p3042
aVadvisory
p3043
aVissued
p3044
aVfor
p3045
aVsouthern
p3046
aVand
p3047
aVcentral
p3048
aVcalifornia
p3049
aVcoastline
p3050
aVfollowing
p3051
aVchile
p3052
aVquake
p3053
aV.
aVhttp://t.co/nyardywg7d
p3054
aVhttp
p3055
aV:/
p3056
aV/
aV\u2026
asg27
g28
(S'\x07\xdf\t\x11\r!\x19\x00\x00\x00'
tRp3057
sg30
Nsg31
Vcaracaleo
p3058
sa(dp3059
g3
(lp3060
V#icymi
p3061
aVthe
p3062
aVnightmare
p3063
aVbefore
p3064
aVchristmas
p3065
aVis
p3066
aVon
p3067
aV@netflix
p3068
aV#christmascountdown
p3069
aV#halloweentime
p3070
asg27
g28
(S'\x07\xdf\t\x11\x03\x16\x15\x00\x00\x00'
tRp3071
sg30
Nsg31
Vcaracaleo
p3072
sa(dp3073
g3
(lp3074
Vwhen
p3075
aVit
p3076
aVrains
p3077
aVit
p3078
aVpours
p3079
aV:(
p3080
asg27
g28
(S'\x07\xdf\t\x10\x00!0\x00\x00\x00'
tRp3081
sg30
Nsg31
Vcaracaleo
p3082
sa(dp3083
g3
(lp3084
Vso
p3085
aVmuch
p3086
aVhas
p3087
aVchanged
p3088
aVat
p3089
aV#northgatemall
p3090
aVover
p3091
aVthe
p3092
aVyears
p3093
aV,
aVso
p3094
aVmany
p3095
aVmemories
p3096
aVof
p3097
aVgrowing
p3098
aVup
p3099
aVand
p3100
aVgoing
p3101
aVhere
p3102
aVhttp://t.co/1onb4htvml
p3103
asg27
g28
(S'\x07\xdf\t\x0e\x12\t6\x00\x00\x00'
tRp3104
sg30
Nsg31
Vcaracaleo
p3105
sa(dp3106
g3
(lp3107
Vwhat
p3108
aVare
p3109
aVthe
p3110
aVdifferences
p3111
aVbetween
p3112
aVnoonan
p3113
aVsyndrome
p3114
aV,
aVleopard
p3115
aVsyndrome
p3116
aVand
p3117
aVcostello
p3118
aVsyndrome
p3119
aV?
aVon
p3120
aV@kinsights
p3121
aVhttp://t.co/m9entyjx2d
p3122
asg27
g28
(S'\x07\xdf\t\n\x15\x00(\x00\x00\x00'
tRp3123
sg30
Nsg31
Vcaracaleo
p3124
sa(dp3125
g3
(lp3126
Vbolt
p3127
aVwirelessly
p3128
aVconnected
p3129
aVsmart
p3130
aVbulb
p3131
aV-
aVfrom
p3132
aVwearables
p3133
aVto
p3134
aVthe
p3135
aVconnected
p3136
aVhome
p3137
aV@misfit
p3138
aVhttp://t.co/gydsgmtegb
p3139
asg27
g28
(S'\x07\xdf\t\n\x13\x01\x0c\x00\x00\x00'
tRp3140
sg30
Nsg31
Vcaracaleo
p3141
sa(dp3142
g3
(lp3143
Vsan
p3144
aVfrancisco
p3145
aVshould
p3146
aValways
p3147
aVhave
p3148
aVa
aVsubway
p3149
aVunder
p3150
aVconstruction
p3151
aV\u2014
aVmedium
p3152
aVhttp://t.co/gazp3hxqhn
p3153
asg27
g28
(S'\x07\xdf\t\n\x10\x0f\x04\x00\x00\x00'
tRp3154
sg30
Nsg31
Vcaracaleo
p3155
sa(dp3156
g3
(lp3157
V100,000
p3158
aVpeople
p3159
aVflee
p3160
aVhomes
p3161
aVas
p3162
aV"
aVunprecedented
p3163
aV"
aVfloods
p3164
aVhit
p3165
aVjapan
p3166
aVhttp://t.co/w7zfc6gzg6
p3167
aVhttp://t.co/gjptxtlonl
p3168
asg27
g28
(S'\x07\xdf\t\n\x0f8\x0f\x00\x00\x00'
tRp3169
sg30
Nsg31
Vcaracaleo
p3170
sa(dp3171
g3
(lp3172
Vrt
p3173
aV@myfamilybuilder
p3174
aV:
aVhow
p3175
aVdo
p3176
aVtoys
p3177
aVinfluence
p3178
aVa
aVchild
p3179
aV\u2019
aVs
aVperception
p3180
aVand
p3181
aVunderstanding
p3182
aVof
p3183
aVthe
p3184
aVworld
p3185
aV?
aVq
aV&
aVamp
p3186
aV;
aVa
aVtarah
p3187
aVfleming
p3188
aVhttp://t.co/29jeewtbsm
p3189
aVht
p3190
aV\u2026
asg27
g28
(S'\x07\xdf\t\n\r(\x07\x00\x00\x00'
tRp3191
sg30
Nsg31
Vcaracaleo
p3192
sa(dp3193
g3
(lp3194
Vbe
p3195
aVthe
p3196
aVperson
p3197
aVyour
p3198
aVdog
p3199
aVthinks
p3200
aVyou
p3201
aVare
p3202
aV.
asg27
g28
(S'\x07\xdf\t\t\x04\x1c-\x00\x00\x00'
tRp3203
sg30
Nsg31
Vcaracaleo
p3204
sa(dp3205
g3
(lp3206
V20
p3207
aVslow
p3208
aVcooker
p3209
aVmeals
p3210
aVfor
p3211
aVfamilies
p3212
aVon
p3213
aV@kinsights
p3214
aVhttp://t.co/wahkq4fhek
p3215
aVhttp://t.co/3l9soap4nk
p3216
asg27
g28
(S'\x07\xdf\t\x08\x13\x005\x00\x00\x00'
tRp3217
sg30
Nsg31
Vcaracaleo
p3218
sa(dp3219
g3
(lp3220
Vtoday
p3221
aVin
p3222
aVthe
p3223
aVgrocery
p3224
aVstore
p3225
aVthere
p3226
aVwas
p3227
aVa
aVman
p3228
aVsinging
p3229
aV"
aVwe
p3230
aVwish
p3231
aVyou
p3232
aVa
aVmerry
p3233
aVchristmas
p3234
aV,
aV"
aVa
aVman
p3235
aVafter
p3236
aVmy
p3237
aVown
p3238
aVheart
p3239
aV.
asg27
g28
(S'\x07\xdf\t\x07\x03\x18\x1c\x00\x00\x00'
tRp3240
sg30
Nsg31
Vcaracaleo
p3241
sa(dp3242
g3
(lp3243
V"
aVtime
p3244
aVrenders
p3245
aVall
p3246
aVpeople
p3247
aVand
p3248
aVall
p3249
aVthings
p3250
aVsilent
p3251
aV.
aVand
p3252
aVgods
p3253
aV,
aVit
p3254
aVseems
p3255
aV,
aVare
p3256
aVno
p3257
aVexception
p3258
aV"
aV#cityofstairs
p3259
aV@robertjbennett
p3260
asg27
g28
(S'\x07\xdf\t\x06\x04)\x17\x00\x00\x00'
tRp3261
sg30
Nsg31
Vcaracaleo
p3262
sa(dp3263
g3
(lp3264
Vrt
p3265
aV@ucsf
p3266
aV:
aVfirst
p3267
aVhuman
p3268
aVprion
p3269
aVdisease
p3270
aVin
p3271
aV50
p3272
aVyears
p3273
aVidentified
p3274
aVby
p3275
aVucsf
p3276
aVscientists
p3277
aV.
aV#science
p3278
aV#neuro
p3279
aVhttp://t.co/ohq9stoxzo
p3280
aVhttp://t.co/keqbtjitth
p3281
asg27
g28
(S'\x07\xdf\t\x05\x05\x0e\x07\x00\x00\x00'
tRp3282
sg30
Nsg31
Vcaracaleo
p3283
sa(dp3284
g3
(lp3285
Vrt
p3286
aV@shakeout
p3287
aV:
aVthis
p3288
aV#labordayweekend
p3289
aV,
aVteach
p3290
aVa
aVfew
p3291
aVfamily
p3292
aVmembers
p3293
aVor
p3294
aVfriends
p3295
aVhow
p3296
aVto
p3297
aVstay
p3298
aVsafe
p3299
aVduring
p3300
aVearthquakes
p3301
aV:
aVhttps://t.co/avllbdjniu
p3302
aV#sh
p3303
aV\u2026
asg27
g28
(S'\x07\xdf\t\x05\x01&,\x00\x00\x00'
tRp3304
sg30
Nsg31
Vcaracaleo
p3305
sa(dp3306
g3
(lp3307
Vlactose
p3308
aVintolerance
p3309
aV&
aVamp
p3310
aV;
aVgenetics
p3311
aV:
aVare
p3312
aVthey
p3313
aVrelated
p3314
aV?
aVhttp://t.co/5breqlubmo
p3315
asg27
g28
(S'\x07\xdf\t\x04\x01\x03\x04\x00\x00\x00'
tRp3316
sg30
Nsg31
Vcaracaleo
p3317
sa(dp3318
g3
(lp3319
V@neilflochmd
p3320
aVi
aVwould
p3321
aVlove
p3322
aVto
p3323
aVsee
p3324
aVa
aVcomparison
p3325
aVwith
p3326
aVother
p3327
aVcountries
p3328
asg27
g28
(S"\x07\xdf\t\x03\x04:'\x00\x00\x00"
tRp3329
sg30
Nsg31
Vcaracaleo
p3330
sa(dp3331
g3
(lp3332
Vrt
p3333
aV@earthquakessf
p3334
aV:
aVa
aV1.2
p3335
aVmagnitude
p3336
aVearthquake
p3337
aVoccurred
p3338
aVin
p3339
aVsan
p3340
aVfrancisco
p3341
aVbay
p3342
aVarea
p3343
aV,
aVcalifornia
p3344
aV.
aVdetails
p3345
aV:
aVhttp://t.co/dtxbjkdtmn
p3346
aVmap
p3347
aV:
aVhttp://t
p3348
aV\u2026
asg27
g28
(S'\x07\xdf\t\x03\x048-\x00\x00\x00'
tRp3349
sg30
Nsg31
Vcaracaleo
p3350
sa(dp3351
g3
(lp3352
V\u201c
aVin
p3353
aV1975
p3354
aVworking
p3355
aVmothers
p3356
aVspent
p3357
aVjust
p3358
aV8
aVto
p3359
aV21
p3360
aVminutes
p3361
aVon
p3362
aVchildcare
p3363
aV.
aV\u201d
aVthis
p3364
aVhas
p3365
aVdramatically
p3366
aVchanged
p3367
aVhttp://t.co/1h113z9ntn
p3368
asg27
g28
(S'\x07\xdf\t\x02\x15\x1e\t\x00\x00\x00'
tRp3369
sg30
Nsg31
Vcaracaleo
p3370
sa.