(lp1
(dp2
S'text'
p3
(lp4
Vrt
p5
aV@savagehumor
p6
aV:
aVwhen
p7
aVi
aVsee
p8
aVa
aVsubtweet
p9
aVhttps://t.co/puhvk7jzpq
p10
asS'created_at'
p11
cdatetime
datetime
p12
(S'\x07\xe0\x01\x18\x0c\x00\x0c\x00\x00\x00'
tRp13
sS'lat/long'
p14
NsS'name'
p15
VGlitteryAnimal
p16
sa(dp17
g3
(lp18
Vhello
p19
aVwelcome
p20
aVto
p21
aVthe
p22
aV4
aVam
p23
aVovernight
p24
aVshift
p25
aVterror
p26
aVhour
p27
asg11
g12
(S'\x07\xe0\x01\x18\x0b:\x08\x00\x00\x00'
tRp28
sg14
Nsg15
VGlitteryAnimal
p29
sa(dp30
g3
(lp31
V@chairmanofspace
p32
aVmetal
p33
aVas
p34
aVfuck
p35
asg11
g12
(S'\x07\xe0\x01\x18\x0b8\x0f\x00\x00\x00'
tRp36
sg14
Nsg15
VGlitteryAnimal
p37
sa(dp38
g3
(lp39
Vrt
p40
aV@chairmanofspace
p41
aV:
aVimportant
p42
aVdating
p43
aVtip
p44
aV:
aVdate
p45
aVpeople
p46
aVwho
p47
aVuse
p48
aVthe
p49
aVsame
p50
aVkind
p51
aVof
p52
aVphone
p53
aVcharger
p54
aVas
p55
aVyou
p56
aV#lifehacks
p57
asg11
g12
(S'\x07\xe0\x01\x18\x0b75\x00\x00\x00'
tRp58
sg14
Nsg15
VGlitteryAnimal
p59
sa(dp60
g3
(lp61
Vrt
p62
aV@choplogik
p63
aV:
aVthis
p64
aVice
p65
aVcream
p66
aVparlour
p67
aVhad
p68
aVa
aVmenu
p69
aVitem
p70
aVjust
p71
aVnamed
p72
aV"
aVclown
p73
aV"
aV,
aVand
p74
aVhttp://t.co/dssu8nrfbn
p75
asg11
g12
(S'\x07\xe0\x01\x18\x0b7\x13\x00\x00\x00'
tRp76
sg14
Nsg15
VGlitteryAnimal
p77
sa(dp78
g3
(lp79
Vrt
p80
aV@lubchansky
p81
aV:
aVok
p82
aVsee
p83
aVeveryone
p84
aVin
p85
aVliterally
p86
aVhell
p87
aVhttps://t.co/emcheh0ute
p88
asg11
g12
(S'\x07\xe0\x01\x18\x0b7\x01\x00\x00\x00'
tRp89
sg14
Nsg15
VGlitteryAnimal
p90
sa(dp91
g3
(lp92
Vshout
p93
aVout
p94
aVto
p95
aV@shiba_thang
p96
aVfor
p97
aVreminding
p98
aVme
p99
aVthat
p100
aVvore
p101
aVis
p102
aVa
aVthing
p103
asg11
g12
(S'\x07\xe0\x01\x17\x17\x03)\x00\x00\x00'
tRp104
sg14
Nsg15
VGlitteryAnimal
p105
sa(dp106
g3
(lp107
Vrt
p108
aV@mcr_oldpics
p109
aV:
aVhttps://t.co/4wdydmfnvq
p110
asg11
g12
(S"\x07\xe0\x01\x17\x16'9\x00\x00\x00"
tRp111
sg14
Nsg15
VGlitteryAnimal
p112
sa(dp113
g3
(lp114
V@noitsisabel
p115
aVnah
p116
aVthos
p117
aVare
p118
aVemo
p119
aVdad
p120
aVlooks
p121
asg11
g12
(S"\x07\xe0\x01\x17\x16'1\x00\x00\x00"
tRp122
sg14
Nsg15
VGlitteryAnimal
p123
sa(dp124
g3
(lp125
Vrt
p126
aV@sassywars
p127
aV:
aVwhen
p128
aVkylo
p129
aVren
p130
aVand
p131
aVhan
p132
aVsolo
p133
aVsee
p134
aVeach
p135
aVother
p136
aVin
p137
aVpublic
p138
aVhttps://t.co/i0jhxvnm2c
p139
asg11
g12
(S"\x07\xe0\x01\x17\x16'\x1b\x00\x00\x00"
tRp140
sg14
Nsg15
VGlitteryAnimal
p141
sa(dp142
g3
(lp143
Vrt
p144
aV@mikeyway
p145
aV:
aVray
p146
aVtoro
p147
aVjust
p148
aVhanded
p149
aVme
p150
aVmy
p151
aVass
p152
aVin
p153
aVstreet
p154
aVfighter
p155
aVonline
p156
aV.
asg11
g12
(S'\x07\xe0\x01\x17\x16&%\x00\x00\x00'
tRp157
sg14
Nsg15
VGlitteryAnimal
p158
sa(dp159
g3
(lp160
Vrt
p161
aV@frankiero
p162
aV:
aVhey
p163
aVso
p164
aVnot
p165
aVto
p166
aVbe
p167
aVa
aVdick
p168
aV,
aVbut
p169
aVif
p170
aVsomeone
p171
aVdoesn't
p172
aVupdate
p173
aVmy
p174
aVwikipedia
p175
aVpage
p176
aVwith
p177
aVthis
p178
aVbest
p179
aVdad
p180
aVever
p181
aV!
aVtitle
p182
aVi'm
p183
aVgonna
p184
aVbe
p185
aVsuper
p186
aVf
aV\u2026
asg11
g12
(S'\x07\xe0\x01\x17\x16&\x1b\x00\x00\x00'
tRp187
sg14
Nsg15
VGlitteryAnimal
p188
sa(dp189
g3
(lp190
Vdutch
p191
aVangel
p192
aVdragon
p193
aVhttps://t.co/7ajgfrumqf
p194
asg11
g12
(S'\x07\xe0\x01\x17\x16&\x05\x00\x00\x00'
tRp195
sg14
Nsg15
VGlitteryAnimal
p196
sa(dp197
g3
(lp198
V@chairmanofspace
p199
aVi
aVneed
p200
aVto
p201
aVgo
p202
aVhome
p203
aVand
p204
aVsleep
p205
aVfor
p206
aVa
aVbit
p207
aVbut
p208
aVlet's
p209
aVtouch
p210
aVbase
p211
aVwhen
p212
aVi
aVwake
p213
aVup
p214
asg11
g12
(S'\x07\xe0\x01\x17\x16\x1e7\x00\x00\x00'
tRp215
sg14
Nsg15
VGlitteryAnimal
p216
sa(dp217
g3
(lp218
Vrt
p219
aV@historyinflicks
p220
aV:
aVsorry
p221
aVi
aVwas
p222
aVlate
p223
aVfor
p224
aVwork
p225
aV,
aVi
aVgot
p226
aVsidetracked
p227
aVhttps://t.co/oyy2boheay
p228
asg11
g12
(S'\x07\xe0\x01\x17\x16\n\x16\x00\x00\x00'
tRp229
sg14
Nsg15
VGlitteryAnimal
p230
sa(dp231
g3
(lp232
Vbless
p233
aVthis
p234
aVplace
p235
aVhttps://t.co/qmvfifdw6v
p236
asg11
g12
(S'\x07\xe0\x01\x17\x157\x06\x00\x00\x00'
tRp237
sg14
Nsg15
VGlitteryAnimal
p238
sa(dp239
g3
(lp240
V@chairmanofspace
p241
aVlets
p242
aVchat
p243
aVabout
p244
aVthis
p245
aVsoon
p246
asg11
g12
(S'\x07\xe0\x01\x17\x13\x12\x08\x00\x00\x00'
tRp247
sg14
Nsg15
VGlitteryAnimal
p248
sa(dp249
g3
(lp250
V@chairmanofspace
p251
aVwe
p252
aVshould
p253
aVtalk
p254
aVabout
p255
aVthis
p256
aVat
p257
aVsome
p258
aVpoint
p259
aVin
p260
aVthe
p261
aVnext
p262
aVfew
p263
aVdays
p264
asg11
g12
(S'\x07\xe0\x01\x17\x13\x06\t\x00\x00\x00'
tRp265
sg14
Nsg15
VGlitteryAnimal
p266
sa(dp267
g3
(lp268
V@chairmanofspace
p269
aV!
aV!
aV!
aV!
aV!
aV!
aV!
asg11
g12
(S'\x07\xe0\x01\x17\x13\x05*\x00\x00\x00'
tRp270
sg14
Nsg15
VGlitteryAnimal
p271
sa(dp272
g3
(lp273
Vrt
p274
aV@babycastles
p275
aV:
aVwe
p276
aVnow
p277
aVhave
p278
aVa
aV@patreon
p279
aVto
p280
aVhelp
p281
aVfund
p282
aVfuture
p283
aVexhibitions
p284
aV!
aVhttps://t.co/9vzqkj4zf3
p285
aVwe
p286
aVcan't
p287
aVwait
p288
aVto
p289
aVbring
p290
aVyou
p291
aVsome
p292
aVamazing
p293
aV\u2026
asg11
g12
(S'\x07\xe0\x01\x17\x13\x049\x00\x00\x00'
tRp294
sg14
Nsg15
VGlitteryAnimal
p295
sa(dp296
g3
(lp297
Vi
aVhave
p298
aVa
aVlot
p299
aVof
p300
aVobjects
p301
aVwith
p302
aVreally
p303
aVheavy
p304
aVi've
p305
aVbeen
p306
aVmeaning
p307
aVto
p308
aVuse
p309
aVin
p310
aVart
p311
aVand
p312
aVit's
p313
aVcoming
p314
aVfrom
p315
aVto
p316
aVa
aVhead
p317
asg11
g12
(S'\x07\xe0\x01\x17\x12;0\x00\x00\x00'
tRp318
sg14
Nsg15
VGlitteryAnimal
p319
sa(dp320
g3
(lp321
Vi
aVwill
p322
aVlikely
p323
aVkeep
p324
aVtweeting
p325
aVabout
p326
aVit
p327
aVuntil
p328
aVsomeone
p329
aVgives
p330
aVme
p331
aVa
aVhint
p332
asg11
g12
(S'\x07\xe0\x01\x17\x11:2\x00\x00\x00'
tRp333
sg14
Nsg15
VGlitteryAnimal
p334
sa(dp335
g3
(lp336
Vor
p337
aVwho
p338
aVto
p339
aVcontact
p340
aVor
p341
aVhow
p342
aVyou
p343
aVgo
p344
aVabout
p345
aVsuch
p346
aVa
aVthing
p347
asg11
g12
(S'\x07\xe0\x01\x17\x11:\x13\x00\x00\x00'
tRp348
sg14
Nsg15
VGlitteryAnimal
p349
sa(dp350
g3
(lp351
Vi
aVhave
p352
aVsome
p353
aVserious
p354
aVideas
p355
aVfor
p356
aVan
p357
aVart
p358
aVinstallation
p359
aV/
aVgallery
p360
aVshow
p361
aVabt
p362
aVmental
p363
aVhealth
p364
aV&
aVamp
p365
aV;
aVwitchcraft
p366
aV,
aVi
aVhave
p367
aVno
p368
aVidea
p369
aVwhere
p370
aVto
p371
aVstart
p372
aVwith
p373
aVthis
p374
asg11
g12
(S'\x07\xe0\x01\x17\x1187\x00\x00\x00'
tRp375
sg14
Nsg15
VGlitteryAnimal
p376
sa(dp377
g3
(lp378
Vi
aVwonder
p379
aVif
p380
aVi
aVwill
p381
aVever
p382
aVever
p383
aVgrow
p384
aVout
p385
aVof
p386
aVthe
p387
aVwhole
p388
aVrecurring
p389
aVdreams
p390
aVof
p391
aVdifferent
p392
aVfamily
p393
aVmembers
p394
aVmurdering
p395
aVme
p396
aVthing
p397
asg11
g12
(S'\x07\xe0\x01\x17\x115\x0c\x00\x00\x00'
tRp398
sg14
Nsg15
VGlitteryAnimal
p399
sa(dp400
g3
(lp401
V@chairmanofspace
p402
aVyours
p403
aVsounds
p404
aVawful
p405
aVbut
p406
aVat
p407
aVleast
p408
aVkind
p409
aVof
p410
aVcyberpunk
p411
aV?
aVmy
p412
aVnightmare
p413
aVwas
p414
aVmy
p415
aVbrother
p416
aVtrying
p417
aVto
p418
aVmurder
p419
aVme
p420
aV.
asg11
g12
(S'\x07\xe0\x01\x17\x114\x15\x00\x00\x00'
tRp421
sg14
Nsg15
VGlitteryAnimal
p422
sa(dp423
g3
(lp424
V#emosruineverything
p425
aVhttps://t.co/pa3t13wmrj
p426
asg11
g12
(S"\x07\xe0\x01\x17\x112'\x00\x00\x00"
tRp427
sg14
Nsg15
VGlitteryAnimal
p428
sa(dp429
g3
(lp430
Vrt
p431
aV@gamingclanclan
p432
aV:
aVwhy
p433
aV?
aV?
aV@glitteryanimal
p434
aVhttps://t.co/oui9mimcfi
p435
asg11
g12
(S'\x07\xe0\x01\x17\x112\x08\x00\x00\x00'
tRp436
sg14
Nsg15
VGlitteryAnimal
p437
sa(dp438
g3
(lp439
V@shiba_thang
p440
aValso
p441
aVit
p442
aVmight
p443
aVbe
p444
asg11
g12
(S'\x07\xe0\x01\x17\x111\x05\x00\x00\x00'
tRp445
sg14
Nsg15
VGlitteryAnimal
p446
sa(dp447
g3
(lp448
V@shiba_thang
p449
aVcan
p450
aVi
aVmanually
p451
aVrt
p452
aVthis
p453
asg11
g12
(S'\x07\xe0\x01\x17\x1106\x00\x00\x00'
tRp454
sg14
Nsg15
VGlitteryAnimal
p455
sa(dp456
g3
(lp457
Vtw
p458
aV:
aVvomit
p459
aVtypical
p460
aVxandir
p461
aVhttps://t.co/aepguwye3w
p462
asg11
g12
(S'\x07\xe0\x01\x17\x110 \x00\x00\x00'
tRp463
sg14
Nsg15
VGlitteryAnimal
p464
sa(dp465
g3
(lp466
Vpadded
p467
aVassed
p468
aVelevator
p469
aVis
p470
aVcreepy
p471
aVas
p472
aVfuck
p473
aVhttps://t.co/t3nmv1ig31
p474
asg11
g12
(S'\x07\xe0\x01\x17\x10:#\x00\x00\x00'
tRp475
sg14
Nsg15
VGlitteryAnimal
p476
sa(dp477
g3
(lp478
V#thisprobablyshouldntbelegal
p479
asg11
g12
(S'\x07\xe0\x01\x17\x106\x17\x00\x00\x00'
tRp480
sg14
Nsg15
VGlitteryAnimal
p481
sa(dp482
g3
(lp483
Vhi
p484
aVgood
p485
aVmorning
p486
aVi'm
p487
aVworking
p488
aVa
aV4
aVhour
p489
aVmorning
p490
aVshift
p491
aVand
p492
aVthen
p493
aVlater
p494
aVi'm
p495
aVworking
p496
aVan
p497
aV11
p498
aVhr
p499
aVovernight
p500
aV\u309e
aV(
aV\u2182
aV\u03c9
aV\u2182
aV)
aV\u309e
asg11
g12
(S'\x07\xe0\x01\x17\x104+\x00\x00\x00'
tRp501
sg14
Nsg15
VGlitteryAnimal
p502
sa(dp503
g3
(lp504
Vrt
p505
aV@keshyart
p506
aV:
aVhttps://t.co/nd5cff8bsn
p507
asg11
g12
(S'\x07\xe0\x01\x17\x101\x14\x00\x00\x00'
tRp508
sg14
Nsg15
VGlitteryAnimal
p509
sa(dp510
g3
(lp511
Vrt
p512
aV@awwadorabie
p513
aV:
aVa
aVvery
p514
aVhappy
p515
aVbulldog
p516
aV\U0001f60d
aVhttps://t.co/3xelrqgcan
p517
asg11
g12
(S'\x07\xe0\x01\x17\x101\x04\x00\x00\x00'
tRp518
sg14
Nsg15
VGlitteryAnimal
p519
sa(dp520
g3
(lp521
Vrt
p522
aV@petewentz
p523
aV:
aVi
aVrealized
p524
aVfob
p525
aVwasn't
p526
aVemo
p527
aVor
p528
aVpoppunk
p529
aVfrom
p530
aVwhat
p531
aVeveryone
p532
aVtells
p533
aVme
p534
aV"
aVinfinity
p535
aVon
p536
aVhigh
p537
aV"
aVwas
p538
aVgood
p539
aVworkout
p540
aVmusic
p541
aV.
aVthat's
p542
aVour
p543
aVdemog
p544
aV\u2026
asg11
g12
(S'\x07\xe0\x01\x17\x100!\x00\x00\x00'
tRp545
sg14
Nsg15
VGlitteryAnimal
p546
sa(dp547
g3
(lp548
Vyeah
p549
aVnope
p550
aVi
aVtotally
p551
aVhad
p552
aVawful
p553
aVnightmares
p554
asg11
g12
(S'\x07\xe0\x01\x17\t\x081\x00\x00\x00'
tRp555
sg14
Nsg15
VGlitteryAnimal
p556
sa(dp557
g3
(lp558
V@chairmanofspace
p559
aVnoooooo
p560
asg11
g12
(S'\x07\xe0\x01\x17\t\x05,\x00\x00\x00'
tRp561
sg14
Nsg15
VGlitteryAnimal
p562
sa(dp563
g3
(lp564
Vtomorrow
p565
aVi
aVshould
p566
aVtweet
p567
aVabout
p568
aVall
p569
aVof
p570
aVthe
p571
aVweird
p572
aVcursed
p573
aVassed
p574
aVobjects
p575
aVthat
p576
aVi
aVfound
p577
aVin
p578
aVmy
p579
aVroom
p580
aVtoday
p581
asg11
g12
(S"\x07\xe0\x01\x17\x05\x12'\x00\x00\x00"
tRp582
sg14
Nsg15
VGlitteryAnimal
p583
sa(dp584
g3
(lp585
Vtoo
p586
aVbroken
p587
asg11
g12
(S'\x07\xe0\x01\x17\x05\x118\x00\x00\x00'
tRp588
sg14
Nsg15
VGlitteryAnimal
p589
sa(dp590
g3
(lp591
Vi'm
p592
aVtoo
p593
aVtired
p594
aVfor
p595
aVwitchcraft
p596
asg11
g12
(S'\x07\xe0\x01\x17\x05\x11&\x00\x00\x00'
tRp597
sg14
Nsg15
VGlitteryAnimal
p598
sa(dp599
g3
(lp600
Vlordt
p601
aVgive
p602
aVme
p603
aVthe
p604
aVspells
p605
aVfor
p606
aVmy
p607
aVdreams
p608
aVthat
p609
aVdoesn't
p610
aVinvolve
p611
aVfifth
p612
aVthe
p613
aVingredients
p614
aVthat
p615
aVare
p616
aVexpensive
p617
aVthat
p618
aVi
aVdon't
p619
aVhave
p620
asg11
g12
(S'\x07\xe0\x01\x17\x05\x11\x10\x00\x00\x00'
tRp621
sg14
Nsg15
VGlitteryAnimal
p622
sa(dp623
g3
(lp624
Vhttps://t.co/1r9z5cpmms
p625
asg11
g12
(S'\x07\xe0\x01\x17\x05\x0e\x16\x00\x00\x00'
tRp626
sg14
Nsg15
VGlitteryAnimal
p627
sa(dp628
g3
(lp629
Vthis
p630
aVis
p631
aVgood
p632
aVcontent
p633
aVhttps://t.co/iypey18nrt
p634
asg11
g12
(S'\x07\xe0\x01\x17\x05\x0c\x04\x00\x00\x00'
tRp635
sg14
Nsg15
VGlitteryAnimal
p636
sa(dp637
g3
(lp638
Vbecause
p639
aVeverything
p640
aVwas
p641
aVhurting
p642
aVand
p643
aVi
aVhad
p644
aVto
p645
aVtake
p646
aVdrugs
p647
asg11
g12
(S'\x07\xe0\x01\x17\x05\x0b\x00\x00\x00\x00'
tRp648
sg14
Nsg15
VGlitteryAnimal
p649
sa(dp650
g3
(lp651
Vi'm
p652
aVusing
p653
aVvoice
p654
aVdictation
p655
aVbecause
p656
aVi
aVcan't
p657
aVtype
p658
aVshit
p659
aVright
p660
aVnow
p661
asg11
g12
(S'\x07\xe0\x01\x17\x05\n!\x00\x00\x00'
tRp662
sg14
Nsg15
VGlitteryAnimal
p663
sa(dp664
g3
(lp665
Vok
p666
aVhttps://t.co/hke3suvrap
p667
asg11
g12
(S'\x07\xe0\x01\x17\x04!\x0f\x00\x00\x00'
tRp668
sg14
Nsg15
VGlitteryAnimal
p669
sa(dp670
g3
(lp671
V@kevspace
p672
aV@chairmanofspace
p673
aVlil
p674
aVbappy
p675
aVpaws
p676
aVhttps://t.co/vrxgk5b0ut
p677
asg11
g12
(S'\x07\xe0\x01\x17\x04\x02+\x00\x00\x00'
tRp678
sg14
Nsg15
VGlitteryAnimal
p679
sa(dp680
g3
(lp681
Vme
p682
aVand
p683
aV@noitsisabel
p684
aVdiscovered
p685
aVthat
p686
aV@tylerrjoseph
p687
aVlooks
p688
aVjust
p689
aVlike
p690
aVthat
p691
aVone
p692
aVpicture
p693
aVday
p694
aVkid
p695
aVhttps://t.co/wn61pbiwfs
p696
asg11
g12
(S'\x07\xe0\x01\x17\x03#\x15\x00\x00\x00'
tRp697
sg14
Nsg15
VGlitteryAnimal
p698
sa(dp699
g3
(lp700
Vrt
p701
aV@wow_bastille
p702
aV:
aVin
p703
aVloving
p704
aVmemory
p705
aVof
p706
aVryan
p707
aVross
p708
aV.
aVhe's
p709
aVnot
p710
aVdead
p711
aVbut
p712
aVno
p713
aVone
p714
aVknows
p715
aVwhere
p716
aVthe
p717
aVhell
p718
aVhe
p719
aVis
p720
aVhttps://t.co/qcfcsbkyyc
p721
asg11
g12
(S'\x07\xe0\x01\x17\x01&\x0b\x00\x00\x00'
tRp722
sg14
Nsg15
VGlitteryAnimal
p723
sa(dp724
g3
(lp725
Vrt
p726
aV@musicsaesthetic
p727
aV:
aVmillions
p728
aV-
aVgerard
p729
aVway
p730
aV(
aVoct
p731
aV11
p732
aV2014
p733
aV)
aVhttps://t.co/klaeggaauc
p734
asg11
g12
(S'\x07\xe0\x01\x17\x01$2\x00\x00\x00'
tRp735
sg14
Nsg15
VGlitteryAnimal
p736
sa(dp737
g3
(lp738
Vrt
p739
aV@dreamfeel98
p740
aV:
aVlife
p741
aVmotto
p742
aV:
aVjust
p743
aVgo
p744
aV2
aVsleep
p745
asg11
g12
(S'\x07\xe0\x01\x17\x01$\x1a\x00\x00\x00'
tRp746
sg14
Nsg15
VGlitteryAnimal
p747
sa(dp748
g3
(lp749
Vrt
p750
aV@suxting
p751
aV:
aVi
aVwant
p752
aVus
p753
aVto
p754
aVexplode
p755
aVeach
p756
aVother's
p757
aVbodies
p758
aV.
asg11
g12
(S'\x07\xe0\x01\x16\x17\x1d-\x00\x00\x00'
tRp759
sg14
Nsg15
VGlitteryAnimal
p760
sa(dp761
g3
(lp762
Vrt
p763
aV@grottocreations
p764
aV:
aVjust
p765
aVlisted
p766
aVmy
p767
aVbigger
p768
aVart
p769
aVdolls
p770
aV!
aVi'd
p771
aVlove
p772
aVto
p773
aVsee
p774
aVthese
p775
aVsell
p776
aVso
p777
aVi
aVcan
p778
aVmake
p779
aVmore
p780
aVfor
p781
aV#blfc
p782
aVhttps://t.co/s32mbdibtx
p783
aVhttps
p784
aV\u2026
asg11
g12
(S'\x07\xe0\x01\x16\x17\x182\x00\x00\x00'
tRp785
sg14
Nsg15
VGlitteryAnimal
p786
sa(dp787
g3
(lp788
Vrt
p789
aV@nightvaleradio
p790
aV:
aVwanna
p791
aVfeel
p792
aVold
p793
aV?
aVmake
p794
aVcomparative
p795
aVjudgments
p796
aVbased
p797
aVon
p798
aVhow
p799
aVlong
p800
aVyou
p801
aV\u2019
aVve
p802
aVbeen
p803
aValive
p804
aVversus
p805
aVhow
p806
aVlong
p807
aVyounger
p808
aVpeople
p809
aVhave
p810
aVbeen
p811
aV\u2026
asg11
g12
(S'\x07\xe0\x01\x16\x17\x18"\x00\x00\x00'
tRp812
sg14
Nsg15
VGlitteryAnimal
p813
sa(dp814
g3
(lp815
Vrt
p816
aV@smolartbabe
p817
aV:
aVwelcome
p818
aVto
p819
aVart
p820
aVschool
p821
aVwe're
p822
aVall
p823
aVqueer
p824
aVand
p825
aVmiserable
p826
asg11
g12
(S'\x07\xe0\x01\x16\x17\x178\x00\x00\x00'
tRp827
sg14
Nsg15
VGlitteryAnimal
p828
sa(dp829
g3
(lp830
Veven
p831
aVthis
p832
aVbox
p833
aVof
p834
aVsaltines
p835
aVis
p836
aVtry's
p837
aVget
p838
aVme
p839
aVcursed
p840
aVhttps://t.co/ralbxajdqj
p841
asg11
g12
(S'\x07\xe0\x01\x16\x17\x17\t\x00\x00\x00'
tRp842
sg14
Nsg15
VGlitteryAnimal
p843
sa(dp844
g3
(lp845
Vy'all
p846
aVi
aVam
p847
aVfinding
p848
aVsome
p849
aVcursed
p850
aVassed
p851
aVshit
p852
aVin
p853
aVmy
p854
aVroom
p855
aV.
asg11
g12
(S"\x07\xe0\x01\x16\x16\x1d'\x00\x00\x00"
tRp856
sg14
Nsg15
VGlitteryAnimal
p857
sa(dp858
g3
(lp859
Vrt
p860
aV@shitwaffle
p861
aV:
aV@glitteryanimal
p862
aV(
aV(
aV(
aV(
aV(
aVgood
p863
aVvibes
p864
aV)
aV)
aV)
aV)
aV)
asg11
g12
(S'\x07\xe0\x01\x16\x16\x1c\x1c\x00\x00\x00'
tRp865
sg14
Nsg15
VGlitteryAnimal
p866
sa(dp867
g3
(lp868
Vrt
p869
aV@chairmanofspace
p870
aV:
aV@glitteryanimal
p871
aVhttps://t.co/vifc49bj1p
p872
asg11
g12
(S'\x07\xe0\x01\x16\x16\x1c\x0c\x00\x00\x00'
tRp873
sg14
Nsg15
VGlitteryAnimal
p874
sa(dp875
g3
(lp876
V@chairmanofspace
p877
aVthis
p878
aVis
p879
aVgr8
p880
aVgood
p881
aVjob
p882
asg11
g12
(S'\x07\xe0\x01\x16\x16\x1c\t\x00\x00\x00'
tRp883
sg14
Nsg15
VGlitteryAnimal
p884
sa(dp885
g3
(lp886
Vrt
p887
aV@chairmanofspace
p888
aV:
aV@glitteryanimal
p889
aVhttps://t.co/o5xjxl54g1
p890
asg11
g12
(S'\x07\xe0\x01\x16\x16\x1b9\x00\x00\x00'
tRp891
sg14
Nsg15
VGlitteryAnimal
p892
sa(dp893
g3
(lp894
V@chairmanofspace
p895
aVomfg
p896
aV&
aVlt
p897
aV;
aV3
asg11
g12
(S'\x07\xe0\x01\x16\x16\x1b.\x00\x00\x00'
tRp898
sg14
Nsg15
VGlitteryAnimal
p899
sa(dp900
g3
(lp901
V@adookable
p902
aVlikewise
p903
aV!
aVwe're
p904
aVboth
p905
aVpowerful
p906
aVwitches
p907
aVand
p908
aVour
p909
aVspaces
p910
aVare
p911
aVgonna
p912
aVbe
p913
aVso
p914
aVmuch
p915
aVbetter
p916
aVafter
p917
aVthis
p918
aV.
aV&
aVlt
p919
aV;
aV3
asg11
g12
(S'\x07\xe0\x01\x16\x16\x08\x10\x00\x00\x00'
tRp920
sg14
Nsg15
VGlitteryAnimal
p921
sa(dp922
g3
(lp923
Vif
p924
aVyou
p925
aVhave
p926
aVsome
p927
aVgood
p928
aVvibes
p929
aVto
p930
aVsend
p931
aVme
p932
aVright
p933
aVnow
p934
aV,
aVnow
p935
aVis
p936
aVthe
p937
aVtime
p938
asg11
g12
(S'\x07\xe0\x01\x16\x16\x05.\x00\x00\x00'
tRp939
sg14
Nsg15
VGlitteryAnimal
p940
sa(dp941
g3
(lp942
Vmy
p943
aVroom
p944
aVhas
p945
aVsome
p946
aVreally
p947
aVshitty
p948
aVvibes
p949
aVthat
p950
aVi'm
p951
aVtrying
p952
aVto
p953
aVget
p954
aVrid
p955
aVof
p956
aVwith
p957
aVdeep
p958
aVcleaning
p959
aV/
aVcandle
p960
aVmagic
p961
aV/
aVsmudging
p962
asg11
g12
(S'\x07\xe0\x01\x16\x16\x05\x14\x00\x00\x00'
tRp963
sg14
Nsg15
VGlitteryAnimal
p964
sa(dp965
g3
(lp966
Vcurrently
p967
aVreading
p968
aVa
aVblog
p969
aVpost
p970
aVentitled
p971
aV"
aVso
p972
aVyou
p973
aVthink
p974
aVyou've
p975
aVbeen
p976
aVcursed
p977
aV"
asg11
g12
(S'\x07\xe0\x01\x16\x14 \x1f\x00\x00\x00'
tRp978
sg14
Nsg15
VGlitteryAnimal
p979
sa(dp980
g3
(lp981
Vhey
p982
aV@gerardway
p983
aV,
aVi
aVknow
p984
aVyour
p985
aVphone
p986
aVwas
p987
aVhaunted
p988
aV,
aVi'm
p989
aVpretty
p990
aVsure
p991
aVmy
p992
aVroom
p993
aVis
p994
aVhaunted
p995
aV,
aVany
p996
aVadvice
p997
aV?
asg11
g12
(S'\x07\xe0\x01\x16\x14\x1e\x00\x00\x00\x00'
tRp998
sg14
Nsg15
VGlitteryAnimal
p999
sa(dp1000
g3
(lp1001
Vlike
p1002
aVim
p1003
aVboth
p1004
aVthrilled
p1005
aVand
p1006
aVuncomfortable
p1007
aV@chateau_cat
p1008
asg11
g12
(S"\x07\xe0\x01\x16\x12\x10'\x00\x00\x00"
tRp1009
sg14
Nsg15
VGlitteryAnimal
p1010
sa(dp1011
g3
(lp1012
V@chateau_cat
p1013
aVand
p1014
aVi
aVfeel
p1015
aVlike
p1016
aVthat
p1017
aVshould
p1018
aVmake
p1019
aVme
p1020
aVworried
p1021
asg11
g12
(S'\x07\xe0\x01\x16\x12\x0f7\x00\x00\x00'
tRp1022
sg14
Nsg15
VGlitteryAnimal
p1023
sa(dp1024
g3
(lp1025
V@chateau_cat
p1026
aVme
p1027
aVand
p1028
aVtommy
p1029
aVwiseau
p1030
aVare
p1031
aVon
p1032
aVthe
p1033
aVsame
p1034
aVwavelength
p1035
asg11
g12
(S"\x07\xe0\x01\x16\x12\x0f'\x00\x00\x00"
tRp1036
sg14
Nsg15
VGlitteryAnimal
p1037
sa(dp1038
g3
(lp1039
V@chateau_cat
p1040
aVomfg
p1041
asg11
g12
(S'\x07\xe0\x01\x16\x12\x0e\x17\x00\x00\x00'
tRp1042
sg14
Nsg15
VGlitteryAnimal
p1043
sa(dp1044
g3
(lp1045
Vrt
p1046
aV@chateau_cat
p1047
aV:
aV@glitteryanimal
p1048
aVokay
p1049
aVbut
p1050
aVthis
p1051
aVhappened
p1052
aVhttps://t.co/mtgt6iuzol
p1053
asg11
g12
(S'\x07\xe0\x01\x16\x12\x0e\x12\x00\x00\x00'
tRp1054
sg14
Nsg15
VGlitteryAnimal
p1055
sa(dp1056
g3
(lp1057
Vrt
p1058
aV@wanderthedragon
p1059
aV:
aVso
p1060
aVcool
p1061
aV!
aVreal
p1062
aVfact
p1063
aV!
aVwow
p1064
aV!
aVhttps://t.co/729qssnxtc
p1065
asg11
g12
(S'\x07\xe0\x01\x16\x12\t\x0e\x00\x00\x00'
tRp1066
sg14
Nsg15
VGlitteryAnimal
p1067
sa(dp1068
g3
(lp1069
Vand
p1070
aV/
aVor
p1071
aVis
p1072
aVa
aVfan
p1073
aVof
p1074
aVthe
p1075
aVmelanie
p1076
aVmartinez
p1077
aVhit
p1078
aV"
aVsoap
p1079
aV"
asg11
g12
(S'\x07\xe0\x01\x16\x12\x07\x1b\x00\x00\x00'
tRp1080
sg14
Nsg15
VGlitteryAnimal
p1081
sa(dp1082
g3
(lp1083
Vsoapiosexual
p1084
aV-
aVi
aVjust
p1085
aVreally
p1086
aVwanna
p1087
aVfuck
p1088
aVsomeone
p1089
aVwho
p1090
aVsmells
p1091
aVof
p1092
aVlush
p1093
aVproducts
p1094
aVand
p1095
aV/
aVor
p1096
aVwill
p1097
aVbuy
p1098
aVme
p1099
aVlush
p1100
aVproducts
p1101
asg11
g12
(S'\x07\xe0\x01\x16\x12\x05+\x00\x00\x00'
tRp1102
sg14
Nsg15
VGlitteryAnimal
p1103
sa(dp1104
g3
(lp1105
Vrt
p1106
aV@noitsisabel
p1107
aV:
aVhttps://t.co/kp8ssi6oc6
p1108
asg11
g12
(S'\x07\xe0\x01\x16\x11":\x00\x00\x00'
tRp1109
sg14
Nsg15
VGlitteryAnimal
p1110
sa(dp1111
g3
(lp1112
Vrt
p1113
aV@noitsisabel
p1114
aV:
aVhere's
p1115
aVmy
p1116
aVpanic
p1117
aV!
aVplaylist
p1118
aVhttps://t.co/e5syox3eoz
p1119
asg11
g12
(S'\x07\xe0\x01\x16\x11"7\x00\x00\x00'
tRp1120
sg14
Nsg15
VGlitteryAnimal
p1121
sa(dp1122
g3
(lp1123
Vbless
p1124
aVyou
p1125
aVhttps://t.co/yukfbk6al3
p1126
asg11
g12
(S'\x07\xe0\x01\x16\x11"\x18\x00\x00\x00'
tRp1127
sg14
Nsg15
VGlitteryAnimal
p1128
sa(dp1129
g3
(lp1130
Vpeople
p1131
aVon
p1132
aVfacebook
p1133
aVwant
p1134
aVme
p1135
aVto
p1136
aVstart
p1137
aVa
aVblog
p1138
aVwhere
p1139
aVi
aVcritique
p1140
aVemo
p1141
aVmusic
p1142
aVand
p1143
aVtalk
p1144
aVabout
p1145
aVbands
p1146
aVand
p1147
aVmy
p1148
aVfeelings
p1149
aVabout
p1150
aVbands
p1151
aV?
aV?
aV?
asg11
g12
(S'\x07\xe0\x01\x16\x08\x1c+\x00\x00\x00'
tRp1152
sg14
Nsg15
VGlitteryAnimal
p1153
sa(dp1154
g3
(lp1155
Vrt
p1156
aV@blazecollie
p1157
aV:
aValright
p1158
aV!
aV#fursuitfriday
p1159
aVgroup
p1160
aVstyle
p1161
aV!
aVfeat
p1162
aV.
aV@wildacai
p1163
aV@wild__life
p1164
aV@clypsefusky
p1165
aV@scotchbunni
p1166
aV@onefurallstudio
p1167
aVhttps://t.co/o
p1168
aV\u2026
asg11
g12
(S"\x07\xe0\x01\x16\x08\x1b'\x00\x00\x00"
tRp1169
sg14
Nsg15
VGlitteryAnimal
p1170
sa(dp1171
g3
(lp1172
Vi
aVwant
p1173
aVa
aVgroup
p1174
aVof
p1175
aVadults
p1176
aVto
p1177
aVsweep
p1178
aVme
p1179
aVup
p1180
aVand
p1181
aVget
p1182
aVme
p1183
aVinto
p1184
aVthe
p1185
aVironically-loving-highschool-musical
p1186
aVthing
p1187
aV.
aVthats
p1188
aVwhat
p1189
aVi
aVwant
p1190
aV.
asg11
g12
(S'\x07\xe0\x01\x16\x08\n\x06\x00\x00\x00'
tRp1191
sg14
Nsg15
VGlitteryAnimal
p1192
sa(dp1193
g3
(lp1194
Vi
aVjust
p1195
aVwrote
p1196
aVlike
p1197
aVan
p1198
aVessay
p1199
aVon
p1200
aVfacebook
p1201
aVabout
p1202
aVpanic
p1203
aV!
aVat
p1204
aVthe
p1205
aVdisco
p1206
aV.
aVwhat
p1207
aVhave
p1208
aVi
aVbecome
p1209
aV.
asg11
g12
(S'\x07\xe0\x01\x16\x06\x04#\x00\x00\x00'
tRp1210
sg14
Nsg15
VGlitteryAnimal
p1211
sa(dp1212
g3
(lp1213
Vi
aVhave
p1214
aVbeen
p1215
aVranting
p1216
aVabout
p1217
aVbrendon
p1218
aVurie
p1219
aVliterally
p1220
aVall
p1221
aVday
p1222
aV(
aVthough
p1223
aVi
aVmanaged
p1224
aVto
p1225
aVrestrain
p1226
aVmyself
p1227
aVthe
p1228
aVentire
p1229
aVtime
p1230
aVi
aVwas
p1231
aVon
p1232
aVa
aVdate
p1233
aV)
asg11
g12
(S'\x07\xe0\x01\x16\x06\x00\x16\x00\x00\x00'
tRp1234
sg14
Nsg15
VGlitteryAnimal
p1235
sa(dp1236
g3
(lp1237
V@noitsisabel
p1238
aVi
aVimmediately
p1239
aVthought
p1240
aVof
p1241
aVthis
p1242
aVhttps://t.co/4bkrzoazad
p1243
asg11
g12
(S'\x07\xe0\x01\x16\x05 \x01\x00\x00\x00'
tRp1244
sg14
Nsg15
VGlitteryAnimal
p1245
sa(dp1246
g3
(lp1247
Vrt
p1248
aV@noitsisabel
p1249
aV:
aV@glitteryanimal
p1250
aVhttps://t.co/e1k4v9d1rp
p1251
asg11
g12
(S'\x07\xe0\x01\x16\x05\x1d\x16\x00\x00\x00'
tRp1252
sg14
Nsg15
VGlitteryAnimal
p1253
sa(dp1254
g3
(lp1255
V@noitsisabel
p1256
aVand
p1257
aVthen
p1258
aVmcr
p1259
aVshould
p1260
aVget
p1261
aVback
p1262
aVtogether
p1263
aV(
aVminus
p1264
aVbob
p1265
aV)
aVand
p1266
aVthem
p1267
aVand
p1268
aVfob
p1269
aVand
p1270
aVtop
p1271
aVshould
p1272
aVtour
p1273
aVtogether
p1274
aVand
p1275
aVplay
p1276
aVmostly
p1277
aVin
p1278
aVthe
p1279
aVbay
p1280
aVarea
p1281
asg11
g12
(S'\x07\xe0\x01\x16\x05\x1c:\x00\x00\x00'
tRp1282
sg14
Nsg15
VGlitteryAnimal
p1283
sa(dp1284
g3
(lp1285
V@noitsisabel
p1286
aVryro
p1287
aVshould
p1288
aVjoin
p1289
aVfob
p1290
aVand
p1291
aVno
p1292
aVone
p1293
aVshould
p1294
aVtalk
p1295
aVto
p1296
aVurie
p1297
aVuntil
p1298
aVhe
p1299
aVgets
p1300
aVhis
p1301
aVhead
p1302
aVout
p1303
aVof
p1304
aVhis
p1305
aVass
p1306
asg11
g12
(S'\x07\xe0\x01\x16\x05\x1b\r\x00\x00\x00'
tRp1307
sg14
Nsg15
VGlitteryAnimal
p1308
sa(dp1309
g3
(lp1310
V@noitsisabel
p1311
aVbetter
p1312
aVidea
p1313
aVbecause
p1314
aVurie
p1315
aVwould
p1316
aVsomehow
p1317
aVmanage
p1318
aVto
p1319
aVmake
p1320
aVeveryone
p1321
aVleave
p1322
aVfob
p1323
aVif
p1324
aVhe
p1325
aVjoined
p1326
aV&
aVamp
p1327
aV;
aVthe
p1328
aVworld
p1329
aVcant
p1330
aVhandle
p1331
aVanother
p1332
aVfob
p1333
aVbreakup
p1334
asg11
g12
(S'\x07\xe0\x01\x16\x05\x1a#\x00\x00\x00'
tRp1335
sg14
Nsg15
VGlitteryAnimal
p1336
sa(dp1337
g3
(lp1338
V@noitsisabel
p1339
aVim
p1340
aVsorry
p1341
asg11
g12
(S'\x07\xe0\x01\x16\x05\x18\x0f\x00\x00\x00'
tRp1342
sg14
Nsg15
VGlitteryAnimal
p1343
sa(dp1344
g3
(lp1345
V@noitsisabel
p1346
aVor
p1347
aVat
p1348
aVleast
p1349
aVchange
p1350
aVhis
p1351
aV"
aVnah
p1352
aV"
aVto
p1353
aVsomething
p1354
aVnicer
p1355
aVlike
p1356
aV"
aVno
p1357
aVmy
p1358
aVdear
p1359
aV,
aVthat
p1360
aVchapter
p1361
aVis
p1362
aVdone
p1363
aV"
asg11
g12
(S'\x07\xe0\x01\x16\x05\x0b)\x00\x00\x00'
tRp1364
sg14
Nsg15
VGlitteryAnimal
p1365
sa(dp1366
g3
(lp1367
V@noitsisabel
p1368
aVsorry
p1369
aVjust
p1370
aVbeing
p1371
aVsalty
p1372
aVas
p1373
aVfuck
p1374
aVabout
p1375
aVold
p1376
aVforehead
p1377
aVman
p1378
aVall
p1379
aVover
p1380
aVyr
p1381
aVmentions
p1382
asg11
g12
(S'\x07\xe0\x01\x16\x0491\x00\x00\x00'
tRp1383
sg14
Nsg15
VGlitteryAnimal
p1384
sa(dp1385
g3
(lp1386
V@noitsisabel
p1387
aVif
p1388
aVhe
p1389
aVeither
p1390
aV1
aV.
aVwithdrew
p1391
aVhis
p1392
aV"
aVnah
p1393
aV"
aV2
aV.
aVstopped
p1394
aVcalling
p1395
aVhimself
p1396
aVp
aV!
aVatd
p1397
aVor
p1398
aV3
aV.
aVjoined
p1399
aVfall
p1400
aVout
p1401
aVboy
p1402
aVi
aV*
aVmight
p1403
aV*
aVreconsider
p1404
aVmy
p1405
aVposition
p1406
aV.
asg11
g12
(S'\x07\xe0\x01\x16\x049\x15\x00\x00\x00'
tRp1407
sg14
Nsg15
VGlitteryAnimal
p1408
sa(dp1409
g3
(lp1410
V@taicrimson
p1411
aVs
aVa
aVm
aVe
asg11
g12
(S'\x07\xe0\x01\x16\x047\x1c\x00\x00\x00'
tRp1412
sg14
Nsg15
VGlitteryAnimal
p1413
sa(dp1414
g3
(lp1415
V@taicrimson
p1416
aVi'm
p1417
aVimpressed
p1418
aVand
p1419
aVfeeling
p1420
aVsecondhand
p1421
aVglee
p1422
aVfor
p1423
aVyou
p1424
asg11
g12
(S'\x07\xe0\x01\x16\x046-\x00\x00\x00'
tRp1425
sg14
Nsg15
VGlitteryAnimal
p1426
sa(dp1427
g3
(lp1428
V@taicrimson
p1429
aVholy
p1430
aVshit
p1431
asg11
g12
(S'\x07\xe0\x01\x16\x043&\x00\x00\x00'
tRp1432
sg14
Nsg15
VGlitteryAnimal
p1433
sa(dp1434
g3
(lp1435
V@taicrimson
p1436
aVomfg
p1437
aVyour
p1438
aVtweet
p1439
aVthreads
p1440
aVright
p1441
aVnow
p1442
aV,
aVget
p1443
aVit
p1444
aVgirl
p1445
aV\U0001f44f
aV\U0001f44f
aV\U0001f44f
aV\U0001f44f
aV\U0001f44f
asg11
g12
(S'\x07\xe0\x01\x16\x043\x02\x00\x00\x00'
tRp1446
sg14
Nsg15
VGlitteryAnimal
p1447
sa(dp1448
g3
(lp1449
V@noitsisabel
p1450
aVwas
p1451
aV"
aVnah
p1452
aV"
aVjust
p1453
aVlike
p1454
aVufgsioaeigjad
p1455
asg11
g12
(S'\x07\xe0\x01\x16\x04/,\x00\x00\x00'
tRp1456
sg14
Nsg15
VGlitteryAnimal
p1457
sa(dp1458
g3
(lp1459
V@noitsisabel
p1460
aVlike
p1461
aV,
aVthe
p1462
aVfact
p1463
aVthat
p1464
aVryro
p1465
aVwho
p1466
aVyou
p1467
aVknow
p1468
aVbrendon
p1469
aVwas
p1470
aVmore
p1471
aVthan
p1472
aVlikely
p1473
aVa
aVdick
p1474
aVto
p1475
aVwas
p1476
aVlike
p1477
aV"
aVim
p1478
aVopen
p1479
aVto
p1480
aVit
p1481
aVand
p1482
aVall
p1483
aVbrendon
p1484
aVhad
p1485
aVto
p1486
aVsay
p1487
asg11
g12
(S'\x07\xe0\x01\x16\x04/\x1c\x00\x00\x00'
tRp1488
sg14
Nsg15
VGlitteryAnimal
p1489
sa(dp1490
g3
(lp1491
V@noitsisabel
p1492
aVme
p1493
aVand
p1494
aVuriel
p1495
aVare
p1496
aVnot
p1497
aVon
p1498
aVspeaking
p1499
aVterms
p1500
asg11
g12
(S'\x07\xe0\x01\x16\x04.\x1f\x00\x00\x00'
tRp1501
sg14
Nsg15
VGlitteryAnimal
p1502
sa(dp1503
g3
(lp1504
V@noitsisabel
p1505
aVits
p1506
aVreally
p1507
aVcool
p1508
aVthat
p1509
aVyou
p1510
aVcan
p1511
aVdraw
p1512
aVand
p1513
aValso
p1514
aVactually
p1515
aVenjoy
p1516
aVdrawing
p1517
aVhands
p1518
aV,
aVmost
p1519
aVpeople
p1520
aV(
aVme
p1521
aV)
aVare
p1522
aVreally
p1523
aVbad
p1524
aVat
p1525
aVdrawing
p1526
aVhands
p1527
asg11
g12
(S'\x07\xe0\x01\x16\x04.\x02\x00\x00\x00'
tRp1528
sg14
Nsg15
VGlitteryAnimal
p1529
sa(dp1530
g3
(lp1531
Vrt
p1532
aV@sincerelytumblr
p1533
aV:
aVsomeone
p1534
aVtake
p1535
aVme
p1536
aVout
p1537
aV.
aVeither
p1538
aVin
p1539
aVthe
p1540
aVdate
p1541
aVway
p1542
aVor
p1543
aVthe
p1544
aVassassination
p1545
aVway
p1546
asg11
g12
(S'\x07\xe0\x01\x16\x04,:\x00\x00\x00'
tRp1547
sg14
Nsg15
VGlitteryAnimal
p1548
sa(dp1549
g3
(lp1550
Vrt
p1551
aV@undertalequotes
p1552
aV:
aVhttps://t.co/ycyqnyvb3j
p1553
asg11
g12
(S"\x07\xe0\x01\x16\x04#'\x00\x00\x00"
tRp1554
sg14
Nsg15
VGlitteryAnimal
p1555
sa(dp1556
g3
(lp1557
Valso
p1558
aVi
aVhave
p1559
aVa
aVheadache
p1560
aVnow
p1561
asg11
g12
(S'\x07\xe0\x01\x16\x04\t\x06\x00\x00\x00'
tRp1562
sg14
Nsg15
VGlitteryAnimal
p1563
sa(dp1564
g3
(lp1565
Vwhich
p1566
aVis
p1567
aVprobably
p1568
aVsoaked
p1569
aVinto
p1570
aVthe
p1571
aVplastic
p1572
aVso
p1573
aVi
aVprobably
p1574
aVneed
p1575
aVto
p1576
aVthrow
p1577
aVout
p1578
aVmy
p1579
aVelectric
p1580
aVtea
p1581
aVkettle
p1582
asg11
g12
(S'\x07\xe0\x01\x16\x04\x082\x00\x00\x00'
tRp1583
sg14
Nsg15
VGlitteryAnimal
p1584
sa(dp1585
g3
(lp1586
Vso
p1587
aVants
p1588
aVattacked
p1589
aVmy
p1590
aVhot
p1591
aVwater
p1592
aVmaker
p1593
aVand
p1594
aVi
aVpanicked
p1595
aVand
p1596
aVsprayed
p1597
aVas
p1598
aVmany
p1599
aVcleaning
p1600
aVspray
p1601
aVi
aVhad
p1602
aVin
p1603
aVthe
p1604
aVimmediate
p1605
aVvicinity
p1606
asg11
g12
(S'\x07\xe0\x01\x16\x04\x08\x02\x00\x00\x00'
tRp1607
sg14
Nsg15
VGlitteryAnimal
p1608
sa(dp1609
g3
(lp1610
V@noitsisabel
p1611
aV"
aVwhen
p1612
aVi'm
p1613
aVreally
p1614
aVlonely
p1615
aVsometimes
p1616
aVi
aVcall
p1617
aVjosh
p1618
aVmy
p1619
aVdutch
p1620
aVangel
p1621
aVdragon
p1622
aV"
asg11
g12
(S'\x07\xe0\x01\x16\x04\x05\x1e\x00\x00\x00'
tRp1623
sg14
Nsg15
VGlitteryAnimal
p1624
sa(dp1625
g3
(lp1626
V@noitsisabel
p1627
aVn
aVo
asg11
g12
(S'\x07\xe0\x01\x16\x04\x049\x00\x00\x00'
tRp1628
sg14
Nsg15
VGlitteryAnimal
p1629
sa(dp1630
g3
(lp1631
V@noitsisabel
p1632
aVno
p1633
asg11
g12
(S'\x07\xe0\x01\x16\x04\x041\x00\x00\x00'
tRp1634
sg14
Nsg15
VGlitteryAnimal
p1635
sa(dp1636
g3
(lp1637
Vrt
p1638
aV@melaniepilots
p1639
aV:
aVtyler
p1640
aVcalls
p1641
aVjosh
p1642
aVhis
p1643
aVdad
p1644
aVsometimes
p1645
aVaccording
p1646
aVto
p1647
aVthis
p1648
aVnice
p1649
aVhttps://t.co/t4k0hopcce
p1650
asg11
g12
(S'\x07\xe0\x01\x16\x04\x04%\x00\x00\x00'
tRp1651
sg14
Nsg15
VGlitteryAnimal
p1652
sa(dp1653
g3
(lp1654
Vyou
p1655
aVguys
p1656
aVhow
p1657
aVis
p1658
aVit
p1659
aVthat
p1660
aVso
p1661
aVmany
p1662
aVpeople
p1663
aVwant
p1664
aVto
p1665
aVkiss
p1666
aVme
p1667
aVlately
p1668
aVi
aVdont
p1669
aVunderstand
p1670
asg11
g12
(S'\x07\xe0\x01\x16\x04\x01\x04\x00\x00\x00'
tRp1671
sg14
Nsg15
VGlitteryAnimal
p1672
sa(dp1673
g3
(lp1674
Vrt
p1675
aV@bobvulfov
p1676
aV:
aVi
aVhate
p1677
aVband
p1678
aVnames
p1679
aVthat
p1680
aVare
p1681
aVcommands
p1682
aV:
aV-
aVfoster
p1683
aVthe
p1684
aVpeople
p1685
aV-
aVpanic
p1686
aVat
p1687
aVthe
p1688
aVdisco
p1689
aV-
aVimagine
p1690
aVdragons
p1691
aV-
aVwalk
p1692
aVthe
p1693
aVmoon
p1694
aVdont
p1695
aVfuckin
p1696
aVtel
p1697
aV\u2026
asg11
g12
(S'\x07\xe0\x01\x16\x03\x15\x08\x00\x00\x00'
tRp1698
sg14
Nsg15
VGlitteryAnimal
p1699
sa(dp1700
g3
(lp1701
Vrt
p1702
aV@frnkieromustdje
p1703
aV:
aVhttps://t.co/edyimrbw3s
p1704
asg11
g12
(S'\x07\xe0\x01\x16\x03\x14!\x00\x00\x00'
tRp1705
sg14
Nsg15
VGlitteryAnimal
p1706
sa(dp1707
g3
(lp1708
Vi
aVthink
p1709
aVi
aVchewed
p1710
aVon
p1711
aVmy
p1712
aVlipring
p1713
aVall
p1714
aVday
p1715
aVbecause
p1716
aVcute
p1717
aVppl
p1718
aVmake
p1719
aVme
p1720
aVnervous
p1721
aVand
p1722
aVnow
p1723
aVmy
p1724
aVlip
p1725
aVhurts
p1726
asg11
g12
(S'\x07\xe0\x01\x16\x03\x02\x1c\x00\x00\x00'
tRp1727
sg14
Nsg15
VGlitteryAnimal
p1728
sa(dp1729
g3
(lp1730
V@noitsisabel
p1731
aVtru
p1732
asg11
g12
(S'\x07\xe0\x01\x16\x0298\x00\x00\x00'
tRp1733
sg14
Nsg15
VGlitteryAnimal
p1734
sa(dp1735
g3
(lp1736
V@noitsisabel
p1737
aVsobbing
p1738
asg11
g12
(S'\x07\xe0\x01\x16\x029 \x00\x00\x00'
tRp1739
sg14
Nsg15
VGlitteryAnimal
p1740
sa(dp1741
g3
(lp1742
Vrt
p1743
aV@noitsisabel
p1744
aV:
aVthis
p1745
aVone
p1746
aVhttps://t.co/gghg0xpakx
p1747
asg11
g12
(S'\x07\xe0\x01\x16\x029\x14\x00\x00\x00'
tRp1748
sg14
Nsg15
VGlitteryAnimal
p1749
sa(dp1750
g3
(lp1751
Vi'm
p1752
aVlegit
p1753
aVangry
p1754
aVwith
p1755
aVbrendon
p1756
aVurie
p1757
aVlike
p1758
aVno
p1759
aV.
aVbrendon
p1760
aV.
aVstahp
p1761
aV.
asg11
g12
(S'\x07\xe0\x01\x16\x0287\x00\x00\x00'
tRp1762
sg14
Nsg15
VGlitteryAnimal
p1763
sa(dp1764
g3
(lp1765
Vrt
p1766
aV@_bvb__
p1767
aV:
aVgood
p1768
aVmorning
p1769
aV@gerardway
p1770
aVi
aVdrew
p1771
aVyou
p1772
aV&
aVlt
p1773
aV;
aV3
aVhttps://t.co/ihzicv2ykc
p1774
asg11
g12
(S'\x07\xe0\x01\x16\x027"\x00\x00\x00'
tRp1775
sg14
Nsg15
VGlitteryAnimal
p1776
sa(dp1777
g3
(lp1778
Vrt
p1779
aV@noitsisabel
p1780
aV:
aVhe's
p1781
aVlike
p1782
aV'
aVyes
p1783
aVthis
p1784
aVis
p1785
aVmy
p1786
aVjosh
p1787
aVthis
p1788
aVis
p1789
aVmy
p1790
aVfren
p1791
aVgit
p1792
aVur
p1793
aVown
p1794
aVhe's
p1795
aVmine
p1796
aVdo
p1797
aVyou
p1798
aVsee
p1799
aVhow
p1800
aVcool
p1801
aVhe
p1802
aVis
p1803
aVhe's
p1804
aVnot
p1805
aVurs
p1806
aVhe
p1807
aVmine
p1808
aV'
aVhttps
p1809
aV:
aV\u2026
asg11
g12
(S'\x07\xe0\x01\x16\x027\x08\x00\x00\x00'
tRp1810
sg14
Nsg15
VGlitteryAnimal
p1811
sa(dp1812
g3
(lp1813
Vrt
p1814
aV@mcrhq
p1815
aV:
aVhttp://t.co/obo4xav5sh
p1816
asg11
g12
(S'\x07\xe0\x01\x16\x026(\x00\x00\x00'
tRp1817
sg14
Nsg15
VGlitteryAnimal
p1818
sa(dp1819
g3
(lp1820
Vplatypus
p1821
aVby
p1822
aVcalvin
p1823
aVklein
p1824
aVfeat
p1825
aV.
aV@chairmanofspace
p1826
aVhttps://t.co/07ggh24k4d
p1827
asg11
g12
(S'\x07\xe0\x01\x16\x02\x10(\x00\x00\x00'
tRp1828
sg14
Nsg15
VGlitteryAnimal
p1829
sa(dp1830
g3
(lp1831
V@bugq
p1832
aVthe
p1833
aVrocket-straddling
p1834
aVis
p1835
aVreally
p1836
aVwhat
p1837
aVmakes
p1838
aVthis
p1839
asg11
g12
(S'\x07\xe0\x01\x16\x00(+\x00\x00\x00'
tRp1840
sg14
Nsg15
VGlitteryAnimal
p1841
sa(dp1842
g3
(lp1843
Vhow
p1844
aVto
p1845
aVsteal
p1846
aVmy
p1847
aVheart
p1848
aVhttps://t.co/zme1bem7ha
p1849
asg11
g12
(S"\x07\xe0\x01\x16\x00'!\x00\x00\x00"
tRp1850
sg14
Nsg15
VGlitteryAnimal
p1851
sa(dp1852
g3
(lp1853
Vrt
p1854
aV@lowqgerard
p1855
aV:
aVhttps://t.co/hqzgmas9an
p1856
asg11
g12
(S'\x07\xe0\x01\x16\x00\x03*\x00\x00\x00'
tRp1857
sg14
Nsg15
VGlitteryAnimal
p1858
sa(dp1859
g3
(lp1860
Vrt
p1861
aV@lowqgerard
p1862
aV:
aVhttps://t.co/absukvjllm
p1863
asg11
g12
(S'\x07\xe0\x01\x16\x00\x03\x1b\x00\x00\x00'
tRp1864
sg14
Nsg15
VGlitteryAnimal
p1865
sa(dp1866
g3
(lp1867
Vrt
p1868
aV@lowqgerard
p1869
aV:
aVhttps://t.co/0ssz7w3lef
p1870
asg11
g12
(S'\x07\xe0\x01\x16\x00\x03\x13\x00\x00\x00'
tRp1871
sg14
Nsg15
VGlitteryAnimal
p1872
sa(dp1873
g3
(lp1874
Vrt
p1875
aV@muuu_du
p1876
aV:
aV\u304b
aV\u308f
aV\u3044
aV\u3044
aV\uff01
aV\uff01
aV\uff01
aV\uff01
aV\uff01
aVhttp://t.co/cex8bqtfpw
p1877
asg11
g12
(S'\x07\xe0\x01\x16\x00\x024\x00\x00\x00'
tRp1878
sg14
Nsg15
VGlitteryAnimal
p1879
sa(dp1880
g3
(lp1881
Vhttps://t.co/ryjjrhnuqe
p1882
asg11
g12
(S'\x07\xe0\x01\x16\x00\x02\x1b\x00\x00\x00'
tRp1883
sg14
Nsg15
VGlitteryAnimal
p1884
sa(dp1885
g3
(lp1886
Vhttps://t.co/0ft6pklhkg
p1887
asg11
g12
(S'\x07\xe0\x01\x16\x00\x01%\x00\x00\x00'
tRp1888
sg14
Nsg15
VGlitteryAnimal
p1889
sa(dp1890
g3
(lp1891
Vhttps://t.co/pct2ncge9p
p1892
asg11
g12
(S'\x07\xe0\x01\x16\x00\x01\x01\x00\x00\x00'
tRp1893
sg14
Nsg15
VGlitteryAnimal
p1894
sa(dp1895
g3
(lp1896
V@bugq
p1897
aVomfg
p1898
aVjust
p1899
aVthat
p1900
aVheadline
p1901
asg11
g12
(S'\x07\xe0\x01\x15\x15\x17%\x00\x00\x00'
tRp1902
sg14
Nsg15
VGlitteryAnimal
p1903
sa(dp1904
g3
(lp1905
V@glitteryanimal
p1906
aVthis
p1907
aVis
p1908
aVsuch
p1909
aVa
aVgood
p1910
aVselfie
p1911
aVtho
p1912
asg11
g12
(S'\x07\xe0\x01\x15\x12\x14\x10\x00\x00\x00'
tRp1913
sg14
Nsg15
VGlitteryAnimal
p1914
sa(dp1915
g3
(lp1916
V.
aV@lurrel
p1917
aVhttps://t.co/18rqmhwnpi
p1918
asg11
g12
(S'\x07\xe0\x01\x15\x12\x13\x15\x00\x00\x00'
tRp1919
sg14
Nsg15
VGlitteryAnimal
p1920
sa(dp1921
g3
(lp1922
Vrt
p1923
aV@lurrel
p1924
aV:
aV@glitteryanimal
p1925
aVscream
p1926
aV,
aVomg
p1927
aV.
aVit's
p1928
aVokay
p1929
aV,
aVdo
p1930
aVthe
p1931
aVcommunity
p1932
aVrequired
p1933
aVhail
p1934
aVkylo
p1935
aVrens
p1936
aVand
p1937
aVyou'll
p1938
aVbe
p1939
aVwelcomed
p1940
aVback
p1941
aV.
asg11
g12
(S'\x07\xe0\x01\x15\x12\x11\x01\x00\x00\x00'
tRp1942
sg14
Nsg15
VGlitteryAnimal
p1943
sa(dp1944
g3
(lp1945
Vexile
p1946
aVculture
p1947
aV@lurrel
p1948
asg11
g12
(S"\x07\xe0\x01\x15\x12\x08'\x00\x00\x00"
tRp1949
sg14
Nsg15
VGlitteryAnimal
p1950
sa(dp1951
g3
(lp1952
Vrt
p1953
aV@lurrel
p1954
aV:
aV@glitteryanimal
p1955
aVbanished
p1956
aVfrom
p1957
aVemoville
p1958
asg11
g12
(S"\x07\xe0\x01\x15\x12\x07'\x00\x00\x00"
tRp1959
sg14
Nsg15
VGlitteryAnimal
p1960
sa(dp1961
g3
(lp1962
Vi
aVhave
p1963
aVa
aVconfession
p1964
aVto
p1965
aVmake
p1966
aV.
aVi
aVreally
p1967
aVdislike
p1968
aVthe
p1969
aVnew
p1970
aVpanic
p1971
aV!
aVat
p1972
aVthe
p1973
aVdisco
p1974
aValbum
p1975
aV.
asg11
g12
(S'\x07\xe0\x01\x15\x12\x06!\x00\x00\x00'
tRp1976
sg14
Nsg15
VGlitteryAnimal
p1977
sa(dp1978
g3
(lp1979
Vrt
p1980
aV@pattymo
p1981
aV:
aVi'm
p1982
aVgood
p1983
aV,
aVthanks
p1984
aVhttps://t.co/cenif1vvpb
p1985
asg11
g12
(S'\x07\xe0\x01\x15\x12\x01\x0b\x00\x00\x00'
tRp1986
sg14
Nsg15
VGlitteryAnimal
p1987
sa(dp1988
g3
(lp1989
V@lorenschmidt
p1990
aVthis
p1991
aVsounds
p1992
aVso
p1993
aVrad
p1994
asg11
g12
(S'\x07\xe0\x01\x15\x12\x00\x1f\x00\x00\x00'
tRp1995
sg14
Nsg15
VGlitteryAnimal
p1996
sa(dp1997
g3
(lp1998
Vrt
p1999
aV@dog_rates
p2000
aV:
aVhere
p2001
aVwe
p2002
aVsee
p2003
aV33
p2004
aVdogs
p2005
aVposing
p2006
aVfor
p2007
aVa
aVpicture
p2008
aV.
aVall
p2009
aVget
p2010
aV11
p2011
aV/
aV10
p2012
aVfor
p2013
aVsuperb
p2014
aVcooperation
p2015
aVhttps://t.co/trari5ihzd
p2016
asg11
g12
(S'\x07\xe0\x01\x15\x11\x16\x1a\x00\x00\x00'
tRp2017
sg14
Nsg15
VGlitteryAnimal
p2018
sa(dp2019
g3
(lp2020
V@noitsisabel
p2021
aVyeah
p2022
aVsorry
p2023
aVi
aVwent
p2024
aVsilent
p2025
aVfor
p2026
aVhalf
p2027
aVan
p2028
aVhour
p2029
aVthis
p2030
aVis
p2031
aVwhy
p2032
asg11
g12
(S'\x07\xe0\x01\x15\x10+-\x00\x00\x00'
tRp2033
sg14
Nsg15
VGlitteryAnimal
p2034
sa(dp2035
g3
(lp2036
Vi
aVwas
p2037
aVtalking
p2038
aVto
p2039
aV@noitsisabel
p2040
aVand
p2041
aVmy
p2042
aVphone
p2043
aVautocorrected
p2044
aV"
aVurie
p2045
aV"
aVto
p2046
aV"
aVuriel
p2047
aV"
aVand
p2048
aVi
aVjust
p2049
aVhttps://t.co/vaua3cguop
p2050
asg11
g12
(S'\x07\xe0\x01\x15\x10\x1f\x17\x00\x00\x00'
tRp2051
sg14
Nsg15
VGlitteryAnimal
p2052
sa(dp2053
g3
(lp2054
Vrt
p2055
aV@badmcrfics
p2056
aV:
aV"
aVi'm
p2057
aVnot
p2058
aVan
p2059
aVartist
p2060
aV,
aVi'm
p2061
aVan
p2062
aVemo
p2063
aV.
aV"
asg11
g12
(S'\x07\xe0\x01\x15\n9\x03\x00\x00\x00'
tRp2064
sg14
Nsg15
VGlitteryAnimal
p2065
sa(dp2066
g3
(lp2067
Vrt
p2068
aV@thegrugq
p2069
aV:
aV"
aVwe
p2070
aVdo
p2071
aVclient
p2072
aVside
p2073
aVfiltering
p2074
aV.
aV"
aVhttps://t.co/gscew1uqnv
p2075
asg11
g12
(S'\x07\xe0\x01\x15\n8\x1e\x00\x00\x00'
tRp2076
sg14
Nsg15
VGlitteryAnimal
p2077
sa(dp2078
g3
(lp2079
Vrt
p2080
aV@galuade_
p2081
aV:
aVhttps://t.co/kzko7cgkk8
p2082
asg11
g12
(S'\x07\xe0\x01\x15\n8\x14\x00\x00\x00'
tRp2083
sg14
Nsg15
VGlitteryAnimal
p2084
sa(dp2085
g3
(lp2086
Vrt
p2087
aV@yanchami
p2088
aV:
aV\u771f
aV\u5263
aV\u306b
aV\u51fa
aV\u3057
aV\u3066
aV\u307e
aV\u3059
aVw
aVhttps://t.co/lbrfdzlk5a
p2089
asg11
g12
(S'\x07\xe0\x01\x15\n8\x0e\x00\x00\x00'
tRp2090
sg14
Nsg15
VGlitteryAnimal
p2091
sa(dp2092
g3
(lp2093
Vrt
p2094
aV@disabledfemme
p2095
aV:
aVthe
p2096
aVonly
p2097
aVrelevant
p2098
aVstar
p2099
aVwars
p2100
aVpost
p2101
aVhttps://t.co/z7sbxhokqs
p2102
asg11
g12
(S'\x07\xe0\x01\x15\n8\x07\x00\x00\x00'
tRp2103
sg14
Nsg15
VGlitteryAnimal
p2104
sa(dp2105
g3
(lp2106
Vrt
p2107
aV@yee_bot
p2108
aV:
aVyee
p2109
asg11
g12
(S'\x07\xe0\x01\x15\n6\x17\x00\x00\x00'
tRp2110
sg14
Nsg15
VGlitteryAnimal
p2111
sa(dp2112
g3
(lp2113
Vhttps://t.co/cx3mtmgnky
p2114
aVok
p2115
aVbut
p2116
aVi
aVlove
p2117
aVthem
p2118
asg11
g12
(S'\x07\xe0\x01\x15\x07\n\x1a\x00\x00\x00'
tRp2119
sg14
Nsg15
VGlitteryAnimal
p2120
sa(dp2121
g3
(lp2122
Vthis
p2123
aVis
p2124
aVnot
p2125
aVhow
p2126
aVmost
p2127
aVpeople
p2128
aVtake
p2129
aVmirror
p2130
aVselfies
p2131
aVbut
p2132
aVi
aVam
p2133
aVa
aVrebel
p2134
aVand
p2135
aVan
p2136
aVartist
p2137
aVok
p2138
aVhttps://t.co/k10fzj4vwn
p2139
asg11
g12
(S'\x07\xe0\x01\x15\x07\x08\x10\x00\x00\x00'
tRp2140
sg14
Nsg15
VGlitteryAnimal
p2141
sa(dp2142
g3
(lp2143
Vthe
p2144
aVreal
p2145
aVjoke
p2146
aVhere
p2147
aVis
p2148
aVthe
p2149
aVresponses
p2150
aVin
p2151
aVwhich
p2152
aVa
aVgazillion
p2153
aVfurries
p2154
aVgenuinely
p2155
aVbelieve
p2156
aVdisney
p2157
aVmade
p2158
aVthem
p2159
aVa
aVplush
p2160
aVto
p2161
aVfuck
p2162
aVhttps://t.co/krrsxtkwj4
p2163
asg11
g12
(S'\x07\xe0\x01\x15\x06"\x10\x00\x00\x00'
tRp2164
sg14
Nsg15
VGlitteryAnimal
p2165
sa(dp2166
g3
(lp2167
Vhere's
p2168
aVa
aVcontextless
p2169
aVphoto
p2170
aVfrom
p2171
aVthe
p2172
aVinternet
p2173
aVhttps://t.co/3ugs0rddvy
p2174
asg11
g12
(S'\x07\xe0\x01\x15\x05 \x1c\x00\x00\x00'
tRp2175
sg14
Nsg15
VGlitteryAnimal
p2176
sa(dp2177
g3
(lp2178
V@noitsisabel
p2179
aVmale
p2180
aVteachers
p2181
aVshould
p2182
aVjust
p2183
aVbe
p2184
aVforbidden
p2185
aVfrom
p2186
aVtalking
p2187
aVabout
p2188
aVanything
p2189
aVanyone
p2190
aVis
p2191
aVwearing
p2192
aVever
p2193
aVnothing
p2194
aVgood
p2195
aVcomes
p2196
aVfrom
p2197
aVit
p2198
asg11
g12
(S'\x07\xe0\x01\x15\x05\x10\x11\x00\x00\x00'
tRp2199
sg14
Nsg15
VGlitteryAnimal
p2200
sa(dp2201
g3
(lp2202
V@noitsisabel
p2203
aVi
aVfucking
p2204
aVhate
p2205
aVhim
p2206
aVbased
p2207
aVoff
p2208
aVof
p2209
aVthis
p2210
aVcomment
p2211
aVlike
p2212
aVjust
p2213
aVstahp
p2214
asg11
g12
(S'\x07\xe0\x01\x15\x05\r\x0f\x00\x00\x00'
tRp2215
sg14
Nsg15
VGlitteryAnimal
p2216
sa(dp2217
g3
(lp2218
V@noitsisabel
p2219
aVyr
p2220
aVgrounded
p2221
asg11
g12
(S'\x07\xe0\x01\x15\x05\n\x0f\x00\x00\x00'
tRp2222
sg14
Nsg15
VGlitteryAnimal
p2223
sa(dp2224
g3
(lp2225
Vrt
p2226
aV@romancexkilljoy
p2227
aV:
aVkylo
p2228
aVren
p2229
aV:
aV*
aVstaring
p2230
aVat
p2231
aVmcr
p2232
aVposter
p2233
aVon
p2234
aVthe
p2235
aVwall
p2236
aV*
aVkylo
p2237
aVren
p2238
aV:
aVi
aVwill
p2239
aVfinish
p2240
aVwhat
p2241
aVyou
p2242
aVstarted
p2243
aVkylo
p2244
aVren
p2245
aV:
aV*
aVstarts
p2246
aVa
aVcover
p2247
aVban
p2248
aV\u2026
asg11
g12
(S'\x07\xe0\x01\x15\x05\t\x17\x00\x00\x00'
tRp2249
sg14
Nsg15
VGlitteryAnimal
p2250
sa(dp2251
g3
(lp2252
Vrt
p2253
aV@sassywars
p2254
aV:
aVhow
p2255
aVto
p2256
aVrun
p2257
aVaway
p2258
aVfrom
p2259
aVyour
p2260
aVproblems
p2261
aVhttps://t.co/e6vjvom4w1
p2262
asg11
g12
(S'\x07\xe0\x01\x15\x05\t\x06\x00\x00\x00'
tRp2263
sg14
Nsg15
VGlitteryAnimal
p2264
sa(dp2265
g3
(lp2266
V@noitsisabel
p2267
aVthis
p2268
aVis
p2269
aVa
aVgood
p2270
aVseries
p2271
aVof
p2272
aVtweets
p2273
aVisabel
p2274
asg11
g12
(S'\x07\xe0\x01\x15\x05\x08%\x00\x00\x00'
tRp2275
sg14
Nsg15
VGlitteryAnimal
p2276
sa(dp2277
g3
(lp2278
Vrt
p2279
aV@noitsisabel
p2280
aV:
aVi
aVjust
p2281
aVspilled
p2282
aVmilk
p2283
aVall
p2284
aVover
p2285
aVmy
p2286
aVmcr
p2287
aVsweater
p2288
aVnice
p2289
asg11
g12
(S'\x07\xe0\x01\x15\x05\x08\x0b\x00\x00\x00'
tRp2290
sg14
Nsg15
VGlitteryAnimal
p2291
sa(dp2292
g3
(lp2293
Vrt
p2294
aV@noitsisabel
p2295
aV:
aVi
aVjust
p2296
aVslapped
p2297
aVmy
p2298
aVdog
p2299
aVwith
p2300
aVa
aVbanana
p2301
aVpeel
p2302
asg11
g12
(S'\x07\xe0\x01\x15\x05\x08\x05\x00\x00\x00'
tRp2303
sg14
Nsg15
VGlitteryAnimal
p2304
sa(dp2305
g3
(lp2306
Vrt
p2307
aV@noitsisabel
p2308
aV:
aVi
aVjust
p2309
aVtripped
p2310
aVover
p2311
aVa
aVbox
p2312
aVand
p2313
aVdropped
p2314
aVmy
p2315
aVphone
p2316
asg11
g12
(S'\x07\xe0\x01\x15\x05\x07;\x00\x00\x00'
tRp2317
sg14
Nsg15
VGlitteryAnimal
p2318
sa(dp2319
g3
(lp2320
Vthis
p2321
aVis
p2322
aVmy
p2323
aVlife
p2324
aVnow
p2325
aV.
aVgerard
p2326
aVway
p2327
aVmake
p2328
aVa
aVcontext-less
p2329
aVbird
p2330
aVnoise
p2331
aVand
p2332
aVwe
p2333
aVall
p2334
aVscream
p2335
aVand
p2336
aVno
p2337
aVone
p2338
aVquestions
p2339
aVit
p2340
aV.
aVbless
p2341
aVus
p2342
aV.
aVhttps://t.co/hhgde9kl43
p2343
asg11
g12
(S'\x07\xe0\x01\x15\x05\x07/\x00\x00\x00'
tRp2344
sg14
Nsg15
VGlitteryAnimal
p2345
sa(dp2346
g3
(lp2347
Vrt
p2348
aV@zittrain
p2349
aV:
aVor
p2350
aVas
p2351
aVsome
p2352
aVwould
p2353
aVcall
p2354
aVit
p2355
aV,
aV"
aVtaxes
p2356
aV.
aV"
aVhttps://t.co/dovgn4ounc
p2357
asg11
g12
(S'\x07\xe0\x01\x15\x05\x03/\x00\x00\x00'
tRp2358
sg14
Nsg15
VGlitteryAnimal
p2359
sa(dp2360
g3
(lp2361
Vrt
p2362
aV@kevspace
p2363
aV:
aVif
p2364
aVyou
p2365
aVsaid
p2366
aVthe
p2367
aVsuicide
p2368
aVsquad
p2369
aVtrailer
p2370
aVwas
p2371
aVcool
p2372
aV,
aVyou
p2373
aVare
p2374
aVnow
p2375
aVprohibited
p2376
aVby
p2377
aVfederal
p2378
aVlaw
p2379
aVfrom
p2380
aVspeaking
p2381
aVill
p2382
aV,
aVjokingly
p2383
aVor
p2384
aVotherwis
p2385
aV\u2026
asg11
g12
(S'\x07\xe0\x01\x15\x05\x02\x1c\x00\x00\x00'
tRp2386
sg14
Nsg15
VGlitteryAnimal
p2387
sa(dp2388
g3
(lp2389
Vrt
p2390
aV@chairmanofspace
p2391
aV:
aVhttps://t.co/3s2lllygfc
p2392
asg11
g12
(S'\x07\xe0\x01\x15\x05\x01*\x00\x00\x00'
tRp2393
sg14
Nsg15
VGlitteryAnimal
p2394
sa(dp2395
g3
(lp2396
Vrt
p2397
aV@jetgreguar
p2398
aV:
aVhttps://t.co/b7xwp8d5fg
p2399
asg11
g12
(S'\x07\xe0\x01\x15\x05\x01%\x00\x00\x00'
tRp2400
sg14
Nsg15
VGlitteryAnimal
p2401
sa(dp2402
g3
(lp2403
V@chairmanofspace
p2404
aV:
aV3
aVc
asg11
g12
(S'\x07\xe0\x01\x15\x05\x00\x15\x00\x00\x00'
tRp2405
sg14
Nsg15
VGlitteryAnimal
p2406
sa(dp2407
g3
(lp2408
Vthis
p2409
aVyear
p2410
aVi
aVwant
p2411
aVto
p2412
aVbe
p2413
aVoutlawed
p2414
aVin
p2415
aVthe
p2416
aVunited
p2417
aVstates
p2418
aVfor
p2419
aVbeing
p2420
aVa
aVchoking
p2421
aVhazard
p2422
aV@kittenclanclan
p2423
asg11
g12
(S'\x07\xe0\x01\x15\x04\x06\x05\x00\x00\x00'
tRp2424
sg14
Nsg15
VGlitteryAnimal
p2425
sa(dp2426
g3
(lp2427
V@kittenclanclan
p2428
aVbless
p2429
aVu
asg11
g12
(S'\x07\xe0\x01\x15\x04\x043\x00\x00\x00'
tRp2430
sg14
Nsg15
VGlitteryAnimal
p2431
sa(dp2432
g3
(lp2433
Vrt
p2434
aV@kittenclanclan
p2435
aV:
aV@glitteryanimal
p2436
aVyour
p2437
aVwish
p2438
aVcame
p2439
aVtrue
p2440
aVhttps://t.co/qzpp7whf68
p2441
asg11
g12
(S'\x07\xe0\x01\x15\x04\x04-\x00\x00\x00'
tRp2442
sg14
Nsg15
VGlitteryAnimal
p2443
sa(dp2444
g3
(lp2445
V@kittenclanclan
p2446
aVomfg
p2447
asg11
g12
(S'\x07\xe0\x01\x15\x04\x04&\x00\x00\x00'
tRp2448
sg14
Nsg15
VGlitteryAnimal
p2449
sa(dp2450
g3
(lp2451
V@noitsisabel
p2452
asg11
g12
(S"\x07\xe0\x01\x15\x01\x08'\x00\x00\x00"
tRp2453
sg14
Nsg15
VGlitteryAnimal
p2454
sa(dp2455
g3
(lp2456
Vliterally
p2457
aVme
p2458
aVhttps://t.co/xq0lykciv9
p2459
asg11
g12
(S'\x07\xe0\x01\x15\x01\x08\x08\x00\x00\x00'
tRp2460
sg14
Nsg15
VGlitteryAnimal
p2461
sa(dp2462
g3
(lp2463
Vrt
p2464
aV@noitsisabel
p2465
aV:
aVgerard
p2466
aVin
p2467
aVshort
p2468
aVshorts
p2469
aVmore
p2470
aVlike
p2471
aVkill
p2472
aVme
p2473
aVplease
p2474
aV\u2122
aVhttps://t.co/nur2uvcdhk
p2475
asg11
g12
(S'\x07\xe0\x01\x15\x006\x0c\x00\x00\x00'
tRp2476
sg14
Nsg15
VGlitteryAnimal
p2477
sa(dp2478
g3
(lp2479
Va
aVpoorly
p2480
aVdrawn
p2481
aVpicture
p2482
aVof
p2483
aVkylo
p2484
aVren
p2485
aVhaving
p2486
aVa
aVbad
p2487
aVday
p2488
aVhttps://t.co/uu7wy3v3zz
p2489
asg11
g12
(S'\x07\xe0\x01\x14\x13:-\x00\x00\x00'
tRp2490
sg14
Nsg15
VGlitteryAnimal
p2491
sa(dp2492
g3
(lp2493
Vkylo
p2494
aVren
p2495
aVcat
p2496
aVowner
p2497
aVinvites
p2498
aVadam
p2499
aVdriver
p2500
aVto
p2501
aVmeet
p2502
aVhis
p2503
aVlookalike
p2504
aVhttps://t.co/zrwwb0uhp6
p2505
aVcat
p2506
aVto
p2507
aVadam
p2508
aVdriver
p2509
aV:
aV"
aVyou
p2510
aVneed
p2511
aVa
aVteacher
p2512
aV.
aV.
aV.
aV"
asg11
g12
(S'\x07\xe0\x01\x14\x13)#\x00\x00\x00'
tRp2513
sg14
Nsg15
VGlitteryAnimal
p2514
sa(dp2515
g3
(lp2516
Vrelevant
p2517
aVhttps://t.co/puoibthln6
p2518
asg11
g12
(S'\x07\xe0\x01\x14\x13\x1f\x1e\x00\x00\x00'
tRp2519
sg14
Nsg15
VGlitteryAnimal
p2520
sa(dp2521
g3
(lp2522
Vcurrent
p2523
aVmood
p2524
aV:
aVhttps://t.co/bmturbqlur
p2525
asg11
g12
(S'\x07\xe0\x01\x14\x12\x127\x00\x00\x00'
tRp2526
sg14
Nsg15
VGlitteryAnimal
p2527
sa(dp2528
g3
(lp2529
Vthis
p2530
aVis
p2531
aVme
p2532
aVtoday
p2533
aVhttps://t.co/8fjhscdkzs
p2534
asg11
g12
(S'\x07\xe0\x01\x14\x12\x11\x13\x00\x00\x00'
tRp2535
sg14
Nsg15
VGlitteryAnimal
p2536
sa(dp2537
g3
(lp2538
V@chairmanofspace
p2539
aV@shitwaffle
p2540
aVhttps://t.co/ulvrhsuy6l
p2541
asg11
g12
(S'\x07\xe0\x01\x14\x12\r\x1d\x00\x00\x00'
tRp2542
sg14
Nsg15
VGlitteryAnimal
p2543
sa(dp2544
g3
(lp2545
Vd
aV:
asg11
g12
(S'\x07\xe0\x01\x14\x12\x0c\x12\x00\x00\x00'
tRp2546
sg14
Nsg15
VGlitteryAnimal
p2547
sa(dp2548
g3
(lp2549
Vrt
p2550
aV@noitsisabel
p2551
aV:
aVlistening
p2552
aVto
p2553
aVthe
p2554
aVend
p2555
aVof
p2556
aVthe
p2557
aVsharpest
p2558
aVlives
p2559
aVand
p2560
aVthinking
p2561
aVabt
p2562
aVwhen
p2563
aVfrank
p2564
aVand
p2565
aVg
aVwere
p2566
aVfighting
p2567
aVhttps://t.co/lm4aox0vsq
p2568
asg11
g12
(S'\x07\xe0\x01\x14\x12\x03"\x00\x00\x00'
tRp2569
sg14
Nsg15
VGlitteryAnimal
p2570
sa(dp2571
g3
(lp2572
Vrt
p2573
aV@dick_nixon
p2574
aV:
aV"
aVthere
p2575
aVis
p2576
aVnothing
p2577
aVnew
p2578
aVunder
p2579
aVthe
p2580
aVsun
p2581
aV.
aV"
aVhttps://t.co/pqlznm0fek
p2582
asg11
g12
(S'\x07\xe0\x01\x14\x12\x02&\x00\x00\x00'
tRp2583
sg14
Nsg15
VGlitteryAnimal
p2584
sa(dp2585
g3
(lp2586
Vrt
p2587
aV@babeobaggins
p2588
aV:
aVwhy
p2589
aVwould
p2590
aVyou
p2591
aVwant
p2592
aVto
p2593
aVbe
p2594
aVsilent
p2595
aV?
aVhttps://t.co/ha5ooexo1w
p2596
asg11
g12
(S'\x07\xe0\x01\x14\x12\x013\x00\x00\x00'
tRp2597
sg14
Nsg15
VGlitteryAnimal
p2598
sa(dp2599
g3
(lp2600
Vrt
p2601
aV@ayoungvolcano
p2602
aV:
aVan
p2603
aVimportant
p2604
aVphotograph
p2605
aVfor
p2606
aVyour
p2607
aVenjoyment
p2608
aVhttp://t.co/uk3xfxlryj
p2609
asg11
g12
(S'\x07\xe0\x01\x14\x12\x01\x05\x00\x00\x00'
tRp2610
sg14
Nsg15
VGlitteryAnimal
p2611
sa(dp2612
g3
(lp2613
Vrt
p2614
aV@gerardway
p2615
aV:
aVwelcome
p2616
aVto
p2617
aVthe
p2618
aVrain
p2619
aVfestival
p2620
asg11
g12
(S'\x07\xe0\x01\x14\x11(\x0c\x00\x00\x00'
tRp2621
sg14
Nsg15
VGlitteryAnimal
p2622
sa(dp2623
g3
(lp2624
Vrt
p2625
aV@gerardway
p2626
aV:
aVi'm
p2627
aVnot
p2628
aVbritish
p2629
aVenough
p2630
aVto
p2631
aVcall
p2632
aVanything
p2633
aVwellies
p2634
aVso
p2635
aVi
aVcall
p2636
aVthem
p2637
aVbritish
p2638
aVrain-festival
p2639
aVboots
p2640
asg11
g12
(S'\x07\xe0\x01\x14\x11(\x05\x00\x00\x00'
tRp2641
sg14
Nsg15
VGlitteryAnimal
p2642
sa(dp2643
g3
(lp2644
Vrt
p2645
aV@gerardway
p2646
aV:
aV\U0001f3a4
aViiiiiiiiiiit's
p2647
aVraaaaiiiiniiiing
p2648
aVtodayyyyy
p2649
aV.
aV.
aV.
aV.
asg11
g12
(S'\x07\xe0\x01\x14\x11(\x00\x00\x00\x00'
tRp2650
sg14
Nsg15
VGlitteryAnimal
p2651
sa(dp2652
g3
(lp2653
Vrt
p2654
aV@gerardway
p2655
aV:
aVitttttttttt's
p2656
aVraaaaaaaining
p2657
aVtoday
p2658
aV.
aV.
aV.
aV.
asg11
g12
(S"\x07\xe0\x01\x14\x11'8\x00\x00\x00"
tRp2659
sg14
Nsg15
VGlitteryAnimal
p2660
sa(dp2661
g3
(lp2662
Vrt
p2663
aV@loveiyjoseph
p2664
aV:
aVdual
p2665
aVdrumming
p2666
aVis
p2667
aVso
p2668
aViconic
p2669
aVand
p2670
aVlit
p2671
aVhttps://t.co/ayk1gniysh
p2672
asg11
g12
(S"\x07\xe0\x01\x14\x11'\x15\x00\x00\x00"
tRp2673
sg14
Nsg15
VGlitteryAnimal
p2674
sa(dp2675
g3
(lp2676
Vrt
p2677
aV@musclemanishot
p2678
aV:
aVhttps://t.co/dpsspedv0h
p2679
asg11
g12
(S'\x07\xe0\x01\x14\x11%(\x00\x00\x00'
tRp2680
sg14
Nsg15
VGlitteryAnimal
p2681
sa(dp2682
g3
(lp2683
Vrt
p2684
aV@wayler0
p2685
aV:
aVhttps://t.co/qoc3tdaykq
p2686
asg11
g12
(S'\x07\xe0\x01\x14\x11%\x18\x00\x00\x00'
tRp2687
sg14
Nsg15
VGlitteryAnimal
p2688
sa(dp2689
g3
(lp2690
Vthis
p2691
aVyear
p2692
aVi
aVwant
p2693
aVto
p2694
aVbe
p2695
aVkinder
p2696
asg11
g12
(S'\x07\xe0\x01\x14\x11!7\x00\x00\x00'
tRp2697
sg14
Nsg15
VGlitteryAnimal
p2698
sa(dp2699
g3
(lp2700
Vrt
p2701
aV@kevspace
p2702
aV:
aVthe
p2703
aVoutdated
p2704
aVslang
p2705
aVthat
p2706
aVkeeps
p2707
aVon
p2708
aVgiving
p2709
aV:
aVi
aVjust
p2710
aVlearned
p2711
aVq-tips
p2712
aVused
p2713
aVto
p2714
aVbe
p2715
aVknown
p2716
aVas
p2717
aVbaby
p2718
aVgays
p2719
aVhttps://t.co/icjjo4ujg0
p2720
aVhttps
p2721
aV:/
p2722
aV/
aV\u2026
asg11
g12
(S'\x07\xe0\x01\x14\x11\x1f\x00\x00\x00\x00'
tRp2723
sg14
Nsg15
VGlitteryAnimal
p2724
sa(dp2725
g3
(lp2726
Vok
p2727
aVso
p2728
aVi
aVdont
p2729
aVhave
p2730
aVan
p2731
aVofficial
p2732
aVautism
p2733
aVdiagnosis
p2734
aVbut
p2735
aVits
p2736
aVmoments
p2737
aVlike
p2738
aVthis
p2739
aVwhere
p2740
aVi
aVam
p2741
aVjust
p2742
aVlike
p2743
aVdefinitely
p2744
aVyes
p2745
aVi
aVam
p2746
aVsomewhere
p2747
aVon
p2748
aVthe
p2749
aVspectrum
p2750
asg11
g12
(S'\x07\xe0\x01\x14\x075(\x00\x00\x00'
tRp2751
sg14
Nsg15
VGlitteryAnimal
p2752
sa(dp2753
g3
(lp2754
Vhey
p2755
aVpost
p2756
aVthings
p2757
aVthat
p2758
aVmake
p2759
aVyou
p2760
aVless
p2761
aVanxious
p2762
asg11
g12
(S'\x07\xe0\x01\x14\x071\x0e\x00\x00\x00'
tRp2763
sg14
Nsg15
VGlitteryAnimal
p2764
sa(dp2765
g3
(lp2766
V@blackhands4life
p2767
aVso
p2768
aVlike
p2769
aV,
aVits
p2770
aVa
aVbig
p2771
aVhouse
p2772
aVwith
p2773
aV12
p2774
aVppl
p2775
aVin
p2776
aVit
p2777
aVand
p2778
aVnormally
p2779
aVpeople
p2780
aVare
p2781
aVquiet
p2782
aVand
p2783
aVconsiderate
p2784
aVbut
p2785
aVi
aVthink
p2786
aVsome
p2787
aVppl
p2788
aVare
p2789
aVvisiting
p2790
asg11
g12
(S'\x07\xe0\x01\x14\x07"0\x00\x00\x00'
tRp2791
sg14
Nsg15
VGlitteryAnimal
p2792
sa(dp2793
g3
(lp2794
Vrt
p2795
aV@mcrfive
p2796
aV:
aVhttps://t.co/yc08xtgatd
p2797
asg11
g12
(S'\x07\xe0\x01\x14\x07\x1e3\x00\x00\x00'
tRp2798
sg14
Nsg15
VGlitteryAnimal
p2799
sa.