(lp1
(dp2
S'text'
p3
(lp4
Vrt
p5
aV@andyjayhawk
p6
aV:
aVtv
p7
aVreporter
p8
aVsullenly
p9
aVadds
p10
aVg-cal
p11
aVreminder
p12
aVfor
p13
aVnine
p14
aVmonths
p15
aVfrom
p16
aVnow
p17
aVfor
p18
aV"
aV1
aVst
p19
aVblizzard
p20
aVbabies
p21
aVborn
p22
aV"
aVfollow-up
p23
asS'created_at'
p24
cdatetime
datetime
p25
(S'\x07\xe0\x01\x18\x01\x16/\x00\x00\x00'
tRp26
sS'lat/long'
p27
NsS'name'
p28
Vgoldfine
p29
sa(dp30
g3
(lp31
V@mathowie
p32
aVi'd
p33
aValso
p34
aVadd
p35
aV"
aVi'll
p36
aVpay
p37
aVextra
p38
aVif
p39
aVyou
p40
aVpromise
p41
aVnot
p42
aVto
p43
aVuse
p44
aVontrac
p45
aV.
aV"
asg24
g25
(S'\x07\xe0\x01\x17\x06:$\x00\x00\x00'
tRp46
sg27
Nsg28
Vgoldfine
p47
sa(dp48
g3
(lp49
V@pandarevolt
p50
aVto
p51
aVbe
p52
aVfair
p53
aV@_tc_
p54
aVis
p55
aVactually
p56
aVsick
p57
aV,
aVbut
p58
aVit
p59
aVwas
p60
aVstill
p61
aVhilarious
p62
aVand
p63
aVhe
p64
aVmay
p65
aVnot
p66
aVremember
p67
aVit
p68
aVin
p69
aVthe
p70
aVmorning
p71
aV!
asg24
g25
(S'\x07\xe0\x01\x17\x06..\x00\x00\x00'
tRp72
sg27
Nsg28
Vgoldfine
p73
sa(dp74
g3
(lp75
V"
aVif
p76
aVthere
p77
aVwere
p78
aVa
aVbark
p79
aVbox
p80
aVfor
p81
aVchickens
p82
aV,
aVwould
p83
aVit
p84
aVbe
p85
aVbawkk
p86
aVbox
p87
aV?
aV"
aV-
aV@_tc_
p88
aV,
aVlaughing
p89
aVto
p90
aVhimself
p91
aV,
aVhigh
p92
aVon
p93
aVcough
p94
aVsyrup
p95
aVwith
p96
aVcodeine
p97
aV\U0001f413
asg24
g25
(S'\x07\xe0\x01\x17\x059\x10\x00\x00\x00'
tRp98
sg27
Nsg28
Vgoldfine
p99
sa(dp100
g3
(lp101
Vrt
p102
aV@cocoabutterbf
p103
aV:
aVit's
p104
aV5
aV:
aV32
p105
aVpm
p106
aV,
aVhere's
p107
aVa
aVdog
p108
aVjumping
p109
aVdouble
p110
aVdutch
p111
aVhttps://t.co/xhlyvh8wu0
p112
asg24
g25
(S'\x07\xe0\x01\x17\x00\x19%\x00\x00\x00'
tRp113
sg27
Nsg28
Vgoldfine
p114
sa(dp115
g3
(lp116
V@cocoabutterbf
p117
aV@brokeymcpoverty
p118
aVhahha
p119
aVi
aVjust
p120
aVun-muted
p121
aVeven
p122
aVbetter
p123
asg24
g25
(S'\x07\xe0\x01\x17\x00\x19\x1f\x00\x00\x00'
tRp124
sg27
Nsg28
Vgoldfine
p125
sa(dp126
g3
(lp127
V@cocoabutterbf
p128
aV@brokeymcpoverty
p129
aVhow
p130
aVthe
p131
aVhell
p132
aV?
aV!
aV?
aV!
asg24
g25
(S'\x07\xe0\x01\x17\x00\x186\x00\x00\x00'
tRp133
sg27
Nsg28
Vgoldfine
p134
sa(dp135
g3
(lp136
V.
aV@cat_beltane
p137
aVlovingly
p138
aVdefines
p139
aV@metafilter
p140
aV:
aV"
aVa
aVlot
p141
aVof
p142
aVsmall
p143
aV,
aVweird
p144
aV,
aVhuman
p145
aVmoments
p146
aVwith
p147
aVno
p148
aVreal
p149
aV"
aVpoint
p150
aV"
aVat
p151
aVall
p152
aV.
aV"
aVhttps://t.co/yzzwjgripr
p153
asg24
g25
(S'\x07\xe0\x01\x16\x05,\x1e\x00\x00\x00'
tRp154
sg27
Nsg28
Vgoldfine
p155
sa(dp156
g3
(lp157
V@bitmojiapp
p158
aVwhy
p159
aVno
p160
aVdogmoji
p161
aVor
p162
aVcatmoji
p163
aV?
aVi'd
p164
aVpay
p165
aVfor
p166
aVthat
p167
aVapp
p168
aV!
asg24
g25
(S'\x07\xe0\x01\x16\x01\x19\t\x00\x00\x00'
tRp169
sg27
Nsg28
Vgoldfine
p170
sa(dp171
g3
(lp172
V3
aVonboarding
p173
aVtips
p174
aVthat
p175
aVcost
p176
aValmost
p177
aVnothing
p178
aVand
p179
aVmake
p180
aVnew
p181
aVhires
p182
aVwildly
p183
aVsuccessful
p184
aVhttps://t.co/fai0etint7
p185
asg24
g25
(S'\x07\xe0\x01\x15\x16\x1a\x15\x00\x00\x00'
tRp186
sg27
Nsg28
Vgoldfine
p187
sa(dp188
g3
(lp189
V@replyall
p190
aV@pjvogt
p191
aV@agoldmund
p192
aVyou
p193
aVguys
p194
aVshould
p195
aVdo
p196
aVan
p197
aVepisode
p198
aVabout
p199
aVthe
p200
aVweird
p201
aVworld
p202
aVof
p203
aVyelp
p204
aVelite
p205
aV.
aVhttps://t.co/xuzyuougq7
p206
asg24
g25
(S'\x07\xe0\x01\x15\x15-"\x00\x00\x00'
tRp207
sg27
Nsg28
Vgoldfine
p208
sa(dp209
g3
(lp210
Vwhy
p211
aVis
p212
aVthere
p213
aVno
p214
aVdogmoji
p215
aV?
aVi
aVwould
p216
aVpay
p217
aVfor
p218
aVthat
p219
aV.
asg24
g25
(S'\x07\xe0\x01\x15\x15\x043\x00\x00\x00'
tRp220
sg27
Nsg28
Vgoldfine
p221
sa(dp222
g3
(lp223
V@griph
p224
aV@cat_beltane
p225
aVat
p226
aVleast
p227
aVshe
p228
aVsaid
p229
aV"
aVmy
p230
aVhusband
p231
aV"
aVand
p232
aVnot
p233
aV"
aVdh
p234
aV"
aVor
p235
aV"
aVhubs
p236
aV"
aVor
p237
aV"
aVmy
p238
aVhubby
p239
aV"
aVbarf
p240
asg24
g25
(S'\x07\xe0\x01\x15\x13\x062\x00\x00\x00'
tRp241
sg27
Nsg28
Vgoldfine
p242
sa(dp243
g3
(lp244
Vrt
p245
aV@mathowie
p246
aV:
aVevery
p247
aVecommerce
p248
aVsite
p249
aVshould
p250
aVhave
p251
aVa
aVshipping
p252
aVoption
p253
aVof
p254
aV"
aVfor
p255
aVthe
p256
aVlove
p257
aVof
p258
aVchrist
p259
aVuse
p260
aVanything
p261
aVbut
p262
aVusps
p263
aVto
p264
aVsend
p265
aVmy
p266
aVstuff
p267
aV"
asg24
g25
(S'\x07\xe0\x01\x15\x12\x14#\x00\x00\x00'
tRp268
sg27
Nsg28
Vgoldfine
p269
sa(dp270
g3
(lp271
V@philnelson
p272
aV@sfmta_muni
p273
aVif
p274
aVonly
p275
aVthere
p276
aVwas
p277
aVa
aV@bayareaclipper
p278
aVapp
p279
aV,
aVthat
p280
aVwould
p281
aVbe
p282
aVbetter
p283
aV.
aVbut
p284
aVmuni
p285
aVis
p286
aVa
aVnice
p287
aVstep
p288
aV.
asg24
g25
(S'\x07\xe0\x01\x15\x12\x14\x19\x00\x00\x00'
tRp289
sg27
Nsg28
Vgoldfine
p290
sa(dp291
g3
(lp292
V@gjcharlet
p293
aVi
aVlove
p294
aVthose
p295
aVa
aVlittle
p296
aVtoo
p297
aVmuch
p298
asg24
g25
(S'\x07\xe0\x01\x15\x11*\x03\x00\x00\x00'
tRp299
sg27
Nsg28
Vgoldfine
p300
sa(dp301
g3
(lp302
V@cjneary
p303
aV@bmluse
p304
aVyou
p305
aVneed
p306
aVto
p307
aVtry
p308
aVsleepphones
p309
aVwith
p310
aVyour
p311
aVnight-time
p312
aVpodcasts
p313
aV/
aVmusic
p314
aV/
aVetc
p315
aV.
aVthe
p316
aVbest
p317
aV.
aVhttps://t.co/statu4gtpu
p318
asg24
g25
(S'\x07\xe0\x01\x15\x06\x06\x04\x00\x00\x00'
tRp319
sg27
Nsg28
Vgoldfine
p320
sa(dp321
g3
(lp322
Vi
aVwould
p323
aVlisten
p324
aVto
p325
aV@samplershow
p326
aVjust
p327
aVfor
p328
aVthe
p329
aVmusic
p330
aV.
aVi
aVwas
p331
aVjamming
p332
aVout
p333
aVto
p334
aVthe
p335
aVintro
p336
aV!
aV@micahvellian
p337
aVwhere
p338
aVcan
p339
aVi
aVget
p340
aVthat
p341
aVtrack
p342
aV?
asg24
g25
(S'\x07\xe0\x01\x15\x06\x026\x00\x00\x00'
tRp343
sg27
Nsg28
Vgoldfine
p344
sa(dp345
g3
(lp346
V@cat_beltane
p347
aVd'awwwwwww
p348
asg24
g25
(S'\x07\xe0\x01\x14\x14\x18,\x00\x00\x00'
tRp349
sg27
Nsg28
Vgoldfine
p350
sa(dp351
g3
(lp352
Vrt
p353
aV@dog_rates
p354
aV:
aVthis
p355
aVis
p356
aVricky
p357
aV.
aVhe's
p358
aVbeing
p359
aVescorted
p360
aVout
p361
aVof
p362
aVthe
p363
aVdog
p364
aVpark
p365
aVfor
p366
aVtalking
p367
aVshit
p368
aVabout
p369
aVthe
p370
aVother
p371
aVdogs
p372
aV.
aV8
aV/
aV10
p373
aVnot
p374
aVcool
p375
aVricky
p376
aVhttps://t.
p377
aV\u2026
asg24
g25
(S'\x07\xe0\x01\x14\x04\x14\n\x00\x00\x00'
tRp378
sg27
Nsg28
Vgoldfine
p379
sa(dp380
g3
(lp381
Vanyone
p382
aVelse
p383
aVthink
p384
aVthat
p385
aVsecond-day
p386
aVking
p387
aVcake
p388
aVis
p389
aVbetter
p390
aVthan
p391
aVfresh
p392
aV?
asg24
g25
(S'\x07\xe0\x01\x14\x04\x0b\x1f\x00\x00\x00'
tRp393
sg27
Nsg28
Vgoldfine
p394
sa(dp395
g3
(lp396
V@aaronaxelsen
p397
aVcheck
p398
aVout
p399
aVyour
p400
aVfearless
p401
aVleader
p402
aV@yflband
p403
aVhttps://t.co/uxtynsizmt
p404
aVi
aVthink
p405
aVthey
p406
aVwill
p407
aVbe
p408
aVright
p409
aVup
p410
aVyour
p411
aValley
p412
asg24
g25
(S'\x07\xe0\x01\x14\x022\x1b\x00\x00\x00'
tRp413
sg27
Nsg28
Vgoldfine
p414
sa(dp415
g3
(lp416
V@williamturton
p417
aV@mat
p418
aVthe
p419
aVirony
p420
aVof
p421
aVthe
p422
aVfact
p423
aVthat
p424
aVan
p425
aV"
aVinstagram
p426
aVstar
p427
aV"
aVabbreviated
p428
aV"
aVaccount
p429
aV"
aVas
p430
aV"
aVact
p431
aV"
aVis
p432
aVnot
p433
aVlost
p434
aVon
p435
aVme
p436
asg24
g25
(S'\x07\xe0\x01\x14\x02,\x13\x00\x00\x00'
tRp437
sg27
Nsg28
Vgoldfine
p438
sa(dp439
g3
(lp440
V@sozmonsta
p441
aVfair
p442
aVgrinds
p443
aV?
asg24
g25
(S'\x07\xe0\x01\x13\x15"\x13\x00\x00\x00'
tRp444
sg27
Nsg28
Vgoldfine
p445
sa(dp446
g3
(lp447
V@sozmonsta
p448
aVrue
p449
aV?
asg24
g25
(S'\x07\xe0\x01\x13\x15\x1c\r\x00\x00\x00'
tRp450
sg27
Nsg28
Vgoldfine
p451
sa(dp452
g3
(lp453
Vrt
p454
aV@_tc_
p455
aV:
aVcaught
p456
aVa
aVwhiff
p457
aVof
p458
aVking
p459
aVcake
p460
aVfrom
p461
aVdown
p462
aVthe
p463
aVhall
p464
aVand
p465
aVnow
p466
aVi
aVknow
p467
aVhow
p468
aVa
aVshark
p469
aVfeels
p470
aV.
asg24
g25
(S'\x07\xe0\x01\x13\x13.\x03\x00\x00\x00'
tRp471
sg27
Nsg28
Vgoldfine
p472
sa(dp473
g3
(lp474
Vrt
p475
aV@_tc_
p476
aV:
aV@anildash
p477
aVthere's
p478
aVa
aVperception
p479
aVthat
p480
aVcollege
p481
aVwill
p482
aVteach
p483
aVyou
p484
aVwhat
p485
aVyou
p486
aVwant
p487
aVto
p488
aVdo
p489
aVwith
p490
aVyour
p491
aVlife
p492
aV.
asg24
g25
(S"\x07\xe0\x01\x13\x13' \x00\x00\x00"
tRp493
sg27
Nsg28
Vgoldfine
p494
sa(dp495
g3
(lp496
Vrt
p497
aV@webgility
p498
aV:
aVthere's
p499
aVstill
p500
aVroom
p501
aVin
p502
aVour
p503
aVbiggest
p504
aV2016
p505
aV#ecommerce
p506
aVgame
p507
aVchangers
p508
aV#webinar
p509
aV.
aVwe
p510
aVknow
p511
aVwhere
p512
aVthe
p513
aVprofits
p514
aVhide
p515
aV.
aVregister
p516
aV:
aVhttps
p517
aV:/
p518
aV/
aV\u2026
asg24
g25
(S'\x07\xe0\x01\x13\x13#\x12\x00\x00\x00'
tRp519
sg27
Nsg28
Vgoldfine
p520
sa(dp521
g3
(lp522
Vhow
p523
aVto
p524
aVcreate
p525
aVa
aVdata-driven
p526
aVculture
p527
aVin
p528
aVyour
p529
aVbusiness
p530
aV,
aVwith
p531
aVinsight
p532
aVfrom
p533
aV@webgility
p534
aV'
aVs
aV@paragmamnani
p535
aVhttps://t.co/yfetmrhxpu
p536
asg24
g25
(S'\x07\xe0\x01\x13\x13\x0e.\x00\x00\x00'
tRp537
sg27
Nsg28
Vgoldfine
p538
sa(dp539
g3
(lp540
V@desjardins
p541
aVok
p542
aVadmittedly
p543
aVthis
p544
aVis
p545
aVnot
p546
aVa
aVvery
p547
aVcute
p548
aVpicture
p549
aV,
aVbut
p550
aVi
aVmean
p551
aVcome
p552
aVon
p553
aVhe
p554
aVlooks
p555
aVlike
p556
aVa
aVreject
p557
aVmuppet
p558
aVhttps://t.co/vxzmaowwvl
p559
asg24
g25
(S'\x07\xe0\x01\x13\x05\x1f&\x00\x00\x00'
tRp560
sg27
Nsg28
Vgoldfine
p561
sa(dp562
g3
(lp563
V@dog_rates
p564
aVthis
p565
aVis
p566
aVhelo
p567
aV.
aVhe
p568
aVlooks
p569
aVlike
p570
aVa
aVreject
p571
aVmuppet
p572
aVand
p573
aVthat's
p574
aVwhy
p575
aVwe
p576
aVlove
p577
aVhim
p578
aV!
aVhttps://t.co/gz68h6x6bl
p579
asg24
g25
(S'\x07\xe0\x01\x13\x05\x15\x14\x00\x00\x00'
tRp580
sg27
Nsg28
Vgoldfine
p581
sa(dp582
g3
(lp583
Veverything
p584
aVis
p585
aVbetter
p586
aVwith
p587
aVking
p588
aVcake
p589
aV.
asg24
g25
(S'\x07\xe0\x01\x13\x04\x01-\x00\x00\x00'
tRp590
sg27
Nsg28
Vgoldfine
p591
sa(dp592
g3
(lp593
V@agoldmund
p594
aVi
aVam
p595
aVso
p596
aVobsessed
p597
aVwith
p598
aVthat
p599
aVshow
p600
aV!
asg24
g25
(S'\x07\xe0\x01\x13\x04\x01\x16\x00\x00\x00'
tRp601
sg27
Nsg28
Vgoldfine
p602
sa(dp603
g3
(lp604
Vsix
p605
aVtips
p606
aVfor
p607
aVan
p608
aVincredibly
p609
aVeffective
p610
aVcover
p611
aVletter
p612
aVby
p613
aV@askamanager
p614
aVhttps://t.co/yg1xvty0rt
p615
asg24
g25
(S'\x07\xe0\x01\x12\x15\x0f\x1c\x00\x00\x00'
tRp616
sg27
Nsg28
Vgoldfine
p617
sa(dp618
g3
(lp619
V#ecommerce
p620
aVbusiness
p621
aVintelligence
p622
aV:
aVthe
p623
aVgood
p624
aVand
p625
aVthe
p626
aVbad
p627
aV,
aVbut
p628
aVmostly
p629
aVthe
p630
aVbad
p631
aV.
aV#betterbi
p632
aV#highlight
p633
aVhttps://t.co/ay396rnumz
p634
aVvia
p635
aV@webgility
p636
asg24
g25
(S'\x07\xe0\x01\x12\x12\x15 \x00\x00\x00'
tRp637
sg27
Nsg28
Vgoldfine
p638
sa(dp639
g3
(lp640
Vrt
p641
aV@sfmta_muni
p642
aV:
aVconnect
p643
aVto
p644
aValertsf
p645
aV,
aVthe
p646
aV#sf
p647
aVemergency
p648
aVtext
p649
aValert
p650
aVsystem
p651
aV.
aVjust
p652
aVtext
p653
aV\u201c
aValertsf
p654
aV\u201d
aVto
p655
aV888
p656
aV-
aV777
p657
aVto
p658
aVsign
p659
aVup
p660
aV,
aVor
p661
aV"
aVsb50
p662
aV"
aVfor
p663
aVsuper
p664
aVbow
p665
aV\u2026
asg24
g25
(S'\x07\xe0\x01\x12\x02/"\x00\x00\x00'
tRp666
sg27
Nsg28
Vgoldfine
p667
sa(dp668
g3
(lp669
Vknow
p670
aVanyone
p671
aVwho
p672
aVis
p673
aVlooking
p674
aVfor
p675
aVa
aV1
aVbr
p676
aVin
p677
aVthe
p678
aVinner
p679
aVsunset
p680
aV?
aVopen
p681
aVhouse
p682
aVmonday
p683
aV:
aVhttps://t.co/fiy32dufoh
p684
aV$
aV2800
p685
aVdw
p686
aVpets
p687
aVparking
p688
aVlaundry
p689
asg24
g25
(S'\x07\xe0\x01\x12\x01\x11\x01\x00\x00\x00'
tRp690
sg27
Nsg28
Vgoldfine
p691
sa(dp692
g3
(lp693
Vrt
p694
aV@aljwhite
p695
aV:
aVlet's
p696
aVtake
p697
aVa
aVmoment
p698
aVto
p699
aVwatch
p700
aVa
aVcat
p701
aVscare
p702
aVanother
p703
aVcat
p704
aVby
p705
aVsneezing
p706
aV.
aVhttps://t.co/fduqoyk7x5
p707
asg24
g25
(S'\x07\xe0\x01\x11\x16\x103\x00\x00\x00'
tRp708
sg27
Nsg28
Vgoldfine
p709
sa(dp710
g3
(lp711
Vpretty
p712
aVmuch
p713
aVhow
p714
aVi
aVfelt
p715
aVlast
p716
aVtime
p717
aVi
aVwas
p718
aVjob
p719
aVsearching
p720
aVhttps://t.co/wjqi3jabq6
p721
asg24
g25
(S'\x07\xe0\x01\x10\x14\n\x01\x00\x00\x00'
tRp722
sg27
Nsg28
Vgoldfine
p723
sa(dp724
g3
(lp725
V@gjcharlet
p726
aVlike
p727
aV,
aVi
aVonly
p728
aVrecently
p729
aVheard
p730
aVthe
p731
aVphrase
p732
aV"
aVboozy
p733
aVbrunch
p734
aV"
aVand
p735
aVthe
p736
aVadjective
p737
aVseems
p738
aVredundant
p739
aV.
asg24
g25
(S'\x07\xe0\x01\x10\x12\x08\x10\x00\x00\x00'
tRp740
sg27
Nsg28
Vgoldfine
p741
sa(dp742
g3
(lp743
V@gjcharlet
p744
aVisn't
p745
aVall
p746
aVbrunch
p747
aVin
p748
aVnola
p749
aV"
aVboozy
p750
aVbrunch
p751
aV"
aV?
asg24
g25
(S'\x07\xe0\x01\x10\x12\x072\x00\x00\x00'
tRp752
sg27
Nsg28
Vgoldfine
p753
sa(dp754
g3
(lp755
Vrt
p756
aV@webgility
p757
aV:
aVmust-see
p758
aV#webinar
p759
aV"
aVbiggest
p760
aV#ecommerce
p761
aVgame
p762
aVchangers
p763
aVof
p764
aV2016
p765
aV"
aV1
aV/
aV26
p766
aV/
aV16
p767
aV10
p768
aVam
p769
aVpst
p770
aVhttps://t.co/ma7xycdtlv
p771
aV#highlight
p772
aVhttps://t.
p773
aV\u2026
asg24
g25
(S'\x07\xe0\x01\x0f\x16\x0e#\x00\x00\x00'
tRp774
sg27
Nsg28
Vgoldfine
p775
sa(dp776
g3
(lp777
Vrt
p778
aV@sfmta_muni
p779
aV:
aVconnect
p780
aVto
p781
aValertsf
p782
aV-
aVthe
p783
aV#sf
p784
aVemergency
p785
aVtext
p786
aValert
p787
aVsystem
p788
aV.
aVjust
p789
aVtext
p790
aV\u201c
aValertsf
p791
aV\u201d
aVto
p792
aV888
p793
aV-
aV777
p794
aV&
aVamp
p795
aV;
aVyou
p796
aVare
p797
aVall
p798
aVset
p799
aV.
aV#sb50
p800
asg24
g25
(S'\x07\xe0\x01\x0e\x11\x14:\x00\x00\x00'
tRp801
sg27
Nsg28
Vgoldfine
p802
sa(dp803
g3
(lp804
V@joliekerr
p805
aVthanks
p806
aV!
aV@_tc_
p807
aVis
p808
aVdiligently
p809
aVworking
p810
aVon
p811
aVa
aVstubborn
p812
aVstain
p813
aV.
aVi'm
p814
aVproud
p815
aVthat
p816
aVhe
p817
aVknew
p818
aVto
p819
aVuse
p820
aVcold
p821
aVwater
p822
aVon
p823
aVa
aVblood
p824
aVstain
p825
aV!
asg24
g25
(S'\x07\xe0\x01\x0e\x11\x14\x01\x00\x00\x00'
tRp826
sg27
Nsg28
Vgoldfine
p827
sa(dp828
g3
(lp829
V@joliekerr
p830
aVhow
p831
aVlong
p832
aVcan
p833
aVyou
p834
aVleave
p835
aVzout
p836
aVon
p837
aVbefore
p838
aVlaundering
p839
aV?
asg24
g25
(S'\x07\xe0\x01\x0e\x05,\x14\x00\x00\x00'
tRp840
sg27
Nsg28
Vgoldfine
p841
sa(dp842
g3
(lp843
Vrt
p844
aV@dog_rates
p845
aV:
aVthis
p846
aVpupper
p847
aVforgot
p848
aVhow
p849
aVto
p850
aVwalk
p851
aV.
aV12
p852
aV/
aV10
p853
aVhappens
p854
aVto
p855
aVall
p856
aVof
p857
aVus
p858
aV(
aVvid
p859
aVby
p860
aV@bbuckley96
p861
aV)
aVhttps://t.co/kftrksouu3
p862
asg24
g25
(S'\x07\xe0\x01\x0e\x05!;\x00\x00\x00'
tRp863
sg27
Nsg28
Vgoldfine
p864
sa(dp865
g3
(lp866
Vrt
p867
aV@dog_rates
p868
aV:
aVthis
p869
aVis
p870
aVbarry
p871
aV.
aVhe's
p872
aVvery
p873
aVfast
p874
aV.
aVi
aVhope
p875
aVhe
p876
aVfinds
p877
aVwhat
p878
aVhe's
p879
aVlooking
p880
aVfor
p881
aV.
aV10
p882
aV/
aV10
p883
aV(
aVvid
p884
aVby
p885
aV@keeganwolfe33
p886
aV)
aVhttps://t.co/ntasyvbiio
p887
asg24
g25
(S'\x07\xe0\x01\x0e\x05!\x03\x00\x00\x00'
tRp888
sg27
Nsg28
Vgoldfine
p889
sa(dp890
g3
(lp891
Vcheck
p892
aVout
p893
aV@thebaybridged
p894
aV'
aVs
aVfeature
p895
aVabout
p896
aV@yflband
p897
aV!
aVhttps://t.co/jubqubdt3w
p898
asg24
g25
(S'\x07\xe0\x01\x0e\x00\x17*\x00\x00\x00'
tRp899
sg27
Nsg28
Vgoldfine
p900
sa(dp901
g3
(lp902
V@sfmta_muni
p903
aVi
aVcan't
p904
aVtell
p905
aVfrom
p906
aVthe
p907
aVmaps
p908
aV.
aVwill
p909
aVthe
p910
aVembarcadero
p911
aVmuni
p912
aV/
aVbart
p913
aVstation
p914
aVbe
p915
aVopen
p916
aVduring
p917
aVsuperbowl
p918
aVmadness
p919
aV?
asg24
g25
(S'\x07\xe0\x01\r\x13\x1d\x00\x00\x00\x00'
tRp920
sg27
Nsg28
Vgoldfine
p921
sa(dp922
g3
(lp923
Vrt
p924
aV@thefaj
p925
aV:
aVuber
p926
aVdoesn't
p927
aVcare
p928
aVabout
p929
aVyour
p930
aVsafety
p931
aV.
aVhttps://t.co/g0jno0rozu
p932
asg24
g25
(S"\x07\xe0\x01\r\x12'\x15\x00\x00\x00"
tRp933
sg27
Nsg28
Vgoldfine
p934
sa(dp935
g3
(lp936
Vrt
p937
aV@thefaj
p938
aV:
aVuber
p939
aVhates
p940
aVpregnant
p941
aVwomen
p942
aV.
aVhttps://t.co/ku70ayxxwk
p943
asg24
g25
(S"\x07\xe0\x01\r\x12'\x12\x00\x00\x00"
tRp944
sg27
Nsg28
Vgoldfine
p945
sa(dp946
g3
(lp947
V@thefaj
p948
aV"
aVindependent
p949
aVcontractors
p950
aV"
aVugh
p951
asg24
g25
(S"\x07\xe0\x01\r\x12'\x07\x00\x00\x00"
tRp952
sg27
Nsg28
Vgoldfine
p953
sa(dp954
g3
(lp955
Vrt
p956
aV@vnaylon
p957
aV:
aVyour
p958
aVsegmentation
p959
aVis
p960
aVshowing
p961
aVhttps://t.co/d7dlqho6qz
p962
asg24
g25
(S"\x07\xe0\x01\r\x01'\x0f\x00\x00\x00"
tRp963
sg27
Nsg28
Vgoldfine
p964
sa(dp965
g3
(lp966
Vrt
p967
aV@webgility
p968
aV:
aVwebgility
p969
aVlaunches
p970
aVbusiness
p971
aVintelligence
p972
aVplatform
p973
aVhighlight
p974
aVhttps://t.co/ui8eogdiup
p975
asg24
g25
(S'\x07\xe0\x01\x0c\x14 \x0b\x00\x00\x00'
tRp976
sg27
Nsg28
Vgoldfine
p977
sa(dp978
g3
(lp979
V@afg410
p980
aVif
p981
aVi'd
p982
aVhad
p983
aVa
aVcane
p984
aVi
aVwould
p985
aVhave
p986
aVbeaten
p987
aVthis
p988
aVguy
p989
aVover
p990
aVthe
p991
aVhead
p992
aVwith
p993
aVit
p994
aV!
asg24
g25
(S'\x07\xe0\x01\x0c\x05\n4\x00\x00\x00'
tRp995
sg27
Nsg28
Vgoldfine
p996
sa(dp997
g3
(lp998
Voooh
p999
aV,
aVa
aVnew
p1000
aV@hearmillennial
p1001
aV!
asg24
g25
(S'\x07\xe0\x01\x0c\x03\x14\x02\x00\x00\x00'
tRp1002
sg27
Nsg28
Vgoldfine
p1003
sa(dp1004
g3
(lp1005
Vnothing
p1006
aVcompletes
p1007
aVmy
p1008
aVday
p1009
aVlike
p1010
aVarguing
p1011
aVwith
p1012
aVa
aVman
p1013
aVon
p1014
aVmuni
p1015
aVas
p1016
aVto
p1017
aVwhether
p1018
aVor
p1019
aVnot
p1020
aVi
aVam
p1021
aVdisabled
p1022
aV.
aVi
aVassure
p1023
aVyou
p1024
aV,
aVsir
p1025
aV,
aVthis
p1026
aVis
p1027
aVnot
p1028
aVa
aVvanity
p1029
aVscar
p1030
aV.
asg24
g25
(S'\x07\xe0\x01\x0c\x016\x08\x00\x00\x00'
tRp1031
sg27
Nsg28
Vgoldfine
p1032
sa(dp1033
g3
(lp1034
Vi
aVhate
p1035
aV*
aVlooking
p1036
aV*
aVable-bodied
p1037
aVand
p1038
aVgetting
p1039
aVstared
p1040
aVat
p1041
aVwhile
p1042
aVsitting
p1043
aVin
p1044
aVthe
p1045
aVfront
p1046
aVof
p1047
aVmuni
p1048
aV.
aVi
aVam
p1049
aVdisabled
p1050
aV,
aVi
aVpromise
p1051
aV!
asg24
g25
(S"\x07\xe0\x01\x0c\x01$'\x00\x00\x00"
tRp1052
sg27
Nsg28
Vgoldfine
p1053
sa(dp1054
g3
(lp1055
V@sfmta_muni
p1056
aVthat's
p1057
aVa
aVhuge
p1058
aVgap
p1059
aV!
aVwhat
p1060
aVhappened
p1061
aVto
p1062
aVthe
p1063
aVghosted
p1064
aVbus
p1065
aV?
asg24
g25
(S'\x07\xe0\x01\x0c\x01\x1d\x19\x00\x00\x00'
tRp1066
sg27
Nsg28
Vgoldfine
p1067
sa(dp1068
g3
(lp1069
V@sfmta_muni
p1070
aVdoes
p1071
aVthe
p1072
aV7
aVx
aVever
p1073
aVstop
p1074
aVoutbound
p1075
aVat
p1076
aVmarket
p1077
aV/
aVmain
p1078
aV?
aVjust
p1079
aVhad
p1080
aVanother
p1081
aVghost
p1082
aVbus
p1083
aV.
aVarriving
p1084
aVthen
p1085
aVdisappeared
p1086
aV.
asg24
g25
(S'\x07\xe0\x01\x0c\x01\x17*\x00\x00\x00'
tRp1087
sg27
Nsg28
Vgoldfine
p1088
sa(dp1089
g3
(lp1090
V@gjcharlet
p1091
aVha
p1092
aV!
aVi
aVtook
p1093
aVphoto
p1094
aVin
p1095
aVhs
p1096
aV.
aVdeveloping
p1097
aVyour
p1098
aVown
p1099
aVprints
p1100
aVis
p1101
aVso
p1102
aVsatisfying
p1103
aV.
asg24
g25
(S'\x07\xe0\x01\n\x04\x10\x07\x00\x00\x00'
tRp1104
sg27
Nsg28
Vgoldfine
p1105
sa(dp1106
g3
(lp1107
Vfml
p1108
aVhttps://t.co/i6lwcbbjrp
p1109
asg24
g25
(S'\x07\xe0\x01\n\x03.\x01\x00\x00\x00'
tRp1110
sg27
Nsg28
Vgoldfine
p1111
sa(dp1112
g3
(lp1113
V@gjcharlet
p1114
aVand
p1115
aValthough
p1116
aVi
aVlove
p1117
aVdigital
p1118
aVphotography
p1119
aV,
aVi
aVhope
p1120
aVsome
p1121
aVday
p1122
aVshe
p1123
aVgets
p1124
aVto
p1125
aVuse
p1126
aVa
aVfilm
p1127
aVcamera
p1128
aVand
p1129
aVdevelop
p1130
aVher
p1131
aVprints
p1132
aV.
aVit's
p1133
aVso
p1134
aVfun
p1135
aV!
asg24
g25
(S'\x07\xe0\x01\n\x03+6\x00\x00\x00'
tRp1136
sg27
Nsg28
Vgoldfine
p1137
sa(dp1138
g3
(lp1139
V@gjcharlet
p1140
aVthese
p1141
aVare
p1142
aVall
p1143
aVgreat
p1144
aV.
aVlove
p1145
aVthe
p1146
aVcomposition
p1147
aV.
aVshe
p1148
aVhas
p1149
aVan
p1150
aVexcellent
p1151
aVeye
p1152
aV.
asg24
g25
(S'\x07\xe0\x01\n\x03+\x1b\x00\x00\x00'
tRp1153
sg27
Nsg28
Vgoldfine
p1154
sa(dp1155
g3
(lp1156
V@cat_beltane
p1157
aVyou
p1158
aVwant
p1159
aVto
p1160
aVunsub
p1161
aVfrom
p1162
aVthis
p1163
aVemail
p1164
aVlist
p1165
aV?
aVwe've
p1166
aVburried
p1167
aVthe
p1168
aVlink
p1169
aVin
p1170
aVa
aVwall
p1171
aVof
p1172
aVtiny
p1173
aV,
aVpale
p1174
aVtext
p1175
aV,
aVso
p1176
aVyou
p1177
aVjust
p1178
aVclick
p1179
aVthe
p1180
aVspam
p1181
aVbutton
p1182
aV.
asg24
g25
(S'\x07\xe0\x01\t\x133\x1b\x00\x00\x00'
tRp1183
sg27
Nsg28
Vgoldfine
p1184
sa(dp1185
g3
(lp1186
Vrt
p1187
aV@cat_beltane
p1188
aV:
aVcouldn't
p1189
aVhelp
p1190
aVbut
p1191
aVnotice
p1192
aVyou
p1193
aVmoved
p1194
aVyour
p1195
aVmouse
p1196
aVoff
p1197
aVthis
p1198
aVpage
p1199
aV-
aV-
aVperhaps
p1200
aVa
aVhuge
p1201
aVdesperate
p1202
aVlast-ditch
p1203
aVbegging
p1204
aVgraphic
p1205
aVwill
p1206
aVch
p1207
aV\u2026
asg24
g25
(S'\x07\xe0\x01\t\x132\x0f\x00\x00\x00'
tRp1208
sg27
Nsg28
Vgoldfine
p1209
sa(dp1210
g3
(lp1211
Vrt
p1212
aV@paraicodonnell
p1213
aV:
aVyou
p1214
aVonly
p1215
aVhave
p1216
aVto
p1217
aVglance
p1218
aVat
p1219
aVthe
p1220
aVobituaries
p1221
aVto
p1222
aVsee
p1223
aVthat
p1224
aVbeing
p1225
aVsurrounded
p1226
aVby
p1227
aVyour
p1228
aVloved
p1229
aVones
p1230
aVis
p1231
aVextremely
p1232
aVdangerous
p1233
aV.
asg24
g25
(S'\x07\xe0\x01\t\x06!\x10\x00\x00\x00'
tRp1234
sg27
Nsg28
Vgoldfine
p1235
sa(dp1236
g3
(lp1237
Vrt
p1238
aV@sfmta_muni
p1239
aV:
aVmoving
p1240
aVsf
p1241
aV-
aVsuper
p1242
aVbowl
p1243
aV50
p1244
aV:
aVstreet
p1245
aVclosures
p1246
aVcoming
p1247
aVto
p1248
aVdowntown
p1249
aV&
aVamp
p1250
aV;
aVsoma
p1251
aVhttps://t.co/g0cpa2czbl
p1252
aV#sb50
p1253
asg24
g25
(S'\x07\xe0\x01\t\x06\x1e9\x00\x00\x00'
tRp1254
sg27
Nsg28
Vgoldfine
p1255
sa(dp1256
g3
(lp1257
V@fetouh
p1258
aVwebinar
p1259
aVwith
p1260
aVlive
p1261
aVdemo
p1262
aVabout
p1263
aVnew
p1264
aV@webgility
p1265
aVsolution
p1266
aV,
aVhighlight
p1267
aV,
aVtues
p1268
aV1
aV/
aV12
p1269
aV10
p1270
aVam
p1271
aVpt
p1272
aV-
aVregister
p1273
aVnow
p1274
aV!
aVhttps://t.co/ctxmaodxrz
p1275
asg24
g25
(S'\x07\xe0\x01\t\x00\x07*\x00\x00\x00'
tRp1276
sg27
Nsg28
Vgoldfine
p1277
sa(dp1278
g3
(lp1279
V@mydigitera
p1280
aVwebinar
p1281
aVwith
p1282
aVlive
p1283
aVdemo
p1284
aVabout
p1285
aVnew
p1286
aV@webgility
p1287
aVsolution
p1288
aV,
aVhighlight
p1289
aV,
aVtues
p1290
aV1
aV/
aV12
p1291
aV10
p1292
aVam
p1293
aVpt
p1294
aV-
aVregister
p1295
aVnow
p1296
aV!
aVhttps://t.co/ctxmaodxrz
p1297
asg24
g25
(S'\x07\xe0\x01\t\x00\x07\x18\x00\x00\x00'
tRp1298
sg27
Nsg28
Vgoldfine
p1299
sa(dp1300
g3
(lp1301
V@jaruy11uy
p1302
aVwebinar
p1303
aVwith
p1304
aVlive
p1305
aVdemo
p1306
aVabout
p1307
aVnew
p1308
aV@webgility
p1309
aVsolution
p1310
aV,
aVhighlight
p1311
aV,
aVtues
p1312
aV1
aV/
aV12
p1313
aV10
p1314
aVam
p1315
aVpt
p1316
aV-
aVregister
p1317
aVnow
p1318
aV!
aVhttps://t.co/ctxmaodxrz
p1319
asg24
g25
(S'\x07\xe0\x01\t\x00\x065\x00\x00\x00'
tRp1320
sg27
Nsg28
Vgoldfine
p1321
sa(dp1322
g3
(lp1323
V@bestwebsitecom
p1324
aVall
p1325
aVwebgility
p1326
aVsolutions
p1327
aVare
p1328
aVcompatible
p1329
aVwith
p1330
aVseveral
p1331
aVwp
p1332
aVecom
p1333
aVextensions
p1334
aV,
aVincluding
p1335
aV@woocommerce
p1336
aV,
aVwp
p1337
aVe-com
p1338
aV,
aVwp
p1339
aVonline
p1340
aVstore
p1341
asg24
g25
(S'\x07\xe0\x01\t\x00\x06#\x00\x00\x00'
tRp1342
sg27
Nsg28
Vgoldfine
p1343
sa(dp1344
g3
(lp1345
V@bestwebsitecom
p1346
aVwebinar
p1347
aVwith
p1348
aVlive
p1349
aVdemo
p1350
aVabout
p1351
aVnew
p1352
aV@webgility
p1353
aVsolution
p1354
aV,
aVhighlight
p1355
aV,
aVtues
p1356
aV1
aV/
aV12
p1357
aV10
p1358
aVam
p1359
aVpt
p1360
aV-
aVregister
p1361
aVnow
p1362
aV!
aVhttps://t.co/ctxmaodxrz
p1363
asg24
g25
(S'\x07\xe0\x01\t\x00\x05\x0b\x00\x00\x00'
tRp1364
sg27
Nsg28
Vgoldfine
p1365
sa(dp1366
g3
(lp1367
V@jcruz34cruz
p1368
aVwebinar
p1369
aVwith
p1370
aVlive
p1371
aVdemo
p1372
aVabout
p1373
aVnew
p1374
aV@webgility
p1375
aVsolution
p1376
aV,
aVhighlight
p1377
aV,
aVtues
p1378
aV1
aV/
aV12
p1379
aV10
p1380
aVam
p1381
aVpt
p1382
aVhttps://t.co/ctxmaodxrz
p1383
aV(
aVsorry
p1384
aV,
aVno
p1385
aVzombies
p1386
aV)
asg24
g25
(S'\x07\xe0\x01\t\x00\x042\x00\x00\x00'
tRp1387
sg27
Nsg28
Vgoldfine
p1388
sa(dp1389
g3
(lp1390
V@askhow2market
p1391
aVwebinar
p1392
aVwith
p1393
aVlive
p1394
aVdemo
p1395
aVabout
p1396
aVnew
p1397
aV@webgility
p1398
aVsolution
p1399
aV,
aVhighlight
p1400
aV,
aVtues
p1401
aV1
aV/
aV12
p1402
aV10
p1403
aVam
p1404
aVpt
p1405
aV-
aVregister
p1406
aVnow
p1407
aV!
aVhttps://t.co/ctxmaodxrz
p1408
asg24
g25
(S'\x07\xe0\x01\t\x00\x04\x1a\x00\x00\x00'
tRp1409
sg27
Nsg28
Vgoldfine
p1410
sa(dp1411
g3
(lp1412
V@justintphotos
p1413
aVwebinar
p1414
aVwith
p1415
aVlive
p1416
aVdemo
p1417
aVabout
p1418
aVnew
p1419
aV@webgility
p1420
aVsolution
p1421
aV,
aVhighlight
p1422
aV,
aVtues
p1423
aV1
aV/
aV12
p1424
aV10
p1425
aVam
p1426
aVpt
p1427
aV-
aVregister
p1428
aVnow
p1429
aV!
aVhttps://t.co/ctxmaodxrz
p1430
asg24
g25
(S'\x07\xe0\x01\t\x00\x04\n\x00\x00\x00'
tRp1431
sg27
Nsg28
Vgoldfine
p1432
sa(dp1433
g3
(lp1434
V@workin4vacation
p1435
aVwebinar
p1436
aVwith
p1437
aVlive
p1438
aVdemo
p1439
aVabout
p1440
aVnew
p1441
aV@webgility
p1442
aVsolution
p1443
aV,
aVhighlight
p1444
aV,
aVtues
p1445
aV1
aV/
aV12
p1446
aV10
p1447
aVam
p1448
aVpt
p1449
aV-
aVregister
p1450
aVnow
p1451
aV!
aVhttps://t.co/ctxmaodxrz
p1452
asg24
g25
(S'\x07\xe0\x01\t\x00\x03,\x00\x00\x00'
tRp1453
sg27
Nsg28
Vgoldfine
p1454
sa(dp1455
g3
(lp1456
V@semarketinginc
p1457
aVwebinar
p1458
aVwith
p1459
aVlive
p1460
aVdemo
p1461
aVabout
p1462
aVnew
p1463
aV@webgility
p1464
aVsolution
p1465
aV,
aVhighlight
p1466
aV,
aVtues
p1467
aV1
aV/
aV12
p1468
aV10
p1469
aVam
p1470
aVpt
p1471
aV-
aVregister
p1472
aVnow
p1473
aV!
aVhttps://t.co/ctxmaodxrz
p1474
asg24
g25
(S'\x07\xe0\x01\t\x00\x02\n\x00\x00\x00'
tRp1475
sg27
Nsg28
Vgoldfine
p1476
sa(dp1477
g3
(lp1478
V@inbound_mike
p1479
aVwebinar
p1480
aVwith
p1481
aVlive
p1482
aVdemo
p1483
aVabout
p1484
aVnew
p1485
aV@webgility
p1486
aVsolution
p1487
aV,
aVhighlight
p1488
aV,
aVtues
p1489
aV1
aV/
aV12
p1490
aV10
p1491
aVam
p1492
aVpt
p1493
aV-
aVregister
p1494
aVnow
p1495
aV!
aVhttps://t.co/ctxmaodxrz
p1496
asg24
g25
(S'\x07\xe0\x01\t\x00\x02\x04\x00\x00\x00'
tRp1497
sg27
Nsg28
Vgoldfine
p1498
sa(dp1499
g3
(lp1500
V@theonlinerep
p1501
aVwebinar
p1502
aVwith
p1503
aVlive
p1504
aVdemo
p1505
aVabout
p1506
aVnew
p1507
aV@webgility
p1508
aVsolution
p1509
aV,
aVhighlight
p1510
aV,
aVtues
p1511
aV1
aV/
aV12
p1512
aV10
p1513
aVam
p1514
aVpt
p1515
aV-
aVregister
p1516
aVnow
p1517
aV!
aVhttps://t.co/ctxmaodxrz
p1518
asg24
g25
(S'\x07\xe0\x01\t\x00\x017\x00\x00\x00'
tRp1519
sg27
Nsg28
Vgoldfine
p1520
sa(dp1521
g3
(lp1522
V@irishimguy
p1523
aVwebinar
p1524
aVwith
p1525
aVlive
p1526
aVdemo
p1527
aVabout
p1528
aVnew
p1529
aV@webgility
p1530
aVsolution
p1531
aV,
aVhighlight
p1532
aV,
aVon
p1533
aVtues
p1534
aV1
aV/
aV12
p1535
aV10
p1536
aVam
p1537
aVpt
p1538
aV-
aVregister
p1539
aVnow
p1540
aV!
aVhttps://t.co/ctxmaodxrz
p1541
asg24
g25
(S'\x07\xe0\x01\t\x00\x01%\x00\x00\x00'
tRp1542
sg27
Nsg28
Vgoldfine
p1543
sa(dp1544
g3
(lp1545
V@rubendas05
p1546
aVwebinar
p1547
aVwith
p1548
aVlive
p1549
aVdemo
p1550
aVabout
p1551
aVnew
p1552
aV@webgility
p1553
aVsolution
p1554
aV,
aVhighlight
p1555
aV,
aVon
p1556
aVtues
p1557
aV1
aV/
aV12
p1558
aVat
p1559
aV10
p1560
aVam
p1561
aV-
aVregister
p1562
aVnow
p1563
aV!
aVhttps://t.co/ctxmaodxrz
p1564
asg24
g25
(S'\x07\xe0\x01\t\x00\x01\x0c\x00\x00\x00'
tRp1565
sg27
Nsg28
Vgoldfine
p1566
sa(dp1567
g3
(lp1568
V@pekkapuhakka
p1569
aVwebinar
p1570
aVwith
p1571
aVlive
p1572
aVdemo
p1573
aVabout
p1574
aVnew
p1575
aV@webgility
p1576
aVsolution
p1577
aV,
aVhighlight
p1578
aV,
aVon
p1579
aVtues
p1580
aV1
aV/
aV12
p1581
aVat
p1582
aV10
p1583
aVam
p1584
aV-
aVregister
p1585
aVnow
p1586
aV!
aVhttps://t.co/ctxmaodxrz
p1587
asg24
g25
(S'\x07\xe0\x01\t\x00\x01\x07\x00\x00\x00'
tRp1588
sg27
Nsg28
Vgoldfine
p1589
sa(dp1590
g3
(lp1591
V@jose_garde
p1592
aVwebinar
p1593
aVwith
p1594
aVlive
p1595
aVdemo
p1596
aVabout
p1597
aVnew
p1598
aV@webgility
p1599
aVsolution
p1600
aV,
aVhighlight
p1601
aV,
aVon
p1602
aVtues
p1603
aV1
aV/
aV12
p1604
aVat
p1605
aV10
p1606
aVam
p1607
aV-
aVregister
p1608
aVnow
p1609
aV!
aVhttps://t.co/ctxmaodxrz
p1610
asg24
g25
(S'\x07\xe0\x01\t\x00\x006\x00\x00\x00'
tRp1611
sg27
Nsg28
Vgoldfine
p1612
sa(dp1613
g3
(lp1614
V@tomevansbkeys
p1615
aVwebinar
p1616
aVwith
p1617
aVlive
p1618
aVdemo
p1619
aVabout
p1620
aVnew
p1621
aV@webgility
p1622
aVsolution
p1623
aV,
aVhighlight
p1624
aV,
aVon
p1625
aVtues
p1626
aV1
aV/
aV12
p1627
aVat
p1628
aV10
p1629
aVam
p1630
aV-
aVregister
p1631
aVnow
p1632
aV!
aVhttps://t.co/ctxmaodxrz
p1633
asg24
g25
(S'\x07\xe0\x01\t\x00\x00)\x00\x00\x00'
tRp1634
sg27
Nsg28
Vgoldfine
p1635
sa(dp1636
g3
(lp1637
V@zestcity
p1638
aVwebinar
p1639
aVwith
p1640
aVlive
p1641
aVdemo
p1642
aVabout
p1643
aVnew
p1644
aV@webgility
p1645
aVsolution
p1646
aV,
aVhighlight
p1647
aV,
aVon
p1648
aVtues
p1649
aV1
aV/
aV12
p1650
aVat
p1651
aV10
p1652
aVam
p1653
aV-
aVregister
p1654
aVnow
p1655
aV!
aVhttps://t.co/ctxmaodxrz
p1656
asg24
g25
(S'\x07\xe0\x01\t\x00\x00%\x00\x00\x00'
tRp1657
sg27
Nsg28
Vgoldfine
p1658
sa(dp1659
g3
(lp1660
V@thesogoagency
p1661
aV@chriskubbernus
p1662
aVwebinar
p1663
aVw
aV/
aVlive
p1664
aVdemo
p1665
aVabout
p1666
aVnew
p1667
aV@webgility
p1668
aVsolution
p1669
aV,
aVhighlight
p1670
aV,
aVon
p1671
aVtues
p1672
aV1
aV/
aV12
p1673
aVat
p1674
aV10
p1675
aVam
p1676
aV!
aVhttps://t.co/ctxmaodxrz
p1677
asg24
g25
(S'\x07\xe0\x01\t\x00\x00\n\x00\x00\x00'
tRp1678
sg27
Nsg28
Vgoldfine
p1679
sa(dp1680
g3
(lp1681
V@marketingland
p1682
aVwebinar
p1683
aVwith
p1684
aVlive
p1685
aVdemo
p1686
aVabout
p1687
aVnew
p1688
aV@webgility
p1689
aVsolution
p1690
aV,
aVhighlight
p1691
aV,
aVon
p1692
aVtues
p1693
aV1
aV/
aV12
p1694
aVat
p1695
aV10
p1696
aVam
p1697
aV-
aVregister
p1698
aVnow
p1699
aV!
aVhttps://t.co/ctxmaodxrz
p1700
asg24
g25
(S'\x07\xe0\x01\x08\x17;\x14\x00\x00\x00'
tRp1701
sg27
Nsg28
Vgoldfine
p1702
sa(dp1703
g3
(lp1704
Vrt
p1705
aV@aerykuda
p1706
aV:
aVloved
p1707
aVjar
p1708
aVjar
p1709
aV#loseafriendin3words
p1710
asg24
g25
(S'\x07\xe0\x01\x08\x12\x0e/\x00\x00\x00'
tRp1711
sg27
Nsg28
Vgoldfine
p1712
sa(dp1713
g3
(lp1714
Vrt
p1715
aV@fgoria
p1716
aV:
aVclose
p1717
aVthe
p1718
aVinternet
p1719
aV.
aVright
p1720
aVnow
p1721
aV.
aVplease
p1722
aV.
aVhttps://t.co/vhqtbi5vky
p1723
asg24
g25
(S'\x07\xe0\x01\x08\x11\x13\x14\x00\x00\x00'
tRp1724
sg27
Nsg28
Vgoldfine
p1725
sa(dp1726
g3
(lp1727
V@timbretweet
p1728
aV@starleekine
p1729
aVi
aVfeel
p1730
aVthe
p1731
aVexact
p1732
aVsame
p1733
aVway
p1734
aVabout
p1735
aVthat
p1736
aVepisode
p1737
aVof
p1738
aV@mysteryshow
p1739
asg24
g25
(S'\x07\xe0\x01\x08\x01\x03\x18\x00\x00\x00'
tRp1740
sg27
Nsg28
Vgoldfine
p1741
sa(dp1742
g3
(lp1743
V@replyall
p1744
aVwhat
p1745
aVtime
p1746
aVzone
p1747
aV?
aVnot
p1748
aVeveryone
p1749
aVlives
p1750
aVin
p1751
aVnew
p1752
aVyork
p1753
aV,
aVpeople
p1754
aV.
asg24
g25
(S'\x07\xe0\x01\x07\x15")\x00\x00\x00'
tRp1755
sg27
Nsg28
Vgoldfine
p1756
sa(dp1757
g3
(lp1758
Vmulti-channel
p1759
aVe-commerce
p1760
aVplatform
p1761
aV@webgility
p1762
aVadds
p1763
aVfull-funnel
p1764
aVintelligence
p1765
aVtool
p1766
aVhttps://t.co/ntztcfwuqh
p1767
asg24
g25
(S'\x07\xe0\x01\x07\x12\x05-\x00\x00\x00'
tRp1768
sg27
Nsg28
Vgoldfine
p1769
sa(dp1770
g3
(lp1771
V@notetoself
p1772
aVyou
p1773
aVshould
p1774
aVlink
p1775
aVto
p1776
aVsurvey
p1777
aVin
p1778
aVthe
p1779
aVshow
p1780
aVnotes
p1781
aV!
asg24
g25
(S'\x07\xe0\x01\x07\x0f#\x08\x00\x00\x00'
tRp1782
sg27
Nsg28
Vgoldfine
p1783
sa(dp1784
g3
(lp1785
V@mathowie
p1786
aVwhat
p1787
aVkind
p1788
aVof
p1789
aVbluetooth
p1790
aVheadphones
p1791
aVdo
p1792
aVyou
p1793
aVuse
p1794
aV?
aVit's
p1795
aVa
aVgreat
p1796
aV(
aVmarriage-saving
p1797
aV!
aV)
aVfeature
p1798
aVbut
p1799
aVneed
p1800
aVmore
p1801
aVcomfortable
p1802
aVheadphones
p1803
aV.
asg24
g25
(S'\x07\xe0\x01\x07\x0f"(\x00\x00\x00'
tRp1804
sg27
Nsg28
Vgoldfine
p1805
sa(dp1806
g3
(lp1807
Vhow
p1808
aVto
p1809
aVimprove
p1810
aVthe
p1811
aVusability
p1812
aVof
p1813
aVa
aVnew
p1814
aV\uf8ff
aVtv
p1815
aVremote
p1816
aV.
aVthought
p1817
aVi
aVwas
p1818
aVthe
p1819
aVonly
p1820
aVone
p1821
aVwith
p1822
aVthis
p1823
aVproblem
p1824
aV!
aVthanks
p1825
aV@mathowie
p1826
aVhttps://t.co/dnhctq76zj
p1827
asg24
g25
(S'\x07\xe0\x01\x07\x0f!\x0e\x00\x00\x00'
tRp1828
sg27
Nsg28
Vgoldfine
p1829
sa(dp1830
g3
(lp1831
V@mathowie
p1832
aVi
aVthought
p1833
aVit
p1834
aVwas
p1835
aVjust
p1836
aVme
p1837
aVhaving
p1838
aVtrouble
p1839
aVtelling
p1840
aVwhich
p1841
aVend
p1842
aVis
p1843
aVwhich
p1844
aV!
asg24
g25
(S'\x07\xe0\x01\x07\x0f\x1f\r\x00\x00\x00'
tRp1845
sg27
Nsg28
Vgoldfine
p1846
sa(dp1847
g3
(lp1848
V@sfmta_muni
p1849
aVsomeone
p1850
aVneeds
p1851
aVto
p1852
aVdry
p1853
aVoff
p1854
aVthe
p1855
aVseats
p1856
aVon
p1857
aVinbound
p1858
aVn
aV1515
p1859
aV(
aVcurrently
p1860
aV9
aVth
p1861
aV/
aVirving
p1862
aV)
aV.
aVmany
p1863
aVof
p1864
aVthem
p1865
aVare
p1866
aVpuddled
p1867
aVwith
p1868
aVwater
p1869
aVand
p1870
aVunusable
p1871
aV.
asg24
g25
(S'\x07\xe0\x01\x07\x0f\x1b#\x00\x00\x00'
tRp1872
sg27
Nsg28
Vgoldfine
p1873
sa(dp1874
g3
(lp1875
Vmuni
p1876
aVhero
p1877
aVat
p1878
aVembarcadero
p1879
aVstn
p1880
aVjust
p1881
aVcalled
p1882
aVout
p1883
aVthis
p1884
aVgirl
p1885
aVstanding
p1886
aVon
p1887
aVgreen
p1888
aVarrows
p1889
aV(
aVblocking
p1890
aVpeople
p1891
aVexiting
p1892
aV,
aVcutting
p1893
aVthe
p1894
aVline
p1895
aV)
aV.
aV#munidiaries
p1896
asg24
g25
(S'\x07\xe0\x01\x07\x01*\x0b\x00\x00\x00'
tRp1897
sg27
Nsg28
Vgoldfine
p1898
sa(dp1899
g3
(lp1900
V@_tc_
p1901
aVomg
p1902
aVthere's
p1903
aVa
aVfleur
p1904
aVde
p1905
aVlis
p1906
aVemoji
p1907
aV?
asg24
g25
(S'\x07\xe0\x01\x06\x12\x16 \x00\x00\x00'
tRp1908
sg27
Nsg28
Vgoldfine
p1909
sa(dp1910
g3
(lp1911
Vbest
p1912
aVbio
p1913
aVever
p1914
aVby
p1915
aV@hearmillennial
p1916
aV"
aVmegan
p1917
aVis
p1918
aVa
aVradio
p1919
aVproducer
p1920
aVbased
p1921
aVin
p1922
aVher
p1923
aVcloset
p1924
aVin
p1925
aVkittery
p1926
aV,
aVmaine
p1927
aV.
aV"
asg24
g25
(S'\x07\xe0\x01\x06\x01\x08$\x00\x00\x00'
tRp1928
sg27
Nsg28
Vgoldfine
p1929
sa(dp1930
g3
(lp1931
Vso
p1932
aVhappy
p1933
aVabout
p1934
aVtoday's
p1935
aVlaunch
p1936
aVof
p1937
aV@webgility
p1938
aV'
aVs
aVnewest
p1939
aVproduct
p1940
aV,
aVhighlight
p1941
aV.
aVcongrats
p1942
aVto
p1943
aVeveryone
p1944
aVon
p1945
aVthe
p1946
aVteam
p1947
aV!
aV#seewhatmatters
p1948
asg24
g25
(S'\x07\xe0\x01\x06\x01\x07\x1d\x00\x00\x00'
tRp1949
sg27
Nsg28
Vgoldfine
p1950
sa(dp1951
g3
(lp1952
Vrt
p1953
aV@whitehouse
p1954
aV:
aV"
aVif
p1955
aVa
aVchild
p1956
aVcan
p1957
aV\u2019
aVt
aVopen
p1958
aVa
aVbottle
p1959
aVof
p1960
aVaspirin
p1961
aV,
aVwe
p1962
aVshould
p1963
aVmake
p1964
aVsure
p1965
aVthey
p1966
aVcan
p1967
aV\u2019
aVt
aVpull
p1968
aVthe
p1969
aVtrigger
p1970
aVon
p1971
aVa
aVgun
p1972
aV.
aV"
aV\u2014
aV@potus
p1973
aVhttps://t.co
p1974
aV\u2026
asg24
g25
(S'\x07\xe0\x01\x05\x12"\x18\x00\x00\x00'
tRp1975
sg27
Nsg28
Vgoldfine
p1976
sa(dp1977
g3
(lp1978
Vrt
p1979
aV@webgility
p1980
aV:
aVfinally
p1981
aV,
aVa
aVbi
p1982
aVsolution
p1983
aVfor
p1984
aVe-commerce
p1985
aVsmbs
p1986
aV.
aVintroducing
p1987
aV#highlight
p1988
aV:
aV#seewhatmatters
p1989
aVhttps://t.co/o7nmkrzwqu
p1990
aVhttps://t.co/0xl
p1991
aV\u2026
asg24
g25
(S'\x07\xe0\x01\x05\x12"\t\x00\x00\x00'
tRp1992
sg27
Nsg28
Vgoldfine
p1993
sa(dp1994
g3
(lp1995
Vlistening
p1996
aVto
p1997
aVmegan
p1998
aVon
p1999
aV@hearmillennial
p2000
aVstress
p2001
aVthrough
p2002
aVa
aVfellowship
p2003
aVinterview
p2004
aVstressed
p2005
aVme
p2006
aVout
p2007
aV!
aVbut
p2008
aVin
p2009
aVa
aVgood
p2010
aVway
p2011
aV.
aVhighly
p2012
aVrecommended
p2013
aVpodcast
p2014
aV.
asg24
g25
(S'\x07\xe0\x01\x05\x11\x12\x1b\x00\x00\x00'
tRp2015
sg27
Nsg28
Vgoldfine
p2016
sa(dp2017
g3
(lp2018
Vthe
p2019
aVupside
p2020
aVto
p2021
aVwatching
p2022
aVan
p2023
aVelderly
p2024
aVwoman
p2025
aVon
p2026
aVthe
p2027
aVn
aVfuss
p2028
aVwith
p2029
aV/
aVclean
p2030
aV/
aVreplace
p2031
aVher
p2032
aVdentures
p2033
aVis
p2034
aVthat
p2035
aVnow
p2036
aVi
aVam
p2037
aVno
p2038
aVlonger
p2039
aVhungry
p2040
aV!
aV#munidiaries
p2041
asg24
g25
(S'\x07\xe0\x01\x05\x11\x0e \x00\x00\x00'
tRp2042
sg27
Nsg28
Vgoldfine
p2043
sa(dp2044
g3
(lp2045
V@cjc
p2046
aVugh
p2047
aVyes
p2048
aV.
aVi
aVhave
p2049
aVto
p2050
aVxfer
p2051
aVmoney
p2052
aVbetween
p2053
aVwf
p2054
aV(
aVpersonal
p2055
aV)
aVand
p2056
aVchase
p2057
aV(
aVjoint
p2058
aVacct
p2059
aV)
aVevery
p2060
aVmonth
p2061
aV.
aVi
aVwrite
p2062
aVa
aVcheck
p2063
aVand
p2064
aVdo
p2065
aVmobile
p2066
aVdeposit
p2067
aV.
aVidiotic
p2068
aV.
asg24
g25
(S'\x07\xe0\x01\x04\x17\x19\x0c\x00\x00\x00'
tRp2069
sg27
Nsg28
Vgoldfine
p2070
sa(dp2071
g3
(lp2072
Vi
aVam
p2073
aVsooo
p2074
aVbad
p2075
aVabout
p2076
aVreferring
p2077
aVto
p2078
aVother
p2079
aVwomen
p2080
aVas
p2081
aV"
aVgirls
p2082
aV.
aV"
asg24
g25
(S'\x07\xe0\x01\x04\x15\t7\x00\x00\x00'
tRp2083
sg27
Nsg28
Vgoldfine
p2084
sa(dp2085
g3
(lp2086
V6
aVcasually
p2087
aVsexist
p2088
aVthings
p2089
aVto
p2090
aVstop
p2091
aVsaying
p2092
aVat
p2093
aVwork
p2094
aVby
p2095
aV@askamanager
p2096
aVhttps://t.co/neawyxlm90
p2097
aVyes
p2098
aVyes
p2099
aVyes
p2100
aVyes
p2101
aVyes
p2102
aVyes
p2103
asg24
g25
(S'\x07\xe0\x01\x04\x15\t\x18\x00\x00\x00'
tRp2104
sg27
Nsg28
Vgoldfine
p2105
sa(dp2106
g3
(lp2107
Vrt
p2108
aV@truzyllo
p2109
aV:
aVquestionable
p2110
aVfrench
p2111
aV&
aVamp
p2112
aV;
aVdutch
p2113
aVtranslation
p2114
aVon
p2115
aVthis
p2116
aVcoffee
p2117
aVcup
p2118
aV.
aV.
aV.
aVhttps://t.co/yvywatut9j
p2119
asg24
g25
(S"\x07\xe0\x01\x04\x14'\t\x00\x00\x00"
tRp2120
sg27
Nsg28
Vgoldfine
p2121
sa(dp2122
g3
(lp2123
Vfour
p2124
aVdays
p2125
aVinto
p2126
aV2016,
p2127
aVfour
p2128
aVdays
p2129
aVi
aVhave
p2130
aVmade
p2131
aVmy
p2132
aVbed
p2133
aV.
aVtrying
p2134
aVto
p2135
aV#lamob
p2136
aVfor
p2137
aV@joliekerr
p2138
aV!
aVif
p2139
aVi
aVtell
p2140
aVeveryone
p2141
aV,
aVi'll
p2142
aVstick
p2143
aVto
p2144
aVit
p2145
aV,
aVright
p2146
aV?
asg24
g25
(S'\x07\xe0\x01\x04\x119\x16\x00\x00\x00'
tRp2147
sg27
Nsg28
Vgoldfine
p2148
sa(dp2149
g3
(lp2150
Vrt
p2151
aV@cat_beltane
p2152
aV:
aVi
aVwrote
p2153
aVa
aVsmall
p2154
aVpiece
p2155
aVfor
p2156
aVmedium
p2157
aVabout
p2158
aVgiving
p2159
aVup
p2160
aVa
aVhabit
p2161
aVfor
p2162
aVa
aVmonth
p2163
aV.
aVi
aVthink
p2164
aVit
p2165
aVcould
p2166
aVhelp
p2167
aVa
aVlot
p2168
aVof
p2169
aVpeople
p2170
aV:
aVhttps://t.co/
p2171
aV\u2026
asg24
g25
(S'\x07\xe0\x01\x04\x1110\x00\x00\x00'
tRp2172
sg27
Nsg28
Vgoldfine
p2173
sa(dp2174
g3
(lp2175
Vwhat
p2176
aVthe
p2177
aVhell
p2178
aV@karlthefog
p2179
aV?
aVhttps://t.co/kbkivxgcic
p2180
asg24
g25
(S'\x07\xe0\x01\x04\x0f2\x0f\x00\x00\x00'
tRp2181
sg27
Nsg28
Vgoldfine
p2182
sa(dp2183
g3
(lp2184
Vsf
p2185
aVachievement
p2186
aVunlocked
p2187
aV:
aVoff-street
p2188
aVparking
p2189
aVspot
p2190
asg24
g25
(S'\x07\xe0\x01\x04\x00\x1d0\x00\x00\x00'
tRp2191
sg27
Nsg28
Vgoldfine
p2192
sa(dp2193
g3
(lp2194
Vwhy
p2195
aVthe
p2196
aVpost
p2197
aVoffice
p2198
aVmakes
p2199
aVamerica
p2200
aVgreat
p2201
aVhttps://t.co/oboc9anhae
p2202
asg24
g25
(S'\x07\xe0\x01\x03\x14\x08\x1a\x00\x00\x00'
tRp2203
sg27
Nsg28
Vgoldfine
p2204
sa(dp2205
g3
(lp2206
Vwhat's
p2207
aVcuter
p2208
aVthan
p2209
aVa
aVbaby
p2210
aVbunny
p2211
aV?
aVtwo
p2212
aVbaby
p2213
aVbunnies
p2214
aV!
aVhttps://t.co/xwpzgnul4t
p2215
asg24
g25
(S'\x07\xe0\x01\x02\x13\x04\x10\x00\x00\x00'
tRp2216
sg27
Nsg28
Vgoldfine
p2217
sa(dp2218
g3
(lp2219
V2016
p2220
aVprediction
p2221
aV:
aVbaby
p2222
aVbunny
p2223
aVvideos
p2224
aVare
p2225
aVthe
p2226
aVnew
p2227
aVasmr
p2228
aVhttps://t.co/ql3yljwbz4
p2229
asg24
g25
(S'\x07\xe0\x01\x02\x12\x11\x08\x00\x00\x00'
tRp2230
sg27
Nsg28
Vgoldfine
p2231
sa(dp2232
g3
(lp2233
Vrt
p2234
aV@anildash
p2235
aV:
aV"
aVit's
p2236
aVabout
p2237
aVheritage
p2238
aV,
aVnot
p2239
aVhate
p2240
aV.
aV"
aVhttps://t.co/k4et5tweg0
p2241
asg24
g25
(S'\x07\xe0\x01\x02\x05\x113\x00\x00\x00'
tRp2242
sg27
Nsg28
Vgoldfine
p2243
sa(dp2244
g3
(lp2245
Vrt
p2246
aV@hiddenpinky
p2247
aV:
aVthe
p2248
aVlimerick
p2249
aVwriters
p2250
aVon
p2251
aVtwitter
p2252
aVcan
p2253
aVbe
p2254
aVjustifiably
p2255
aVbitter
p2256
aVthe
p2257
aVlimited
p2258
aVlength
p2259
aVis
p2260
aVweakness
p2261
aV,
aVnot
p2262
aVstrength
p2263
aVand
p2264
aVthrows
p2265
aVour
p2266
aVlast
p2267
aV\u2026
asg24
g25
(S'\x07\xe0\x01\x02\x003%\x00\x00\x00'
tRp2268
sg27
Nsg28
Vgoldfine
p2269
sa(dp2270
g3
(lp2271
V@agoldmund
p2272
aVthat
p2273
aVwould
p2274
aVbe
p2275
aV@thematchesband
p2276
asg24
g25
(S'\x07\xe0\x01\x02\x00\x08\t\x00\x00\x00'
tRp2277
sg27
Nsg28
Vgoldfine
p2278
sa(dp2279
g3
(lp2280
Vtrue
p2281
aVdat
p2282
aVrt
p2283
aV@_tc_
p2284
aV:
aVprepping
p2285
aVpurple
p2286
aV/
aVgreen
p2287
aV/
aVgold
p2288
aVdecorations
p2289
aVand
p2290
aVdreaming
p2291
aVof
p2292
aVking
p2293
aVcake
p2294
aV\u269c
asg24
g25
(S'\x07\xe0\x01\x02\x00\x055\x00\x00\x00'
tRp2295
sg27
Nsg28
Vgoldfine
p2296
sa(dp2297
g3
(lp2298
Vrt
p2299
aV@darth
p2300
aV:
aVwell
p2301
aVgood
p2302
aVbye
p2303
aV2015
p2304
aVi
aVwill
p2305
aVnot
p2306
aVmiss
p2307
aVyou
p2308
aVtbh
p2309
aVgood
p2310
aVbye
p2311
aVhttps://t.co/jrz5i9s3ai
p2312
asg24
g25
(S'\x07\xe0\x01\x01\x07\x1e\x04\x00\x00\x00'
tRp2313
sg27
Nsg28
Vgoldfine
p2314
sa(dp2315
g3
(lp2316
Vrt
p2317
aV@darth
p2318
aV:
aVwait
p2319
aVwat
p2320
aVare
p2321
aVthese
p2322
aVwhere
p2323
aVare
p2324
aVthe
p2325
aVtwitter
p2326
aVfavorite
p2327
aVstars
p2328
aVwat
p2329
aVis
p2330
aVgoing
p2331
aVon
p2332
aVhere
p2333
aVhttps://t.co/v9dm4g4ei7
p2334
asg24
g25
(S'\x07\xe0\x01\x01\x07\x1c6\x00\x00\x00'
tRp2335
sg27
Nsg28
Vgoldfine
p2336
sa(dp2337
g3
(lp2338
Vlove
p2339
aVthe
p2340
aV2015
p2341
aV@whitehouse
p2342
aVpix
p2343
aV.
aVcan
p2344
aVwe
p2345
aValso
p2346
aVhave
p2347
aVa
aVgallery
p2348
aVcalled
p2349
aV"
aVobama
p2350
aVhanging
p2351
aVwith
p2352
aVcute
p2353
aVkids
p2354
aVand
p2355
aVbabies
p2356
aV"
aV?
aVhttps://t.co/0fxq5ec8a4
p2357
asg24
g25
(S'\x07\xdf\x0c\x1f\x052\x12\x00\x00\x00'
tRp2358
sg27
Nsg28
Vgoldfine
p2359
sa(dp2360
g3
(lp2361
Vhuh
p2362
aVthe
p2363
aVseats
p2364
aVon
p2365
aVthis
p2366
aVnew
p2367
aV@sfmta_muni
p2368
aVbus
p2369
aVare
p2370
aVactually
p2371
aVquite
p2372
aVcomfortable
p2373
aV!
aVholiday
p2374
aVmiracle
p2375
aV!
aV#munidiaries
p2376
asg24
g25
(S'\x07\xdf\x0c\x1f\x00\x05\x11\x00\x00\x00'
tRp2377
sg27
Nsg28
Vgoldfine
p2378
sa(dp2379
g3
(lp2380
V@romanmars
p2381
aVhave
p2382
aVfun
p2383
aV!
asg24
g25
(S'\x07\xdf\x0c\x1e\x12\x1d\x10\x00\x00\x00'
tRp2384
sg27
Nsg28
Vgoldfine
p2385
sa(dp2386
g3
(lp2387
V@homesweethome
p2388
aVhave
p2389
aVyou
p2390
aVguys
p2391
aVconsidered
p2392
aVa
aVdish
p2393
aVtowel
p2394
aVrec
p2395
aV?
asg24
g25
(S'\x07\xdf\x0c\x1e\x03\x1c.\x00\x00\x00'
tRp2396
sg27
Nsg28
Vgoldfine
p2397
sa(dp2398
g3
(lp2399
Vrt
p2400
aV@sfweekly
p2401
aV:
aV.
aV@5hawnharri5
p2402
aVstage-dove
p2403
aVthe
p2404
aVshit
p2405
aVout
p2406
aVof
p2407
aV@thematchesband
p2408
aV'
aVs
aVshow
p2409
aVlast
p2410
aVnight
p2411
aVat
p2412
aVthe
p2413
aVfillmore
p2414
aVhttps://t.co/rady3utquf
p2415
aVhttps://t.
p2416
aV\u2026
asg24
g25
(S'\x07\xdf\x0c\x1e\x02)\x0c\x00\x00\x00'
tRp2417
sg27
Nsg28
Vgoldfine
p2418
sa(dp2419
g3
(lp2420
Vrt
p2421
aV@mattstopera
p2422
aV:
aVthe
p2423
aV40
p2424
aVmost
p2425
aVimportant
p2426
aVcorgis
p2427
aVof
p2428
aV2015
p2429
aV:
aVhttps://t.co/9qvdflz3jy
p2430
aVhttps://t.co/hb5aq5lljo
p2431
asg24
g25
(S'\x07\xdf\x0c\x1d\x113\x13\x00\x00\x00'
tRp2432
sg27
Nsg28
Vgoldfine
p2433
sa(dp2434
g3
(lp2435
V@sfmta_muni
p2436
aVoh
p2437
aVok
p2438
aVthx
p2439
asg24
g25
(S'\x07\xdf\x0c\x1d\x102\x07\x00\x00\x00'
tRp2440
sg27
Nsg28
Vgoldfine
p2441
sa(dp2442
g3
(lp2443
V@sfmta_muni
p2444
aVwhy
p2445
aVno
p2446
aV7
aVx
aVtoday
p2447
aV?
asg24
g25
(S'\x07\xdf\x0c\x1d\x10\x1a&\x00\x00\x00'
tRp2448
sg27
Nsg28
Vgoldfine
p2449
sa(dp2450
g3
(lp2451
Vfound
p2452
aVthe
p2453
aV@fillmoresf
p2454
aVposter
p2455
aVfrom
p2456
aVthe
p2457
aVfirst
p2458
aVtime
p2459
aVi
aVsaw
p2460
aV@thematchesband
p2461
aVplaying
p2462
aVthe
p2463
aVposter
p2464
aVroom
p2465
aVhttps://t.co/z7bvlhnrjv
p2466
asg24
g25
(S'\x07\xdf\x0c\x1c\x08\x00\x02\x00\x00\x00'
tRp2467
sg27
Nsg28
Vgoldfine
p2468
sa(dp2469
g3
(lp2470
Voops
p2471
aVi
aVthink
p2472
aVi
aVam
p2473
aVtoo
p2474
aVold
p2475
aVto
p2476
aVsquat
p2477
aVfor
p2478
aVaudio
p2479
aVblood
p2480
aV!
aV#l3
p2481
aV@thematchesband
p2482
asg24
g25
(S'\x07\xdf\x0c\x1c\x05 \x0b\x00\x00\x00'
tRp2483
sg27
Nsg28
Vgoldfine
p2484
sa(dp2485
g3
(lp2486
V@5hawnharri5
p2487
aV@thematchesband
p2488
aVme
p2489
aVtoo
p2490
aV!
aVsee
p2491
aVyou
p2492
aVtonight
p2493
aV!
asg24
g25
(S'\x07\xdf\x0c\x1b\x12/\x01\x00\x00\x00'
tRp2494
sg27
Nsg28
Vgoldfine
p2495
sa(dp2496
g3
(lp2497
V@manymanywords
p2498
aValthough
p2499
aVhalfway
p2500
aVthrough
p2501
aVs2
p2502
aVi
aVam
p2503
aVstarting
p2504
aVto
p2505
aVwonder
p2506
aVwhy
p2507
aVso
p2508
aVmany
p2509
aVpeople
p2510
aVshe
p2511
aVknows
p2512
aVare
p2513
aVkilled
p2514
aVin
p2515
aVproximity
p2516
aVto
p2517
aVher
p2518
aV.
aVsuspicious
p2519
aV.
asg24
g25
(S"\x07\xdf\x0c\x1b\x05'\x19\x00\x00\x00"
tRp2520
sg27
Nsg28
Vgoldfine
p2521
sa(dp2522
g3
(lp2523
V@manymanywords
p2524
aVyesyesyes
p2525
asg24
g25
(S'\x07\xdf\x0c\x1b\x05&(\x00\x00\x00'
tRp2526
sg27
Nsg28
Vgoldfine
p2527
sa(dp2528
g3
(lp2529
Vfirst
p2530
aVmarriage
p2531
aVachievement
p2532
aVunlocked
p2533
aV:
aVmatching
p2534
aVugly
p2535
aVchristmas
p2536
aVsweaters
p2537
aV.
aV(
aVthanks
p2538
aV@_tc_
p2539
aVfor
p2540
aVbeing
p2541
aVa
aVgood
p2542
aVsport
p2543
aV.
aV)
aVhttps://t.co/udwp3nosse
p2544
asg24
g25
(S'\x07\xdf\x0c\x1a\x00;+\x00\x00\x00'
tRp2545
sg27
Nsg28
Vgoldfine
p2546
sa(dp2547
g3
(lp2548
V@emma_sandoe
p2549
aVi
aVmean
p2550
aV,
aVthat's
p2551
aVa
aVfair
p2552
aVquestion
p2553
aVrn
p2554
aV,
aVright
p2555
aV?
asg24
g25
(S'\x07\xdf\x0c\x19\x170+\x00\x00\x00'
tRp2556
sg27
Nsg28
Vgoldfine
p2557
sa(dp2558
g3
(lp2559
V@emma_sandoe
p2560
aVis
p2561
aVthat
p2562
aVa
aVdog
p2563
aVor
p2564
aVan
p2565
aVewok
p2566
aV?
asg24
g25
(S'\x07\xdf\x0c\x19\x170\x12\x00\x00\x00'
tRp2567
sg27
Nsg28
Vgoldfine
p2568
sa(dp2569
g3
(lp2570
V@gjcharlet
p2571
aVi
aVlove
p2572
aVthis
p2573
aVchild
p2574
asg24
g25
(S'\x07\xdf\x0c\x19\x17-:\x00\x00\x00'
tRp2575
sg27
Nsg28
Vgoldfine
p2576
sa(dp2577
g3
(lp2578
V@gjcharlet
p2579
aVi
aVhad
p2580
aVa
aVbook
p2581
aVlike
p2582
aVthat
p2583
aVat
p2584
aVher
p2585
aVage
p2586
aV.
aVloved
p2587
aVit
p2588
aV!
asg24
g25
(S'\x07\xdf\x0c\x19\x17--\x00\x00\x00'
tRp2589
sg27
Nsg28
Vgoldfine
p2590
sa(dp2591
g3
(lp2592
V@meggierowe
p2593
aV@thebloggess
p2594
aVamazing
p2595
aV!
aV(
aVcc
p2596
aV@subversivexs
p2597
aV)
asg24
g25
(S'\x07\xdf\x0c\x19\x17+\x12\x00\x00\x00'
tRp2598
sg27
Nsg28
Vgoldfine
p2599
sa(dp2600
g3
(lp2601
Vmy
p2602
aVfriend
p2603
aV@gjcharlet
p2604
aV'
aVs
aVdaughter
p2605
aVis
p2606
aVstill
p2607
aVthe
p2608
aVfirst
p2609
aVresult
p2610
aVwhen
p2611
aVyou
p2612
aVgoogle
p2613
aVimage
p2614
aVsearch
p2615
aV"
aVi
aVlove
p2616
aVsatan
p2617
aV.
aV"
aVhttps://t.co/pld9jptr0e
p2618
aVmerry
p2619
aVxmas
p2620
aV!
asg24
g25
(S'\x07\xdf\x0c\x19\x06!:\x00\x00\x00'
tRp2621
sg27
Nsg28
Vgoldfine
p2622
sa(dp2623
g3
(lp2624
V@bobosphere
p2625
aVdisagree
p2626
aV.
aVdivisadero
p2627
aVtouchless
p2628
aVcar
p2629
aVwash
p2630
aVin
p2631
aVsf
p2632
aVhas
p2633
aVincredible
p2634
aVgifts
p2635
aV!
asg24
g25
(S'\x07\xdf\x0c\x19\x06 \x1f\x00\x00\x00'
tRp2636
sg27
Nsg28
Vgoldfine
p2637
sa(dp2638
g3
(lp2639
V@gjcharlet
p2640
aVyou
p2641
aVare
p2642
aVthe
p2643
aVbest
p2644
aV/
aVworst
p2645
asg24
g25
(S'\x07\xdf\x0c\x19\x06\x19\x12\x00\x00\x00'
tRp2646
sg27
Nsg28
Vgoldfine
p2647
sa(dp2648
g3
(lp2649
Vrt
p2650
aV@romanmars
p2651
aV:
aVi'm
p2652
aVgoing
p2653
aVto
p2654
aVstart
p2655
aVwishing
p2656
aVall
p2657
aVmy
p2658
aVuk
p2659
aVfriends
p2660
aVa
aV"
aVmerry
p2661
aVbirthday
p2662
aV"
aVso
p2663
aVthey
p2664
aVunderstand
p2665
aVhow
p2666
aVweird
p2667
aV"
aVhappy
p2668
aVchristmas
p2669
aV"
aVsounds
p2670
aVto
p2671
aVus
p2672
aV.
asg24
g25
(S'\x07\xdf\x0c\x18\x13\x029\x00\x00\x00'
tRp2673
sg27
Nsg28
Vgoldfine
p2674
sa(dp2675
g3
(lp2676
V@gjcharlet
p2677
aV@lenperalta
p2678
aVjust
p2679
aVgot
p2680
aVours
p2681
aVin
p2682
aVthe
p2683
aVmail
p2684
aV!
aVso
p2685
aVcool
p2686
aV!
asg24
g25
(S'\x07\xdf\x0c\x18\x00\'"\x00\x00\x00'
tRp2687
sg27
Nsg28
Vgoldfine
p2688
sa(dp2689
g3
(lp2690
V@gjcharlet
p2691
aVno
p2692
aV!
aV"
aVi'm
p2693
aVsorry
p2694
aVthat
p2695
aVwon't
p2696
aVbe
p2697
aVpossible
p2698
aV.
aV"
aVugh
p2699
aV.
asg24
g25
(S'\x07\xdf\x0c\x17\x176\t\x00\x00\x00'
tRp2700
sg27
Nsg28
Vgoldfine
p2701
sa(dp2702
g3
(lp2703
Vrt
p2704
aV@cat_beltane
p2705
aV:
aVmy
p2706
aVphoto
p2707
aVkeeps
p2708
aVautocorrecting
p2709
aV"
aVloom
p2710
aV"
aVto
p2711
aV"
aVlooming
p2712
aV"
aVbecause
p2713
aVit's
p2714
aVa
aVbigger
p2715
aVfan
p2716
aVof
p2717
aVominous
p2718
aVdanger
p2719
aVthan
p2720
aVfiber
p2721
aVarts
p2722
asg24
g25
(S'\x07\xdf\x0c\x17\x175\x0b\x00\x00\x00'
tRp2723
sg27
Nsg28
Vgoldfine
p2724
sa(dp2725
g3
(lp2726
V@joshmillard
p2727
aV:(
p2728
aVthat's
p2729
aVso
p2730
aVhard
p2731
asg24
g25
(S'\x07\xdf\x0c\x17\x174:\x00\x00\x00'
tRp2732
sg27
Nsg28
Vgoldfine
p2733
sa(dp2734
g3
(lp2735
Vif
p2736
aVyou
p2737
aVtook
p2738
aVhigh
p2739
aVschool
p2740
aVchem
p2741
aV,
aVyou
p2742
aVremember
p2743
aVthe
p2744
aVweird
p2745
aVshower
p2746
aVscene
p2747
aVin
p2748
aVthe
p2749
aVsafety
p2750
aVvideo
p2751
aV!
aVhttps://t.co/hxflpwebhn
p2752
aV(
aVht
p2753
aV@kalilaholt
p2754
aV)
asg24
g25
(S'\x07\xdf\x0c\x17\x12\x06:\x00\x00\x00'
tRp2755
sg27
Nsg28
Vgoldfine
p2756
sa(dp2757
g3
(lp2758
V@anildash
p2759
aVyou
p2760
aVforgot
p2761
aV"
aVsign
p2762
aVup
p2763
aVfor
p2764
aVour
p2765
aVemail
p2766
aVnewsletter
p2767
aV"
asg24
g25
(S'\x07\xdf\x0c\x16\x12\x05\x18\x00\x00\x00'
tRp2768
sg27
Nsg28
Vgoldfine
p2769
sa(dp2770
g3
(lp2771
V@retrograderoast
p2772
aVjust
p2773
aVdon't
p2774
aVput
p2775
aVit
p2776
aVon
p2777
aVyour
p2778
aVskin
p2779
aVunless
p2780
aVyou
p2781
aVwant
p2782
aVto
p2783
aVlook
p2784
aVlike
p2785
aVa
aVsimpsons
p2786
aVcharacter
p2787
aV!
asg24
g25
(S'\x07\xdf\x0c\x16\x12\x00;\x00\x00\x00'
tRp2788
sg27
Nsg28
Vgoldfine
p2789
sa(dp2790
g3
(lp2791
V@thebloggess
p2792
aV@mortuaryreport
p2793
aVsuch
p2794
aVa
aVfrustrating
p2795
aVstory
p2796
aV.
aV:(
p2797
asg24
g25
(S'\x07\xdf\x0c\x16\x044\x01\x00\x00\x00'
tRp2798
sg27
Nsg28
Vgoldfine
p2799
sa(dp2800
g3
(lp2801
V@manymanywords
p2802
aVplease
p2803
aVstart
p2804
aVpodcasting
p2805
aVagain
p2806
aV!
asg24
g25
(S'\x07\xdf\x0c\x16\x042\x11\x00\x00\x00'
tRp2807
sg27
Nsg28
Vgoldfine
p2808
sa(dp2809
g3
(lp2810
V@macstl
p2811
aV@thebloggess
p2812
aVthanks
p2813
aV!
asg24
g25
(S'\x07\xdf\x0c\x16\x01\x0b3\x00\x00\x00'
tRp2814
sg27
Nsg28
Vgoldfine
p2815
sa(dp2816
g3
(lp2817
V@gjcharlet
p2818
aVblue
p2819
aVbell
p2820
aVis
p2821
aVgross
p2822
aV!
asg24
g25
(S'\x07\xdf\x0c\x15\x11$\x18\x00\x00\x00'
tRp2823
sg27
Nsg28
Vgoldfine
p2824
sa(dp2825
g3
(lp2826
V@agoldmund
p2827
aVthis
p2828
aVhas
p2829
aVthe
p2830
aVmakings
p2831
aVof
p2832
aVa
aVyyn
p2833
asg24
g25
(S'\x07\xdf\x0c\x15\x06\x114\x00\x00\x00'
tRp2834
sg27
Nsg28
Vgoldfine
p2835
sa(dp2836
g3
(lp2837
V@macstl
p2838
aV@thebloggess
p2839
aV@npr
p2840
aVwhat
p2841
aVshow
p2842
aV?
aV!
asg24
g25
(S'\x07\xdf\x0c\x14\x12*\x1f\x00\x00\x00'
tRp2843
sg27
Nsg28
Vgoldfine
p2844
sa(dp2845
g3
(lp2846
V@gjcharlet
p2847
aV@_tc_
p2848
aVwe
p2849
aVdecided
p2850
aVto
p2851
aVgo
p2852
aVcute
p2853
aVthis
p2854
aVyear
p2855
aVon
p2856
aVaccount
p2857
aVof
p2858
aVthe
p2859
aVwedding
p2860
aVpix
p2861
aV,
aVbut
p2862
aVwe
p2863
aVplan
p2864
aVto
p2865
aVgo
p2866
aVback
p2867
aVto
p2868
aVridiculous
p2869
aVnext
p2870
aVyear
p2871
aV.
asg24
g25
(S'\x07\xdf\x0c\x14\x06\x0f\x17\x00\x00\x00'
tRp2872
sg27
Nsg28
Vgoldfine
p2873
sa(dp2874
g3
(lp2875
V@gjcharlet
p2876
aV@_tc_
p2877
aVwow
p2878
aVit
p2879
aVtook
p2880
aVa
aVlong
p2881
aVtime
p2882
aVto
p2883
aVget
p2884
aVthere
p2885
aV!
aVwe
p2886
aVmailed
p2887
aVthose
p2888
aVover
p2889
aVa
aVweek
p2890
aVago
p2891
aV.
aVglad
p2892
aVit
p2893
aVmade
p2894
aVit
p2895
aVto
p2896
aVyou
p2897
aVsafely
p2898
aV.
asg24
g25
(S'\x07\xdf\x0c\x14\x06\x0e:\x00\x00\x00'
tRp2899
sg27
Nsg28
Vgoldfine
p2900
sa(dp2901
g3
(lp2902
V@zoemarissen
p2903
aVmy
p2904
aVfriend
p2905
aVdefinitely
p2906
aVdid
p2907
aVthat
p2908
aV!
asg24
g25
(S'\x07\xdf\x0c\x14\x00\x089\x00\x00\x00'
tRp2909
sg27
Nsg28
Vgoldfine
p2910
sa(dp2911
g3
(lp2912
V@mathowie
p2913
aVfunny
p2914
aV!
aVthat's
p2915
aVlike
p2916
aVthe
p2917
aVsf
p2918
aVsandwich
p2919
aVchain
p2920
aVboudin
p2921
aV.
aVshould
p2922
aVbe
p2923
aV"
aVboo-dahn
p2924
aV"
aVin
p2925
aVfrench
p2926
aV,
aVbut
p2927
aVthey
p2928
aVsay
p2929
aV"
aVbow-deen
p2930
aV.
aV"
asg24
g25
(S'\x07\xdf\x0c\x13\x174\x18\x00\x00\x00'
tRp2931
sg27
Nsg28
Vgoldfine
p2932
sa(dp2933
g3
(lp2934
Vrt
p2935
aV@replyall
p2936
aV:
aVreply
p2937
aVall
p2938
aVis
p2939
aVworking
p2940
aVon
p2941
aVa
aVstory
p2942
aVabout
p2943
aVthe
p2944
aVlack
p2945
aVof
p2946
aVdiversity
p2947
aVin
p2948
aVsilicon
p2949
aVvalley
p2950
aV,
aVand
p2951
aVwe
p2952
aVneed
p2953
aVyour
p2954
aVhelp
p2955
aV.
aVhttps://t.co/vghizeo3bb
p2956
asg24
g25
(S'\x07\xdf\x0c\x12\x17\r\x1e\x00\x00\x00'
tRp2957
sg27
Nsg28
Vgoldfine
p2958
sa(dp2959
g3
(lp2960
Vrt
p2961
aV@afg410
p2962
aV:
aV@goldfine
p2963
aVi
aVheard
p2964
aVhamilton
p2965
aVturns
p2966
aVout
p2967
aVto
p2968
aVbe
p2969
aVa
aVjedi
p2970
aVmaster
p2971
aV.
aVhe
p2972
aVsaves
p2973
aVthe
p2974
aVwhole
p2975
aVgalaxy
p2976
aVin
p2977
aVforce
p2978
aVawakens
p2979
aV.
asg24
g25
(S'\x07\xdf\x0c\x12\x12\x0e\x00\x00\x00\x00'
tRp2980
sg27
Nsg28
Vgoldfine
p2981
sa(dp2982
g3
(lp2983
Vthe
p2984
aVupside
p2985
aVto
p2986
aVeveryone
p2987
aVin
p2988
aVmy
p2989
aVtwitter
p2990
aVfeed
p2991
aVtalking
p2992
aVabout
p2993
aVstar
p2994
aVwars
p2995
aVis
p2996
aVthat
p2997
aVat
p2998
aVleast
p2999
aVthey've
p3000
aVstopped
p3001
aVtalking
p3002
aVabout
p3003
aVhamilton
p3004
aVfor
p3005
aVa
aVminute
p3006
aV.
asg24
g25
(S'\x07\xdf\x0c\x12\x10\x15\x18\x00\x00\x00'
tRp3007
sg27
Nsg28
Vgoldfine
p3008
sa(dp3009
g3
(lp3010
Vrt
p3011
aV@mathowie
p3012
aV:
aVhello
p3013
aV.
aVi'd
p3014
aVlike
p3015
aVto
p3016
aVadd
p3017
aVyou
p3018
aVto
p3019
aVmy
p3020
aVprofessional
p3021
aVnetwork
p3022
aVat
p3023
aVlinkedin
p3024
aVhttps://t.co/thcsbehjrm
p3025
asg24
g25
(S'\x07\xdf\x0c\x12\x00\x06\x14\x00\x00\x00'
tRp3026
sg27
Nsg28
Vgoldfine
p3027
sa(dp3028
g3
(lp3029
V@joliekerr
p3030
aVdid
p3031
aVyou
p3032
aVtalk
p3033
aVabout
p3034
aVcleaning
p3035
aVturmeric
p3036
aVoff
p3037
aVskin
p3038
aVin
p3039
aVthe
p3040
aVcleancast
p3041
aV?
aVor
p3042
aVjust
p3043
aVthe
p3044
aVhome
p3045
aV?
aVhttps://t.co/tisiumfmfq
p3046
asg24
g25
(S'\x07\xdf\x0c\x11\x16/\x11\x00\x00\x00'
tRp3047
sg27
Nsg28
Vgoldfine
p3048
sa(dp3049
g3
(lp3050
V@joliekerr
p3051
aVbeds
p3052
aV101
p3053
aV:
aVwhat
p3054
aVare
p3055
aVthe
p3056
aVvarious
p3057
aVpieces
p3058
aV,
aVhow
p3059
aVto
p3060
aVclean
p3061
aVeach
p3062
aV,
aVhow
p3063
aVoften
p3064
aV,
aVhow
p3065
aVto
p3066
aVmake
p3067
aV,
aVetc
p3068
aV.
asg24
g25
(S'\x07\xdf\x0c\x11\x15\x1e6\x00\x00\x00'
tRp3069
sg27
Nsg28
Vgoldfine
p3070
sa(dp3071
g3
(lp3072
V@joliekerr
p3073
aVyou
p3074
aVneed
p3075
aV@heavenrants
p3076
aVand
p3077
aV/
aVor
p3078
aV@brokeymcpoverty
p3079
aVbecause
p3080
aVthey're
p3081
aVhilarious
p3082
aVand
p3083
aVy'all
p3084
aVwould
p3085
aVhave
p3086
aVsuch
p3087
aVa
aVfun
p3088
aVconvo
p3089
aV!
asg24
g25
(S'\x07\xdf\x0c\x11\x13%\x07\x00\x00\x00'
tRp3090
sg27
Nsg28
Vgoldfine
p3091
sa(dp3092
g3
(lp3093
Vheehee
p3094
aVthe
p3095
aVbanana
p3096
aVholder
p3097
aVfrom
p3098
aV@renegadecraft
p3099
aVmade
p3100
aVit
p3101
aVon
p3102
aV"
aV23
p3103
aVthings
p3104
aVthat
p3105
aVcould
p3106
aVonly
p3107
aVhappen
p3108
aVin
p3109
aVsan
p3110
aVfrancisco
p3111
aV"
aVhttps://t.co/i2gicvvb2a
p3112
asg24
g25
(S'\x07\xdf\x0c\x11\x125\n\x00\x00\x00'
tRp3113
sg27
Nsg28
Vgoldfine
p3114
sa(dp3115
g3
(lp3116
Vanyone
p3117
aVelse
p3118
aVnot
p3119
aVgetting
p3120
aVthe
p3121
aVnew
p3122
aV@serial
p3123
aVin
p3124
aVtheir
p3125
aVfeed
p3126
aV?
asg24
g25
(S'\x07\xdf\x0c\x11\x0f\x185\x00\x00\x00'
tRp3127
sg27
Nsg28
Vgoldfine
p3128
sa(dp3129
g3
(lp3130
V@pjvogt
p3131
aV@agoldmund
p3132
aVgreat
p3133
aVep
p3134
aV!
aVquestion
p3135
aVfor
p3136
aVyou
p3137
aVon
p3138
aVfanfare
p3139
aV:
aVhttps://t.co/hpu1oz1bn3
p3140
asg24
g25
(S'\x07\xdf\x0c\x11\x050$\x00\x00\x00'
tRp3141
sg27
Nsg28
Vgoldfine
p3142
sa(dp3143
g3
(lp3144
V@pardot
p3145
aVi
aVam
p3146
aValways
p3147
aVhaving
p3148
aVtrouble
p3149
aVreaching
p3150
aVsupport
p3151
aV.
aVthey
p3152
aVare
p3153
aVconstantly
p3154
aV"
aVoffline
p3155
aV.
aV"
asg24
g25
(S'\x07\xdf\x0c\x11\x01.\x18\x00\x00\x00'
tRp3156
sg27
Nsg28
Vgoldfine
p3157
sa(dp3158
g3
(lp3159
Vi'm
p3160
aVstarting
p3161
aVto
p3162
aVwonder
p3163
aVif
p3164
aVpardot
p3165
aVsupport
p3166
aVis
p3167
aV*
aVever
p3168
aV*
aVonline
p3169
aV.
aVsigh
p3170
aV.
asg24
g25
(S"\x07\xdf\x0c\x10\x15'\x02\x00\x00\x00"
tRp3171
sg27
Nsg28
Vgoldfine
p3172
sa(dp3173
g3
(lp3174
V@gjcharlet
p3175
aV@jessamyn
p3176
aVy'all
p3177
aVare
p3178
aVregular
p3179
aVdavid
p3180
aVsedarises
p3181
aVhttps://t.co/kuppvmicx6
p3182
asg24
g25
(S'\x07\xdf\x0c\x0f\x01\x01\x06\x00\x00\x00'
tRp3183
sg27
Nsg28
Vgoldfine
p3184
sa(dp3185
g3
(lp3186
Vmayyyybe
p3187
aVthe
p3188
aVapple
p3189
aVtv
p3190
aVis
p3191
aVgetting
p3192
aVamazon
p3193
aVprime
p3194
aVvideo
p3195
aV?
aVhttps://t.co/ez4nh602dv
p3196
asg24
g25
(S'\x07\xdf\x0c\x0f\x00\x07\x04\x00\x00\x00'
tRp3197
sg27
Nsg28
Vgoldfine
p3198
sa(dp3199
g3
(lp3200
V@thematchesband
p3201
aVfeels
p3202
aVlike
p3203
aVa
aVtwo-night
p3204
aVsong
p3205
aVto
p3206
aVme
p3207
aV!
asg24
g25
(S'\x07\xdf\x0c\x0e\x15.#\x00\x00\x00'
tRp3208
sg27
Nsg28
Vgoldfine
p3209
sa(dp3210
g3
(lp3211
V@griph
p3212
aVthere's
p3213
aVa
aVlot
p3214
aVto
p3215
aVunpack
p3216
aVin
p3217
aVthat
p3218
aVsentence
p3219
aV.
asg24
g25
(S'\x07\xdf\x0c\x0e\x14\x176\x00\x00\x00'
tRp3220
sg27
Nsg28
Vgoldfine
p3221
sa(dp3222
g3
(lp3223
Vrt
p3224
aV@mathowie
p3225
aV:
aVi
aVjust
p3226
aVpublished
p3227
aV\u201c
aVwhy
p3228
aVi
aVcan
p3229
aV\u2019
aVt
aVstop
p3230
aVputting
p3231
aVdildos
p3232
aVinto
p3233
aVthe
p3234
aVhands
p3235
aVof
p3236
aVpowerful
p3237
aVconservatives
p3238
aV\u201d
aVhttps://t.co/jfxnvpy3o6
p3239
aV#gopdildo
p3240
asg24
g25
(S"\x07\xdf\x0c\r\x11'/\x00\x00\x00"
tRp3241
sg27
Nsg28
Vgoldfine
p3242
sa(dp3243
g3
(lp3244
V@griph
p3245
aVboogie
p3246
aVnights
p3247
aV?
asg24
g25
(S'\x07\xdf\x0c\x0c\x12*\x1d\x00\x00\x00'
tRp3248
sg27
Nsg28
Vgoldfine
p3249
sa(dp3250
g3
(lp3251
Vrt
p3252
aV@emilyannecondon
p3253
aV:
aVyou
p3254
aVknow
p3255
aVpodcasts
p3256
aVhave
p3257
aVmade
p3258
aVit
p3259
aVwhen
p3260
aVwe
p3261
aVhave
p3262
aVour
p3263
aVown
p3264
aVsubset
p3265
aVof
p3266
aVwoman
p3267
aValone
p3268
aVstock
p3269
aVimages
p3270
aV.
aVhttps://t.co/xdqltrklaq
p3271
asg24
g25
(S'\x07\xdf\x0c\x0b\x139\x1b\x00\x00\x00'
tRp3272
sg27
Nsg28
Vgoldfine
p3273
sa(dp3274
g3
(lp3275
V@thebloggess
p3276
aVi'm
p3277
aVnominating
p3278
aVmyself
p3279
aVfor
p3280
aV:
aVmost
p3281
aVlikely
p3282
aVto
p3283
aVgive
p3284
aVherself
p3285
aVa
aVfat
p3286
aVlip
p3287
aVby
p3288
aVgetting
p3289
aVsmacked
p3290
aVin
p3291
aVthe
p3292
aVface
p3293
aVby
p3294
aVown
p3295
aVlaptop
p3296
aV#selfnominations
p3297
asg24
g25
(S'\x07\xdf\x0c\n\x11\x1e\x04\x00\x00\x00'
tRp3298
sg27
Nsg28
Vgoldfine
p3299
sa(dp3300
g3
(lp3301
V@romanmars
p3302
aV@emma_sandoe
p3303
aVtoday
p3304
aVi
aVhit
p3305
aVmyself
p3306
aVin
p3307
aVthe
p3308
aVface
p3309
aVwith
p3310
aVmy
p3311
aVlaptop
p3312
aVwhile
p3313
aVlying
p3314
aVon
p3315
aVthe
p3316
aVcouch
p3317
aV.
aVow
p3318
aV.
asg24
g25
(S'\x07\xdf\x0c\t\x14\x1a\x0e\x00\x00\x00'
tRp3319
sg27
Nsg28
Vgoldfine
p3320
sa(dp3321
g3
(lp3322
V@agoldmund
p3323
aVunfortunately
p3324
aVyou
p3325
aVcan't
p3326
aVfix
p3327
aVbad
p3328
aVcommunication
p3329
aVwith
p3330
aVbetter
p3331
aVapps
p3332
aV.
asg24
g25
(S'\x07\xdf\x0c\t\x14\x14\x0f\x00\x00\x00'
tRp3333
sg27
Nsg28
Vgoldfine
p3334
sa(dp3335
g3
(lp3336
V@vnaylon
p3337
aVme
p3338
aV:
aVomg
p3339
aVi
aVlove
p3340
aVvanessa
p3341
aV@_tc_
p3342
aV:
aVlet
p3343
aVme
p3344
aVguess
p3345
aV.
aVthe
p3346
aVpie
p3347
aVchart
p3348
aV.
asg24
g25
(S'\x07\xdf\x0c\t\x05\x02\x10\x00\x00\x00'
tRp3349
sg27
Nsg28
Vgoldfine
p3350
sa(dp3351
g3
(lp3352
V@anildash
p3353
aV@brokeymcpoverty
p3354
aVyou
p3355
aVneed
p3356
aVanil
p3357
aVas
p3358
aVa
aVguest
p3359
aV!
asg24
g25
(S'\x07\xdf\x0c\x07\x11*3\x00\x00\x00'
tRp3360
sg27
Nsg28
Vgoldfine
p3361
sa(dp3362
g3
(lp3363
Vrt
p3364
aV@sarahmei
p3365
aV:
aVhiring
p3366
aVa
aVworker
p3367
aVin
p3368
aVthe
p3369
aVtop
p3370
aV1
aV%
aVnets
p3371
aVyou
p3372
aV$
aV5,303
p3373
aV.
aVavoiding
p3374
aVa
aVtoxic
p3375
aVhire
p3376
aVnets
p3377
aVyou
p3378
aV$
aV12,489
p3379
aV.
aVhttps://t.co/i6cxcziitj
p3380
asg24
g25
(S'\x07\xdf\x0c\x07\x11)\x10\x00\x00\x00'
tRp3381
sg27
Nsg28
Vgoldfine
p3382
sa(dp3383
g3
(lp3384
V@romanmars
p3385
aV@emma_sandoe
p3386
aVi
aVam
p3387
aValways
p3388
aVafraid
p3389
aVof
p3390
aVbreaking
p3391
aVmy
p3392
aVglasses
p3393
aV!
aV#nerdproblems
p3394
asg24
g25
(S'\x07\xdf\x0c\x07\x05\x18\x1e\x00\x00\x00'
tRp3395
sg27
Nsg28
Vgoldfine
p3396
sa(dp3397
g3
(lp3398
V@emma_sandoe
p3399
aV@romanmars
p3400
aValthough
p3401
aVi
aVhad
p3402
aVto
p3403
aVread
p3404
aVthe
p3405
aVgoldfinch
p3406
aVon
p3407
aVkindle
p3408
aVbc
p3409
aVeven
p3410
aVthe
p3411
aVpaperback
p3412
aVwas
p3413
aVso
p3414
aVheavy
p3415
aV,
aVit
p3416
aVkept
p3417
aVfalling
p3418
aVon
p3419
aVmy
p3420
aVface
p3421
aVin
p3422
aVbed
p3423
asg24
g25
(S'\x07\xdf\x0c\x07\x04&\x18\x00\x00\x00'
tRp3424
sg27
Nsg28
Vgoldfine
p3425
sa(dp3426
g3
(lp3427
V@emma_sandoe
p3428
aV@romanmars
p3429
aVi
aVam
p3430
aVall
p3431
aVfor
p3432
aVpaper
p3433
aV!
aVtried
p3434
aVa
aVkindle
p3435
aVbut
p3436
aVdidn't
p3437
aVenjoy
p3438
aVreading
p3439
aVon
p3440
aVit
p3441
aV.
asg24
g25
(S'\x07\xdf\x0c\x07\x04%\t\x00\x00\x00'
tRp3442
sg27
Nsg28
Vgoldfine
p3443
sa(dp3444
g3
(lp3445
Vrt
p3446
aV@aerykuda
p3447
aV:
aV"
aViiiii'm
p3448
aVdreaming
p3449
aVof
p3450
aVa
aVwhiiite
p3451
aVcountry
p3452
aV.
aV.
aV.
aVuh
p3453
aVi
aVmean
p3454
aVchristmas
p3455
aV.
aV.
aV.
aVfuck
p3456
aVthese
p3457
aVmartinis
p3458
aV.
aV.
aV.
aVvote
p3459
aVtrump
p3460
aV!
aV"
aV-
aV@realdonaldtrump
p3461
aV@midnight
p3462
aV\u2026
asg24
g25
(S'\x07\xdf\x0c\x04\x1460\x00\x00\x00'
tRp3463
sg27
Nsg28
Vgoldfine
p3464
sa(dp3465
g3
(lp3466
Vrt
p3467
aV@aerykuda
p3468
aV:
aVchestnuts
p3469
aVroasting
p3470
aVget
p3471
aVaway
p3472
aVfrom
p3473
aVthe
p3474
aVgoddamn
p3475
aVfire
p3476
aV,
aVkyle
p3477
aV#drunkcarols
p3478
asg24
g25
(S'\x07\xdf\x0c\x04\x146!\x00\x00\x00'
tRp3479
sg27
Nsg28
Vgoldfine
p3480
sa(dp3481
g3
(lp3482
V@dothebay
p3483
aV@thematchesband
p3484
aV@fillmoresf
p3485
aV12
p3486
aV/
aV28
p3487
aVnot
p3488
aV12
p3489
aV/
aV18
p3490
asg24
g25
(S'\x07\xdf\x0c\x04\x13\x1e)\x00\x00\x00'
tRp3491
sg27
Nsg28
Vgoldfine
p3492
sa(dp3493
g3
(lp3494
V@mollycrabapple
p3495
aV@philnelson
p3496
aVor
p3497
aVmusic
p3498
aVindustry
p3499
aV(
aVcoughcoughdrluke
p3500
aV)
asg24
g25
(S'\x07\xdf\x0c\x04\x00\x190\x00\x00\x00'
tRp3501
sg27
Nsg28
Vgoldfine
p3502
sa(dp3503
g3
(lp3504
V@alexkapelman
p3505
aVpeak
p3506
aVcurly
p3507
aVgirl
p3508
asg24
g25
(S'\x07\xdf\x0c\x04\x00\x17\x03\x00\x00\x00'
tRp3509
sg27
Nsg28
Vgoldfine
p3510
sa(dp3511
g3
(lp3512
V@alexkapelman
p3513
aVyou
p3514
aVguys
p3515
aVdo
p3516
aVhave
p3517
aVmore
p3518
aVpodcast
p3519
aVevents
p3520
aV.
aVbut
p3521
aVwe
p3522
aVhave
p3523
aV@romanmars
p3524
asg24
g25
(S'\x07\xdf\x0c\x03\x0f (\x00\x00\x00'
tRp3525
sg27
Nsg28
Vgoldfine
p3526
sa(dp3527
g3
(lp3528
V@alexkapelman
p3529
aV@anotherround
p3530
aVoh
p3531
aVwait
p3532
aVyou
p3533
aVlive
p3534
aVin
p3535
aVnyc
p3536
aVyou
p3537
aVare
p3538
aVprobably
p3539
aVtalking
p3540
aVabout
p3541
aVthe
p3542
aVlive
p3543
aVshow
p3544
aV.
aV*
aVsigh
p3545
aV*
asg24
g25
(S'\x07\xdf\x0c\x03\x03\x15&\x00\x00\x00'
tRp3546
sg27
Nsg28
Vgoldfine
p3547
sa(dp3548
g3
(lp3549
V@alexkapelman
p3550
aV@anotherround
p3551
aVspoiler
p3552
aV:
aVamazing
p3553
aVepisode
p3554
asg24
g25
(S"\x07\xdf\x0c\x03\x03\x10'\x00\x00\x00"
tRp3555
sg27
Nsg28
Vgoldfine
p3556
sa(dp3557
g3
(lp3558
V@thebloggess
p3559
aVbe
p3560
aVcareful
p3561
aVin
p3562
aVmarin
p3563
aV.
aVsquirrels
p3564
aV!
aVhttps://t.co/e2ewarauh0
p3565
asg24
g25
(S'\x07\xdf\x0c\x03\x00\x14\x0e\x00\x00\x00'
tRp3566
sg27
Nsg28
Vgoldfine
p3567
sa.