(lp1
(dp2
S'text'
p3
(lp4
V@dr_memory
p5
aVbagel
p6
aVhole
p7
aVis
p8
aVso
p9
aVyummy
p10
aV!
aV!
aV!
aVwhen
p11
aVare
p12
aVyou
p13
aVvisiting
p14
aVnext
p15
aVand
p16
aVcan
p17
aVyou
p18
aVbring
p19
aVthem
p20
aV:)
p21
asS'created_at'
p22
cdatetime
datetime
p23
(S'\x07\xe0\x01\x17\x17\x1e\x12\x00\x00\x00'
tRp24
sS'lat/long'
p25
NsS'name'
p26
Vlesliegeek
p27
sa(dp28
g3
(lp29
V@baseballbabe_8
p30
aVwe
p31
aValso
p32
aVhave
p33
aVa
aVbudget
p34
aV,
aVcity
p35
aVoffices
p36
aV,
aVsfmta
p37
aV,
aVlibraries
p38
aV,
aVetc
p39
aVthat
p40
aVare
p41
aVpaid
p42
aVby
p43
aVour
p44
aVtaxes
p45
aV.
asg22
g23
(S'\x07\xe0\x01\x17\x17\x112\x00\x00\x00'
tRp46
sg25
Nsg26
Vlesliegeek
p47
sa(dp48
g3
(lp49
V@baseballbabe_8
p50
aVthere
p51
aV\u2019
aVs
aVnot
p52
aVa
aVcity
p53
aVincome
p54
aVtax
p55
aVbut
p56
aVwe
p57
aVdo
p58
aVpay
p59
aVtaxes
p60
aVin
p61
aVsan
p62
aVfrancisco
p63
aV.
aVi
aV\u2019
aVm
aVat
p64
aVleast
p65
aVpaying
p66
aVbusiness
p67
aVand
p68
aVproperty
p69
aVtax
p70
asg22
g23
(S'\x07\xe0\x01\x17\x17\x11\x03\x00\x00\x00'
tRp71
sg25
Nsg26
Vlesliegeek
p72
sa(dp73
g3
(lp74
Vmy
p75
aVfavorite
p76
aVpart
p77
aVof
p78
aV@superbowl
p79
aV50
p80
aVis
p81
aVsan
p82
aVfrancisco
p83
aVtaxpayers
p84
aVare
p85
aVsubsidizing
p86
aV$
aV4.8
p87
aVmillion
p88
aVfor
p89
aVthe
p90
aV@nfl
p91
aVto
p92
aVhave
p93
aVa
aVparty
p94
aV!
aV#sb50
p95
aV#nflplayoffs
p96
asg22
g23
(S'\x07\xe0\x01\x17\x17\n\x1d\x00\x00\x00'
tRp97
sg25
Nsg26
Vlesliegeek
p98
sa(dp99
g3
(lp100
Vrt
p101
aV@mipsytipsy
p102
aV:
aVtil
p103
aVthat
p104
aVthe
p105
aVnfl's
p106
aVyearly
p107
aVrevenues
p108
aVare
p109
aVlarger
p110
aVthan
p111
aVsf's
p112
aVbudget
p113
aV,
aVyet
p114
aVwe're
p115
aVon
p116
aVthe
p117
aVhook
p118
aVfor
p119
aVa
aV$
aV4.8
p120
aVm
aVsuper
p121
aVbowl
p122
aVsubsidy
p123
aVhttps
p124
aV:
aV\u2026
asg22
g23
(S'\x07\xe0\x01\x17\x17\x08\x15\x00\x00\x00'
tRp125
sg25
Nsg26
Vlesliegeek
p126
sa(dp127
g3
(lp128
Vi
aVthink
p129
aVi
aVneed
p130
aVto
p131
aVre-evaluate
p132
aVmy
p133
aVmissing
p134
aVof
p135
aVpit
p136
aV.
aVthe
p137
aV@pittsburghpg
p138
aVpublished
p139
aVan
p140
aVeditorial
p141
aVthat
p142
aVslavery
p143
aVwasn
p144
aV\u2019
aVt
aVtoo
p145
aVbad
p146
aV?
aVhttps://t.co/qxxeclncod
p147
asg22
g23
(S'\x07\xe0\x01\x17\x10$\x14\x00\x00\x00'
tRp148
sg25
Nsg26
Vlesliegeek
p149
sa(dp150
g3
(lp151
V@xatharine
p152
aVwhere
p153
aVare
p154
aVthe
p155
aVpics
p156
aV?
asg22
g23
(S'\x07\xe0\x01\x17\x10\x1d/\x00\x00\x00'
tRp157
sg25
Nsg26
Vlesliegeek
p158
sa(dp159
g3
(lp160
V@j4cob
p161
aV@andnotnull
p162
aV@sfbike
p163
aVthe
p164
aVbest
p165
aVpart
p166
aVis
p167
aVthat
p168
aVi
aVget
p169
aVto
p170
aVpay
p171
aVfor
p172
aVa
aVprivate
p173
aVcorporation
p174
aVto
p175
aVnot
p176
aVlet
p177
aVme
p178
aVbike
p179
aV!
asg22
g23
(S'\x07\xe0\x01\x16\x13,\x02\x00\x00\x00'
tRp180
sg25
Nsg26
Vlesliegeek
p181
sa(dp182
g3
(lp183
V@bridgetkromhout
p184
aVgrrrr
p185
aV.
aVi
aVlove
p186
aVthe
p187
aVladies
p188
aVtoo
p189
aV,
aVbut
p190
aVi
aV\u2019
aVd
aVlike
p191
aVsome
p192
aVfreaking
p193
aVequality
p194
aVhere
p195
aV!
aV!
aV!
asg22
g23
(S'\x07\xe0\x01\x16\x10\x07(\x00\x00\x00'
tRp196
sg25
Nsg26
Vlesliegeek
p197
sa(dp198
g3
(lp199
Vwhy
p200
aVare
p201
aVall
p202
aVthe
p203
aVwomen
p204
aVwearing
p205
aVso
p206
aVlittle
p207
aVclothing
p208
aV?
aVor
p209
aValternately
p210
aV,
aVwhy
p211
aVare
p212
aVall
p213
aVthe
p214
aVmen
p215
aVwearing
p216
aVso
p217
aVmuch
p218
aV?
aV#suicidesquadtrailer
p219
asg22
g23
(S'\x07\xe0\x01\x16\x10\x035\x00\x00\x00'
tRp220
sg25
Nsg26
Vlesliegeek
p221
sa(dp222
g3
(lp223
Vthe
p224
aVbeginning
p225
aVof
p226
aVthis
p227
aVarticle
p228
aVreally
p229
aVcaptures
p230
aVmy
p231
aVissue
p232
aVwith
p233
aVthe
p234
aVsuicide
p235
aVsquad
p236
aVtrailer
p237
aV-
aVhttps://t.co/iww2hs20mk
p238
asg22
g23
(S'\x07\xe0\x01\x16\x10\x02;\x00\x00\x00'
tRp239
sg25
Nsg26
Vlesliegeek
p240
sa(dp241
g3
(lp242
Vrt
p243
aV@daenney
p244
aV:
aVopening
p245
aVgov
p246
aV.
aVuk's
p247
aVpuppet
p248
aVrepository
p249
aVhttps://t.co/4xwnyt2ynn
p250
aV#puppet
p251
aV#puppetize
p252
asg22
g23
(S'\x07\xe0\x01\x16\r72\x00\x00\x00'
tRp253
sg25
Nsg26
Vlesliegeek
p254
sa(dp255
g3
(lp256
Vthe
p257
aVbbc
p258
aVdissects
p259
aVthe
p260
aVweirdness
p261
aV(
aVinsanity
p262
aV?
aVdysfunction
p263
aV?
aV)
aVof
p264
aVthe
p265
aVamerican
p266
aVpresidential
p267
aVelections
p268
aVso
p269
aVwell
p270
aVhttps://t.co/ctew28zqrn
p271
asg22
g23
(S'\x07\xe0\x01\x16\x01\x012\x00\x00\x00'
tRp272
sg25
Nsg26
Vlesliegeek
p273
sa(dp274
g3
(lp275
V#oscarssowhite
p276
aVthey
p277
aVlook
p278
aVlike
p279
aVa
aVsf
p280
aVstartup
p281
aVoffice
p282
aV!
asg22
g23
(S'\x07\xe0\x01\x15\x11*#\x00\x00\x00'
tRp283
sg25
Nsg26
Vlesliegeek
p284
sa(dp285
g3
(lp286
V@black_isis
p287
aVyeah
p288
aVthough
p289
aVi
aVthink
p290
aVthat
p291
aVsince
p292
aVrent
p293
aVcontrol
p294
aVis
p295
aVlimited
p296
aVto
p297
aVolder
p298
aVbuildings
p299
aV,
aVit
p300
aV\u2019
aVs
aVa
aVmuch
p301
aVmore
p302
aVcomplex
p303
aVissue
p304
asg22
g23
(S'\x07\xe0\x01\x14\x17#,\x00\x00\x00'
tRp305
sg25
Nsg26
Vlesliegeek
p306
sa(dp307
g3
(lp308
V@black_isis
p309
aVso
p310
aVsad
p311
aVbut
p312
aVso
p313
aVtrue
p314
aV.
aVand
p315
aVthey
p316
aVoften
p317
aVsponsor
p318
aVwell
p319
aVmeaning
p320
aVbut
p321
aVmisguided
p322
aVgrassroots
p323
aVorgs
p324
aVwho
p325
aVrestrict
p326
aVbuilding
p327
asg22
g23
(S'\x07\xe0\x01\x14\x17"\x08\x00\x00\x00'
tRp328
sg25
Nsg26
Vlesliegeek
p329
sa(dp330
g3
(lp331
V@black_isis
p332
aVor
p333
aVreally
p334
aVthe
p335
aVonly
p336
aVway
p337
aVto
p338
aVpass
p339
aVreasonable
p340
aVland
p341
aVuse
p342
aVlaws
p343
aVand
p344
aVstop
p345
aVallowing
p346
aVso
p347
aVmuch
p348
aVpublic
p349
aVcomment
p350
aVinto
p351
aVbuildings
p352
asg22
g23
(S'\x07\xe0\x01\x14\x17\x1f\x19\x00\x00\x00'
tRp353
sg25
Nsg26
Vlesliegeek
p354
sa(dp355
g3
(lp356
V@black_isis
p357
aVmy
p358
aVsolution
p359
aVis
p360
aVto
p361
aVclone
p362
aVa
aVfull
p363
aVboard
p364
aVof
p365
aVsupervisors
p366
aVfull
p367
aVof
p368
aVanthony
p369
aVweiners
p370
aVand
p371
aVthen
p372
aVvoila
p373
aV!
asg22
g23
(S'\x07\xe0\x01\x14\x17\x1f\x00\x00\x00\x00'
tRp374
sg25
Nsg26
Vlesliegeek
p375
sa(dp376
g3
(lp377
V@black_isis
p378
aVi
aVagree
p379
aVwith
p380
aVthe
p381
aVinteresting
p382
aVand
p383
aVunsurprising
p384
aV.
aVit
p385
aV\u2019
aVs
aVdefinitely
p386
aVhappening
p387
aVin
p388
aVsf
p389
aV,
aVsince
p390
aVno
p391
aVhousing
p392
aVis
p393
aVbeing
p394
aVbuilt
p395
aVhere
p396
aV:(
p397
asg22
g23
(S'\x07\xe0\x01\x14\x17\x1a\x05\x00\x00\x00'
tRp398
sg25
Nsg26
Vlesliegeek
p399
sa(dp400
g3
(lp401
Va
aVstudy
p402
aVshows
p403
aVthat
p404
aVthe
p405
aVmore
p406
aVdensity
p407
aVrestrictions
p408
aV,
aVthe
p409
aVmore
p410
aVsegregated
p411
aVa
aVcity
p412
aVis
p413
aVhttps://t.co/ycjozqzbll
p414
aV*
aVcough
p415
aV*
aVcough
p416
aV*
aVsanfrancisco
p417
aV*
aVcough
p418
aV*
asg22
g23
(S'\x07\xe0\x01\x14\x17\x0c\t\x00\x00\x00'
tRp419
sg25
Nsg26
Vlesliegeek
p420
sa(dp421
g3
(lp422
Voh
p423
aVnoes
p424
aV!
aV!
aV!
aVcute
p425
aVoverload
p426
aVis
p427
aVshutting
p428
aVdown
p429
aV:(
p430
aVhttps://t.co/bicrqvadaz
p431
aV#sad
p432
asg22
g23
(S'\x07\xe0\x01\x14\r5\x02\x00\x00\x00'
tRp433
sg25
Nsg26
Vlesliegeek
p434
sa(dp435
g3
(lp436
V@quominus
p437
aVyay
p438
aV!
aVi
aV\u2019
aVd
aVlove
p439
aVto
p440
aVhelp
p441
aVyou
p442
aVwith
p443
aVshenanigans
p444
aVbut
p445
aVinstead
p446
aVi
aV\u2019
aVm
aVgoing
p447
aVto
p448
aVlay
p449
aVdown
p450
aVall
p451
aVday
p452
aVdrinking
p453
aVginger
p454
aVale
p455
aVand
p456
aVeating
p457
aVsaltines
p458
asg22
g23
(S'\x07\xe0\x01\x14\r \x04\x00\x00\x00'
tRp459
sg25
Nsg26
Vlesliegeek
p460
sa(dp461
g3
(lp462
V@quominus
p463
aV:(
p464
asg22
g23
(S'\x07\xe0\x01\x14\r\x1b \x00\x00\x00'
tRp465
sg25
Nsg26
Vlesliegeek
p466
sa(dp467
g3
(lp468
V@mipsytipsy
p469
aVfunny
p470
aVthing
p471
aV,
aVi
aVdon
p472
aV\u2019
aVt
aVeven
p473
aVnotice
p474
aVyour
p475
aVswearing
p476
aV.
asg22
g23
(S'\x07\xe0\x01\x14\r\x14\x04\x00\x00\x00'
tRp477
sg25
Nsg26
Vlesliegeek
p478
sa(dp479
g3
(lp480
V@quominus
p481
aVi
aVgot
p482
aVfood
p483
aVpoisoning
p484
aVand
p485
aVhave
p486
aVbeen
p487
aVmiserable
p488
aVfor
p489
aV36
p490
aVhours
p491
aV.
aVyou
p492
aV?
asg22
g23
(S'\x07\xe0\x01\x14\r\x12\x14\x00\x00\x00'
tRp493
sg25
Nsg26
Vlesliegeek
p494
sa(dp495
g3
(lp496
Vwow
p497
aV,
aVi
aVhave
p498
aVeven
p499
aVmore
p500
aVrespect
p501
aVfor
p502
aV@slackhq
p503
aVafter
p504
aV@stewart
p505
aVsent
p506
aVout
p507
aVan
p508
aVawesome
p509
aVletter
p510
aVwhy
p511
aVslack
p512
aVobserves
p513
aVmlk
p514
aVday
p515
aVhttps://t.co/gufwduiyvb
p516
asg22
g23
(S'\x07\xe0\x01\x13\x14\x0c\x07\x00\x00\x00'
tRp517
sg25
Nsg26
Vlesliegeek
p518
sa(dp519
g3
(lp520
V@beerops
p521
aVhttps://t.co/yofqhl9i5w
p522
aVbut
p523
aVcan
p524
aV\u2019
aVt
aVfind
p525
aVthe
p526
aVoriginal
p527
aVstudy
p528
asg22
g23
(S'\x07\xe0\x01\x13\x1290\x00\x00\x00'
tRp529
sg25
Nsg26
Vlesliegeek
p530
sa(dp531
g3
(lp532
V@quominus
p533
aVcheck
p534
aVout
p535
aVhttps://t.co/nfgvbneadw
p536
aV\u2014
aVthe
p537
aVultra
p538
aVchromes
p539
aVand
p540
aVultra
p541
aVmetallics
p542
aVare
p543
aVmy
p544
aVfavorites
p545
aV!
asg22
g23
(S'\x07\xe0\x01\x12\x02\x01\x02\x00\x00\x00'
tRp546
sg25
Nsg26
Vlesliegeek
p547
sa(dp548
g3
(lp549
V@quominus
p550
aVis
p551
aVthat
p552
aVabout
p553
aVthe
p554
aVbanned
p555
aVeditor
p556
aV?
aVbecause
p557
aVi
aValways
p558
aVthought
p559
aVthe
p560
aVen
p561
aVwiki
p562
aVwas
p563
aVtoo
p564
aVconservative
p565
aVin
p566
aVnot
p567
aVbanning
p568
aVfor
p569
aVharassment
p570
asg22
g23
(S"\x07\xe0\x01\x10\x0e':\x00\x00\x00"
tRp571
sg25
Nsg26
Vlesliegeek
p572
sa(dp573
g3
(lp574
V@philshapiro
p575
aVawesome
p576
aVstuff
p577
aV!
asg22
g23
(S'\x07\xe0\x01\x0e\x1519\x00\x00\x00'
tRp578
sg25
Nsg26
Vlesliegeek
p579
sa(dp580
g3
(lp581
V@beerops
p582
aVthis
p583
aVisn
p584
aV\u2019
aVt
aVquite
p585
aVas
p586
aVgood
p587
aVas
p588
aVa
aVreal
p589
aVchocolate
p590
aVbar
p591
aVbut
p592
aVis
p593
aVstill
p594
aVpretty
p595
aVgood
p596
aVhttps://t.co/ihkyhtus7o
p597
aV(
aVno
p598
aVadded
p599
aVsugar
p600
aV!
aV)
asg22
g23
(S'\x07\xe0\x01\r\x17\x053\x00\x00\x00'
tRp601
sg25
Nsg26
Vlesliegeek
p602
sa(dp603
g3
(lp604
V@curiouserbear
p605
aVat
p606
aVleast
p607
aVher
p608
aVheart
p609
aVis
p610
aVin
p611
aVthe
p612
aVright
p613
aVplace
p614
asg22
g23
(S'\x07\xe0\x01\r\x17\x05\x01\x00\x00\x00'
tRp615
sg25
Nsg26
Vlesliegeek
p616
sa(dp617
g3
(lp618
Vi
aVwon
p619
aV!
aVthanks
p620
aV@potus
p621
aV#sotu
p622
aV#sotubingo
p623
aVhttps://t.co/wm8hw1kepu
p624
asg22
g23
(S'\x07\xe0\x01\r\x02\x1b\x1a\x00\x00\x00'
tRp625
sg25
Nsg26
Vlesliegeek
p626
sa(dp627
g3
(lp628
Vi'm
p629
aVready
p630
aVfor
p631
aVthe
p632
aVstate
p633
aVof
p634
aVthe
p635
aVunion
p636
aV!
aVdon't
p637
aVlet
p638
aVme
p639
aVdown
p640
aV@potus
p641
aV!
aVhttps://t.co/2omzezcwjz
p642
asg22
g23
(S'\x07\xe0\x01\r\x018\x0f\x00\x00\x00'
tRp643
sg25
Nsg26
Vlesliegeek
p644
sa(dp645
g3
(lp646
Vwoah
p647
aV,
aVi
aVhad
p648
aVno
p649
aVidea
p650
aVthat
p651
aV@suse
p652
aVhad
p653
aVso
p654
aVmuch
p655
aVfunky
p656
aVgame
p657
aV.
aVhttps://t.co/jpnbxqla87
p658
asg22
g23
(S'\x07\xe0\x01\x0b\x11:8\x00\x00\x00'
tRp659
sg25
Nsg26
Vlesliegeek
p660
sa(dp661
g3
(lp662
Vrt
p663
aV@seanmcelwee
p664
aV:
aVthis
p665
aVmodel
p666
aVshows
p667
aVseizing
p668
aVthe
p669
aVmeans
p670
aVof
p671
aVproduction
p672
aVleads
p673
aVto
p674
aVmore
p675
aVmiddle
p676
aVclass
p677
aVwealth
p678
aVthan
p679
aVforgoing
p680
aVmorning
p681
aVcoffee
p682
aVhttps://t.
p683
aV\u2026
asg22
g23
(S'\x07\xe0\x01\x0b\x11\x00\x05\x00\x00\x00'
tRp684
sg25
Nsg26
Vlesliegeek
p685
sa(dp686
g3
(lp687
Vi
aVwon
p688
aVan
p689
aVanimaniacs
p690
aVvhs
p691
aVtape
p692
aV!
aVhttps://t.co/iyrvrjghr3
p693
asg22
g23
(S'\x07\xe0\x01\x0b\x07-\x11\x00\x00\x00'
tRp694
sg25
Nsg26
Vlesliegeek
p695
sa(dp696
g3
(lp697
Vi
aVjust
p698
aVrealized
p699
aVthat
p700
aV2016
p701
aVis
p702
aVa
aVbig
p703
aVyear
p704
aV!
aVit
p705
aV\u2019
aVs
aVmy
p706
aV10
p707
aVth
p708
aVcaliforniaversary
p709
aVand
p710
aVmy
p711
aV35
p712
aVth
p713
aVbirthday
p714
aVthis
p715
aVyear
p716
aV!
aVforecast
p717
aVcalls
p718
aVfor
p719
aVheavy
p720
aVparties
p721
aV.
asg22
g23
(S"\x07\xe0\x01\n\x162'\x00\x00\x00"
tRp722
sg25
Nsg26
Vlesliegeek
p723
sa(dp724
g3
(lp725
Vthanks
p726
aV@bronwyn
p727
aVfor
p728
aVhelping
p729
aVme
p730
aVup
p731
aVmy
p732
aVansible-fu
p733
aVat
p734
aVthe
p735
aV@sfmix
p736
aVhackday
p737
aV!
asg22
g23
(S'\x07\xe0\x01\n\x0090\x00\x00\x00'
tRp738
sg25
Nsg26
Vlesliegeek
p739
sa(dp740
g3
(lp741
Vnow
p742
aVthat
p743
aV@okcupid
p744
aVis
p745
aVjumping
p746
aVon
p747
aVthe
p748
aVbandwagon
p749
aVto
p750
aVdisplay
p751
aVpoly
p752
aVrelationships
p753
aV,
aVwhen
p754
aVwill
p755
aV@facebook
p756
aVlet
p757
aVme
p758
aVlist
p759
aVmore
p760
aVthan
p761
aVone
p762
aVrelationship
p763
aV?
asg22
g23
(S'\x07\xe0\x01\t\x15\x020\x00\x00\x00'
tRp764
sg25
Nsg26
Vlesliegeek
p765
sa(dp766
g3
(lp767
V@rlotz
p768
aVoh
p769
aV,
aVyou
p770
aV\u2019
aVre
p771
aVjust
p772
aVa
aVlady-in-waiting
p773
aVthen
p774
aV.
asg22
g23
(S'\x07\xe0\x01\t\x14\x0b+\x00\x00\x00'
tRp775
sg25
Nsg26
Vlesliegeek
p776
sa(dp777
g3
(lp778
V@rlotz
p779
aVyou
p780
aV\u2019
aVre
p781
aVsuch
p782
aVa
aVtravel
p783
aVdiva
p784
aV!
aVi
aVthink
p785
aVi
aV\u2019
aVm
aVgoing
p786
aVto
p787
aVlose
p788
aVmy
p789
aVstar
p790
aValliance
p791
aVgold
p792
aVthis
p793
aVyear
p794
aV:(
p795
aV@alonealass
p796
asg22
g23
(S'\x07\xe0\x01\t\x14\x08\x03\x00\x00\x00'
tRp797
sg25
Nsg26
Vlesliegeek
p798
sa(dp799
g3
(lp800
V@techstepper
p801
aVso
p802
aVcute
p803
aV!
aV!
aV!
asg22
g23
(S'\x07\xe0\x01\t\x11\x13\x00\x00\x00\x00'
tRp804
sg25
Nsg26
Vlesliegeek
p805
sa(dp806
g3
(lp807
V@drwilco
p808
aVafter
p809
aVmy
p810
aVcoin
p811
aVattempted
p812
aVpre-order
p813
aVdebacle
p814
aV,
aVi
aV\u2019
aVm
aVnot
p815
aVpurchasing
p816
aVany
p817
aVof
p818
aVthe
p819
aVpromised
p820
aVcards
p821
aVuntil
p822
aVthey
p823
aVactually
p824
aVship
p825
aV.
asg22
g23
(S'\x07\xe0\x01\x07\x16$\x16\x00\x00\x00'
tRp826
sg25
Nsg26
Vlesliegeek
p827
sa(dp828
g3
(lp829
Vbooked
p830
aVmy
p831
aVflights
p832
aVfor
p833
aV#nanog66
p834
aV(
aVi
aV\u2019
aVm
aVspeaking
p835
aVthere
p836
aVagain
p837
aV!
aV)
aV.
aVi
aV\u2019
aVm
aVtravel
p838
aVdiva
p839
aV\u2019
aVing
p840
aVby
p841
aVnot
p842
aVleaving
p843
aVthe
p844
aVairport
p845
aVbetween
p846
aVhawaii
p847
aV&
aVamp
p848
aV;
aVsan
p849
aVdiego
p850
aVtrips
p851
asg22
g23
(S'\x07\xe0\x01\x07\x10!\x00\x00\x00\x00'
tRp852
sg25
Nsg26
Vlesliegeek
p853
sa(dp854
g3
(lp855
V@whatthekit
p856
aVsounds
p857
aVlike
p858
aVthe
p859
aVperfect
p860
aVreason
p861
aVfor
p862
aVzipcar
p863
aV?
asg22
g23
(S'\x07\xe0\x01\x07\x10\x191\x00\x00\x00'
tRp864
sg25
Nsg26
Vlesliegeek
p865
sa(dp866
g3
(lp867
V@rlotz
p868
aVnot
p869
aVgoing
p870
aV-
aVit
p871
aVconflicts
p872
aVwith
p873
aVthe
p874
aVjoco
p875
aVcruise
p876
asg22
g23
(S'\x07\xe0\x01\x07\x03\x00#\x00\x00\x00'
tRp877
sg25
Nsg26
Vlesliegeek
p878
sa(dp879
g3
(lp880
V@dorkmatt
p881
aVi
aV\u2019
aVm
aVbusy
p882
aVthat
p883
aVweek
p884
aVas
p885
aVwell
p886
asg22
g23
(S'\x07\xe0\x01\x07\x02$\x0f\x00\x00\x00'
tRp887
sg25
Nsg26
Vlesliegeek
p888
sa(dp889
g3
(lp890
V@mayhembcn
p891
aVi
aVthink
p892
aVit
p893
aV\u2019
aVs
aValso
p894
aVbecause
p895
aVi
aVhaven
p896
aV\u2019
aVt
aVhad
p897
aVthe
p898
aVchance
p899
aVthat
p900
aVit
p901
aV\u2019
aVs
aVso
p902
aVappealing
p903
aV!
asg22
g23
(S'\x07\xe0\x01\x07\x00:6\x00\x00\x00'
tRp904
sg25
Nsg26
Vlesliegeek
p905
sa(dp906
g3
(lp907
Vhuh
p908
aV,
aVany
p909
aVaustralian
p910
aVconference
p911
aVwant
p912
aVme
p913
aVto
p914
aVcome
p915
aVspeak
p916
aV?
aV;)
p917
aVhttps://t.co/yobobbg7yt
p918
asg22
g23
(S'\x07\xe0\x01\x07\x00:\x11\x00\x00\x00'
tRp919
sg25
Nsg26
Vlesliegeek
p920
sa(dp921
g3
(lp922
Vi've
p923
aVflown
p924
aV235,971
p925
aVmiles
p926
aVsince
p927
aVi
aVstarted
p928
aVtracking
p929
aVin
p930
aV2012
p931
aV.
aVdespite
p932
aVthis
p933
aV,
aVi've
p934
aVnot
p935
aVyet
p936
aVflown
p937
aVon
p938
aVa
aV@boeing
p939
aV787
p940
aV:(
p941
aVhttps://t.co/tjla1e4jhb
p942
asg22
g23
(S'\x07\xe0\x01\x07\x00/\x04\x00\x00\x00'
tRp943
sg25
Nsg26
Vlesliegeek
p944
sa(dp945
g3
(lp946
Vi'm
p947
aVback
p948
aVin
p949
aVsan
p950
aVfrancisco
p951
aV!
aVit's
p952
aVso
p953
aVmuch
p954
aVwarmer
p955
aVthan
p956
aVgermany
p957
aV.
asg22
g23
(S'\x07\xe0\x01\x07\x00*1\x00\x00\x00'
tRp958
sg25
Nsg26
Vlesliegeek
p959
sa(dp960
g3
(lp961
Vrt
p962
aV@darrinw
p963
aV:
aVprops
p964
aVto
p965
aV@lesliegeek
p966
aVfor
p967
aVher
p968
aVnew
p969
aVjob
p970
aVaccording
p971
aVto
p972
aVlinkedin
p973
aV.
aV"
aVdevops
p974
aVengineer
p975
aVof
p976
aVfunemployment
p977
aV"
asg22
g23
(S'\x07\xe0\x01\x05\x15\x18\x04\x00\x00\x00'
tRp978
sg25
Nsg26
Vlesliegeek
p979
sa(dp980
g3
(lp981
Vrt
p982
aV@momo_ops
p983
aV:
aVit's
p984
aVhigh
p985
aVtime
p986
aVfor
p987
aVnetwork
p988
aVgear
p989
aVto
p990
aVget
p991
aVon
p992
aVthe
p993
aVautomation
p994
aVtrain
p995
aV;
aVsuperhero
p996
aV@lesliegeek
p997
aVgives
p998
aVthe
p999
aVrundown
p1000
aVin
p1001
aVsysadvent
p1002
aV:
aVhttps
p1003
aV:/
p1004
aV/
aV\u2026
asg22
g23
(S'\x07\xe0\x01\x04\x169\x18\x00\x00\x00'
tRp1005
sg25
Nsg26
Vlesliegeek
p1006
sa(dp1007
g3
(lp1008
Vrt
p1009
aV@itsjacereid
p1010
aV:
aV"
aVphiladelphia
p1011
aVwoman
p1012
aVopens
p1013
aVcomics
p1014
aVshop
p1015
aVthat
p1016
aVfocuses
p1017
aVon
p1018
aVdiversity
p1019
aVand
p1020
aVcoffee
p1021
aV.
aV"
aVsign
p1022
aVme
p1023
aVup
p1024
aV.
aVhttps://t.co/jpfbjzoznr
p1025
aVhttps
p1026
aV:/
p1027
aV/
aV\u2026
asg22
g23
(S'\x07\xe0\x01\x02\x165\t\x00\x00\x00'
tRp1028
sg25
Nsg26
Vlesliegeek
p1029
sa(dp1030
g3
(lp1031
V@rvmnl
p1032
aVdonald
p1033
aVtrump's
p1034
aVstill
p1035
aVaround
p1036
aV.
aVit's
p1037
aValready
p1038
aVfailed
p1039
aV:(
p1040
asg22
g23
(S'\x07\xe0\x01\x02\n\x11(\x00\x00\x00'
tRp1041
sg25
Nsg26
Vlesliegeek
p1042
sa(dp1043
g3
(lp1044
V@andnotnull
p1045
aVnext
p1046
aVyear
p1047
aVwe
p1048
aVshould
p1049
aVcome
p1050
aVout
p1051
aV,
aVget
p1052
aVan
p1053
aVairbnb
p1054
aV,
aVand
p1055
aVbuy
p1056
aVa
aVfuckton
p1057
aVof
p1058
aVfireworks
p1059
aV!
asg22
g23
(S'\x07\xdf\x0c\x1f\x173\x10\x00\x00\x00'
tRp1060
sg25
Nsg26
Vlesliegeek
p1061
sa(dp1062
g3
(lp1063
Vberlin
p1064
aVon
p1065
aVnew
p1066
aVyear's
p1067
aVmakes
p1068
aVthe
p1069
aVbest
p1070
aVfourth
p1071
aVof
p1072
aVjuly
p1073
aVshow
p1074
aVi've
p1075
aVseen
p1076
aVlook
p1077
aVlike
p1078
aVamateur
p1079
aVhour
p1080
aV.
aVhttps://t.co/cfnijb6z6q
p1081
asg22
g23
(S'\x07\xdf\x0c\x1f\x17\x16\x15\x00\x00\x00'
tRp1082
sg25
Nsg26
Vlesliegeek
p1083
sa(dp1084
g3
(lp1085
V@elliott_burris
p1086
aVor
p1087
aVwhat
p1088
aVother
p1089
aVnew
p1090
aVideas
p1091
aVare
p1092
aVyou
p1093
aVtrying
p1094
aVto
p1095
aVpush
p1096
aV?
asg22
g23
(S'\x07\xdf\x0c\x1f\t\x1a&\x00\x00\x00'
tRp1097
sg25
Nsg26
Vlesliegeek
p1098
sa(dp1099
g3
(lp1100
V@elliott_burris
p1101
aVfeel
p1102
aVfree
p1103
aVto
p1104
aVsend
p1105
aVme
p1106
aVa
aVdm
p1107
aV(
aVmine
p1108
aVare
p1109
aVmarked
p1110
aVopen
p1111
aV,
aVdouble
p1112
aVcheck
p1113
aVi
aVcan
p1114
aVsend
p1115
aVyou
p1116
aVone
p1117
aVback
p1118
aV)
aV.
aVwhat
p1119
aVchallenges
p1120
aVare
p1121
aVyou
p1122
aVfacing
p1123
aV?
asg22
g23
(S'\x07\xdf\x0c\x1f\t\x1a\x17\x00\x00\x00'
tRp1124
sg25
Nsg26
Vlesliegeek
p1125
sa(dp1126
g3
(lp1127
V@supertylerc
p1128
aV@caltrain_news
p1129
aVi
aVwould
p1130
aVlove
p1131
aVthat
p1132
aVtoo
p1133
aV,
aVbut
p1134
aVcaltrain
p1135
aVis
p1136
aVdoing
p1137
aVso
p1138
aVmuch
p1139
aVwith
p1140
aVsuch
p1141
aVa
aVlimited
p1142
aVbudget
p1143
aV.
aVmaybe
p1144
aVbeer
p1145
aVcan
p1146
aVpay
p1147
aVfor
p1148
aVseats
p1149
aV!
asg22
g23
(S'\x07\xdf\x0c\x1e\x11\x189\x00\x00\x00'
tRp1150
sg25
Nsg26
Vlesliegeek
p1151
sa(dp1152
g3
(lp1153
Vbb
p1154
aV-
aV8
aVthinks
p1155
aVthat
p1156
aV@caltrain_news
p1157
aVshould
p1158
aVhave
p1159
aVyummy
p1160
aVbeer
p1161
aVjust
p1162
aVlike
p1163
aVthe
p1164
aVgerman
p1165
aVtrains
p1166
aV.
aVhttps://t.co/vmrghkhakd
p1167
asg22
g23
(S'\x07\xdf\x0c\x1e\x11\x15(\x00\x00\x00'
tRp1168
sg25
Nsg26
Vlesliegeek
p1169
sa(dp1170
g3
(lp1171
V@whatthekit
p1172
aVseattle
p1173
aVis
p1174
aVsuprisingly
p1175
aVkickass
p1176
aVand
p1177
aVpinballed
p1178
aV!
aV:)
p1179
aVhttps://t.co/v4rjatomvy
p1180
aVis
p1181
aVthe
p1182
aVspecific
p1183
aVcafe
p1184
aVmox
p1185
aVi
aVmentioned
p1186
aV.
asg22
g23
(S'\x07\xdf\x0c\x1e\x10)\x1e\x00\x00\x00'
tRp1187
sg25
Nsg26
Vlesliegeek
p1188
sa(dp1189
g3
(lp1190
V@whatthekit
p1191
aV(
aV4
aV/
aV4
aV)
aVcafe
p1192
aVmox
p1193
aVis
p1194
aVkickass
p1195
aV-
aVit
p1196
aVhas
p1197
aVlots
p1198
aVof
p1199
aVboard
p1200
aVgames
p1201
aV(
aVyou
p1202
aVcan
p1203
aVborrow
p1204
aVthem
p1205
aV!
aV)
aVhttps://t.co/whxcpjlurv
p1206
asg22
g23
(S'\x07\xdf\x0c\x1e\x10(\x1d\x00\x00\x00'
tRp1207
sg25
Nsg26
Vlesliegeek
p1208
sa(dp1209
g3
(lp1210
V@whatthekit
p1211
aV(
aV3
aV/
aV4
aV)
aVit
p1212
aVsurprisingly
p1213
aVhas
p1214
aVcool
p1215
aVjapanese
p1216
aVgames
p1217
aV,
aVdespite
p1218
aVsome
p1219
aVbros
p1220
aV.
aVhttps://t.co/qnoaoz5mmu
p1221
aVis
p1222
aValso
p1223
aVgreat
p1224
aV,
aVand
p1225
asg22
g23
(S'\x07\xdf\x0c\x1e\x10(\x03\x00\x00\x00'
tRp1226
sg25
Nsg26
Vlesliegeek
p1227
sa(dp1228
g3
(lp1229
V@whatthekit
p1230
aV(
aV2
aV/
aV?
aV)
aVsome
p1231
aVgreat
p1232
aVarcades
p1233
aV,
aVhttps://t.co/bstrpmio6b
p1234
aVis
p1235
aVuseful
p1236
aVin
p1237
aVgeneral
p1238
aV,
aVbut
p1239
aVi
aVesp
p1240
aVlove
p1241
aVhttps://t.co/nys00nb7sp
p1242
aVon
p1243
aVunlimited
p1244
aVdays
p1245
asg22
g23
(S'\x07\xdf\x0c\x1e\x10%$\x00\x00\x00'
tRp1246
sg25
Nsg26
Vlesliegeek
p1247
sa(dp1248
g3
(lp1249
V@whatthekit
p1250
aVscifi
p1251
aVmuseum
p1252
aV-
aVhttps://t.co/k3ipikrolu
p1253
aV,
aVcheck
p1254
aVout
p1255
aVmain
p1256
aVpublic
p1257
aVlibrary
p1258
aV(
aVbuilding
p1259
aVis
p1260
aVgorgeous
p1261
aV)
aVhttps://t.co/ozwvjjeqor
p1262
aV(
aV1
aV/
aV2
aV)
asg22
g23
(S'\x07\xdf\x0c\x1e\x10$,\x00\x00\x00'
tRp1263
sg25
Nsg26
Vlesliegeek
p1264
sa(dp1265
g3
(lp1266
V2015
p1267
aVwas
p1268
aVa
aVpretty
p1269
aVgood
p1270
aVyear
p1271
aVfor
p1272
aVmy
p1273
aVflying
p1274
aV!
aVhttps://t.co/qzyab8yqq3
p1275
asg22
g23
(S'\x07\xdf\x0c\x1e\x10#/\x00\x00\x00'
tRp1276
sg25
Nsg26
Vlesliegeek
p1277
sa(dp1278
g3
(lp1279
V@rlotz
p1280
aVyes
p1281
aVit
p1282
aVwas
p1283
aV.
aVand
p1284
aVwe
p1285
aVhave
p1286
aVa
aVsecond
p1287
aVmedical
p1288
aVemergency
p1289
aVat
p1290
aVthe
p1291
aVmoment
p1292
aV,
aVbut
p1293
aVare
p1294
aVover
p1295
aVthe
p1296
aVwater
p1297
aVand
p1298
aVnot
p1299
aVvery
p1300
aVclose
p1301
aVto
p1302
aVany
p1303
aVairport
p1304
aV:(
p1305
asg22
g23
(S'\x07\xdf\x0c\x1e\n0\x1f\x00\x00\x00'
tRp1306
sg25
Nsg26
Vlesliegeek
p1307
sa(dp1308
g3
(lp1309
V@dorkmatt
p1310
aV@lufthansa
p1311
aVyes
p1312
aVit
p1313
aVis
p1314
aV!
aVexcellent
p1315
aVservice
p1316
aV,
aVbut
p1317
aVwe
p1318
aVdiverted
p1319
aVto
p1320
aVmsp
p1321
aVdue
p1322
aVto
p1323
aVa
aVmedical
p1324
aVemergency
p1325
aV.
aV\U0001f61e
asg22
g23
(S'\x07\xdf\x0c\x1e\x04\t\n\x00\x00\x00'
tRp1326
sg25
Nsg26
Vlesliegeek
p1327
sa(dp1328
g3
(lp1329
V@pangchen
p1330
aVsadly
p1331
aVthey
p1332
aVmust
p1333
aVonly
p1334
aVgive
p1335
aVthem
p1336
aVout
p1337
aVin
p1338
aVfirst
p1339
aV.
aVi
aVbrought
p1340
aVmy
p1341
aVown
p1342
asg22
g23
(S'\x07\xdf\x0c\x1e\x03+\x00\x00\x00\x00'
tRp1343
sg25
Nsg26
Vlesliegeek
p1344
sa(dp1345
g3
(lp1346
V@toddmcraw
p1347
aVthere
p1348
aVis
p1349
aVno
p1350
aVbond
p1351
aVmore
p1352
aVsacred
p1353
aVthen
p1354
aVthat
p1355
aVof
p1356
aVa
aVgirl
p1357
aVand
p1358
aVher
p1359
aVdroid
p1360
asg22
g23
(S'\x07\xdf\x0c\x1e\x03\x1b\x1d\x00\x00\x00'
tRp1361
sg25
Nsg26
Vlesliegeek
p1362
sa(dp1363
g3
(lp1364
Vrt
p1365
aV@toddmcraw
p1366
aV:
aV@lesliegeek
p1367
aVso
p1368
aVglad
p1369
aVto
p1370
aVsee
p1371
aVyou
p1372
aVhave
p1373
aVa
aVnew
p1374
aVrelationship
p1375
aV.
aVall
p1376
aVthe
p1377
aVhappiness
p1378
aVin
p1379
aVthe
p1380
aVworld
p1381
aVto
p1382
aVyou
p1383
aVand
p1384
aVyour
p1385
aVbb8
p1386
aV.
aV;)
p1387
asg22
g23
(S'\x07\xdf\x0c\x1e\x03\x1b\x00\x00\x00\x00'
tRp1388
sg25
Nsg26
Vlesliegeek
p1389
sa(dp1390
g3
(lp1391
V@curiouserbear
p1392
aV@combledore
p1393
aV@pantalonesfuego
p1394
aV@harriet_vane_
p1395
aVoooo
p1396
aVwant
p1397
asg22
g23
(S'\x07\xdf\x0c\x1e\x03\n&\x00\x00\x00'
tRp1398
sg25
Nsg26
Vlesliegeek
p1399
sa(dp1400
g3
(lp1401
V@curiouserbear
p1402
aV@combledore
p1403
aV@pantalonesfuego
p1404
aV@harriet_vane_
p1405
aVboots
p1406
aV?
aVwhat
p1407
aVare
p1408
aVthe
p1409
aVheels
p1410
aVon
p1411
aV#
aV3
aV?
asg22
g23
(S'\x07\xdf\x0c\x1e\x03\x01 \x00\x00\x00'
tRp1412
sg25
Nsg26
Vlesliegeek
p1413
sa(dp1414
g3
(lp1415
Vbb
p1416
aV-
aV8
aVtoasts
p1417
aVto
p1418
aVthe
p1419
aVbeginning
p1420
aVof
p1421
aVthe
p1422
aVflight
p1423
aV!
aVhttps://t.co/2m8nlaoqdw
p1424
asg22
g23
(S'\x07\xdf\x0c\x1d\x163+\x00\x00\x00'
tRp1425
sg25
Nsg26
Vlesliegeek
p1426
sa(dp1427
g3
(lp1428
Vbb
p1429
aV-
aV8
aVthinks
p1430
aVthe
p1431
aVairplane
p1432
aVseat
p1433
aVhas
p1434
aVplenty
p1435
aVof
p1436
aVlegroom
p1437
aV!
aVhttps://t.co/tdk3ahhsal
p1438
asg22
g23
(S'\x07\xdf\x0c\x1d\x16/+\x00\x00\x00'
tRp1439
sg25
Nsg26
Vlesliegeek
p1440
sa(dp1441
g3
(lp1442
V@combledore
p1443
aV@curiouserbear
p1444
aVgo
p1445
aVfor
p1446
aVthem
p1447
aV!
aVi'm
p1448
aVgone
p1449
aVfor
p1450
aVa
aVweek
p1451
asg22
g23
(S'\x07\xdf\x0c\x1d\x147\x0c\x00\x00\x00'
tRp1452
sg25
Nsg26
Vlesliegeek
p1453
sa(dp1454
g3
(lp1455
V@curiouserbear
p1456
aV@combledore
p1457
aVshe's
p1458
aVsmart
p1459
aV!
asg22
g23
(S'\x07\xdf\x0c\x1d\x141:\x00\x00\x00'
tRp1460
sg25
Nsg26
Vlesliegeek
p1461
sa(dp1462
g3
(lp1463
V@curiouserbear
p1464
aVif
p1465
aV@combledore
p1466
aVdoesn't
p1467
aVwant
p1468
aVthem
p1469
aV,
aVi'll
p1470
aVtake
p1471
aVthem
p1472
aV!
asg22
g23
(S'\x07\xdf\x0c\x1d\x14.\t\x00\x00\x00'
tRp1473
sg25
Nsg26
Vlesliegeek
p1474
sa(dp1475
g3
(lp1476
V@combledore
p1477
aV@curiouserbear
p1478
aVyeah
p1479
aV,
aVi
aVcan't
p1480
aVreally
p1481
aVwalk
p1482
aVmuch
p1483
aVin
p1484
aVheels
p1485
aV.
aVa
aVskill
p1486
aVi
aVnever
p1487
aVacquired
p1488
asg22
g23
(S'\x07\xdf\x0c\x1d\x14,!\x00\x00\x00'
tRp1489
sg25
Nsg26
Vlesliegeek
p1490
sa(dp1491
g3
(lp1492
Vrt
p1493
aV@mikeindustries
p1494
aV:
aVgreat
p1495
aVoverview
p1496
aVof
p1497
aVwho
p1498
aVis
p1499
aVactually
p1500
aVto
p1501
aVblame
p1502
aVfor
p1503
aVsf's
p1504
aV(
aVfixable
p1505
aV!
aV)
aVhousing
p1506
aVproblem
p1507
aV:
aVhttps://t.co/pf85v2xi3m
p1508
aV(
aVvia
p1509
aV@jlax
p1510
aVwho
p1511
aV\u2026
asg22
g23
(S'\x07\xdf\x0c\x1d\x14\x0e\x1c\x00\x00\x00'
tRp1512
sg25
Nsg26
Vlesliegeek
p1513
sa(dp1514
g3
(lp1515
V@curiouserbear
p1516
aVooo
p1517
aVyes
p1518
aV:)
p1519
asg22
g23
(S'\x07\xdf\x0c\x1d\x139\x05\x00\x00\x00'
tRp1520
sg25
Nsg26
Vlesliegeek
p1521
sa(dp1522
g3
(lp1523
V@mipsytipsy
p1524
aVhave
p1525
aVyou
p1526
aVseen
p1527
aVhttps://t.co/mp0h4xjfqa
p1528
aV?
asg22
g23
(S'\x07\xdf\x0c\x1d\x13\x10\x1a\x00\x00\x00'
tRp1529
sg25
Nsg26
Vlesliegeek
p1530
sa(dp1531
g3
(lp1532
V@curiouserbear
p1533
aVhe
p1534
aVwill
p1535
aVprobably
p1536
aVnot
p1537
aVlove
p1538
aVit
p1539
aV.
aVso
p1540
aVeven
p1541
aVbetter
p1542
aVreason
p1543
aVto
p1544
aVget
p1545
aVone
p1546
aV!
asg22
g23
(S'\x07\xdf\x0c\x1c\x0253\x00\x00\x00'
tRp1547
sg25
Nsg26
Vlesliegeek
p1548
sa(dp1549
g3
(lp1550
Vmy
p1551
aVbb
p1552
aV-
aV8
aVeating
p1553
aVice
p1554
aVcream
p1555
aVpicture
p1556
aVdidn't
p1557
aVpost
p1558
aVlast
p1559
aVtweet
p1560
aV.
aVdroids
p1561
aVlove
p1562
aVpre
p1563
aVmovie
p1564
aVsnacks
p1565
aV!
aVhttps://t.co/xswoskzkdv
p1566
asg22
g23
(S'\x07\xdf\x0c\x1c\x020\r\x00\x00\x00'
tRp1567
sg25
Nsg26
Vlesliegeek
p1568
sa(dp1569
g3
(lp1570
V.
aV@sphero
p1571
aVwhy
p1572
aVdo
p1573
aVyou
p1574
aVuse
p1575
aVmale
p1576
aVgendered
p1577
aVpronouns
p1578
aVwhen
p1579
aVreferring
p1580
aVto
p1581
aVbb
p1582
aV-
aV8
aVin
p1583
aVyour
p1584
aVapp
p1585
aV?
asg22
g23
(S'\x07\xdf\x0c\x1b\x17\x1a\x13\x00\x00\x00'
tRp1586
sg25
Nsg26
Vlesliegeek
p1587
sa(dp1588
g3
(lp1589
Vbb8
p1590
aVgets
p1591
aVa
aVpre
p1592
aVmovie
p1593
aVsnack
p1594
asg22
g23
(S'\x07\xdf\x0c\x1b\x17\x189\x00\x00\x00'
tRp1595
sg25
Nsg26
Vlesliegeek
p1596
sa(dp1597
g3
(lp1598
V@nimby
p1599
aV\U0001f624
asg22
g23
(S'\x07\xdf\x0c\x1b\x15/)\x00\x00\x00'
tRp1600
sg25
Nsg26
Vlesliegeek
p1601
sa(dp1602
g3
(lp1603
Vguess
p1604
aVwhat
p1605
aVmovie
p1606
aVi'm
p1607
aVgoing
p1608
aVto
p1609
aVsee
p1610
aVagain
p1611
aVtoday
p1612
aV!
aVhttps://t.co/6oznvzx8v2
p1613
asg22
g23
(S'\x07\xdf\x0c\x1b\x15*\x03\x00\x00\x00'
tRp1614
sg25
Nsg26
Vlesliegeek
p1615
sa(dp1616
g3
(lp1617
Vtia
p1618
aVmeets
p1619
aVbb8
p1620
aV!
aVshe
p1621
aVwas
p1622
aVunimpressed
p1623
aVhttps://t.co/lv0q22sowz
p1624
asg22
g23
(S'\x07\xdf\x0c\x1b\x13-\x17\x00\x00\x00'
tRp1625
sg25
Nsg26
Vlesliegeek
p1626
sa(dp1627
g3
(lp1628
Vwow
p1629
aV,
aVsomeone
p1630
aVfilmed
p1631
aVmy
p1632
aVexact
p1633
aVreactions
p1634
aVto
p1635
aVthe
p1636
aVentire
p1637
aVstar
p1638
aVwars
p1639
aVmovie
p1640
aV!
aVhttps://t.co/8xqwvhbbyb
p1641
asg22
g23
(S'\x07\xdf\x0c\x19\x036:\x00\x00\x00'
tRp1642
sg25
Nsg26
Vlesliegeek
p1643
sa(dp1644
g3
(lp1645
Vsf
p1646
aVfriends
p1647
aV-
aVlet
p1648
aVme
p1649
aVknow
p1650
aVif
p1651
aVyou're
p1652
aVlooking
p1653
aVto
p1654
aVjoin
p1655
aVin
p1656
aVon
p1657
aVa
aVchristmas
p1658
aVdinner
p1659
aVout
p1660
aVat
p1661
aVindian
p1662
aVor
p1663
aVchinese
p1664
aVfood
p1665
aV.
asg22
g23
(S'\x07\xdf\x0c\x18\x11#\x13\x00\x00\x00'
tRp1666
sg25
Nsg26
Vlesliegeek
p1667
sa(dp1668
g3
(lp1669
Vrt
p1670
aV@chloesackur
p1671
aV:
aVoffice
p1672
aVrather
p1673
aVquiet
p1674
aV,
aVso
p1675
aVi
aVmade
p1676
aVa
aVhandy
p1677
aVcomparison
p1678
aVchart
p1679
aVabout
p1680
aVmy
p1681
aVtwo
p1682
aVfavourite
p1683
aVcharacters
p1684
aVof
p1685
aV2015
p1686
aVhttps://t.co/kg05zkjxlz
p1687
asg22
g23
(S'\x07\xdf\x0c\x18\x00.\x0b\x00\x00\x00'
tRp1688
sg25
Nsg26
Vlesliegeek
p1689
sa(dp1690
g3
(lp1691
V@curiouserbear
p1692
aVchocolate
p1693
aVfondue
p1694
aVparty
p1695
aVtime
p1696
aV?
asg22
g23
(S'\x07\xdf\x0c\x17\x13 \x15\x00\x00\x00'
tRp1697
sg25
Nsg26
Vlesliegeek
p1698
sa(dp1699
g3
(lp1700
Vrt
p1701
aV@lizthegrey
p1702
aV:
aVhttps://t.co/4q7ebncxll
p1703
aV-
aVtsa
p1704
aVremoving
p1705
aVopt-out
p1706
aVfrom
p1707
aVthe
p1708
aVgenital
p1709
aVscans
p1710
aV:(
p1711
aVcc
p1712
aV@shadipetosky
p1713
asg22
g23
(S'\x07\xdf\x0c\x16\x16#,\x00\x00\x00'
tRp1714
sg25
Nsg26
Vlesliegeek
p1715
sa(dp1716
g3
(lp1717
Vmy
p1718
aV@sysadvent
p1719
aVblog
p1720
aVwould
p1721
aVonly
p1722
aVhave
p1723
aVbeen
p1724
aVhalf
p1725
aVas
p1726
aVawesome
p1727
aVwithout
p1728
aV@bhenerey
p1729
aV'
aVs
aVawesome
p1730
aVediting
p1731
aV.
aVthank
p1732
aVyou
p1733
aV:)
p1734
aVhttps://t.co/yc2szqo0di
p1735
asg22
g23
(S'\x07\xdf\x0c\x16\x16\x1f\r\x00\x00\x00'
tRp1736
sg25
Nsg26
Vlesliegeek
p1737
sa(dp1738
g3
(lp1739
Vi
aVpromise
p1740
aVthat
p1741
aVmy
p1742
aV@sysadvent
p1743
aVblog
p1744
aVabout
p1745
aV#netdevops
p1746
aVhas
p1747
aV0
aVstar
p1748
aVwars
p1749
aVspoilers
p1750
aV.
aVhttps://t.co/yc2szqo0di
p1751
asg22
g23
(S'\x07\xdf\x0c\x14\x07\x04 \x00\x00\x00'
tRp1752
sg25
Nsg26
Vlesliegeek
p1753
sa(dp1754
g3
(lp1755
Vrt
p1756
aV@sysadvent
p1757
aV:
aVday
p1758
aV20
p1759
aV-
aVwhy
p1760
aVnetdevops
p1761
aV?
aV|
aVwritten
p1762
aVby
p1763
aV:
aV@lesliegeek
p1764
aV,
aVedited
p1765
aVby
p1766
aV:
aV@bhenerey
p1767
aVhttps://t.co/cxjt7fb2od
p1768
aV#netdevops
p1769
asg22
g23
(S'\x07\xdf\x0c\x14\x06$\x17\x00\x00\x00'
tRp1770
sg25
Nsg26
Vlesliegeek
p1771
sa(dp1772
g3
(lp1773
Vrt
p1774
aV@ferlatte
p1775
aV:
aVhell
p1776
aV,
aVwe
p1777
aVdon't
p1778
aVeven
p1779
aVoffer
p1780
aVequity
p1781
aVand
p1782
aVwe
p1783
aVcan
p1784
aVhire
p1785
aVgood
p1786
aVpeople
p1787
aV.
aVwe
p1788
aVpay
p1789
aVthem
p1790
aV.
aVin
p1791
aVdollars
p1792
aV.
aVlike
p1793
aVadults
p1794
aV.
aVeverybody
p1795
aVwins
p1796
aV!
asg22
g23
(S'\x07\xdf\x0c\x13\x12\x08\x0e\x00\x00\x00'
tRp1797
sg25
Nsg26
Vlesliegeek
p1798
sa(dp1799
g3
(lp1800
V@mipsytipsy
p1801
aVthat's
p1802
aVso
p1803
aVpretty
p1804
aV!
aV!
aV!
asg22
g23
(S'\x07\xdf\x0c\x13\x12\x06"\x00\x00\x00'
tRp1805
sg25
Nsg26
Vlesliegeek
p1806
sa(dp1807
g3
(lp1808
Vi'm
p1809
aVin
p1810
aVa
aVlyft
p1811
aVlistening
p1812
aVto
p1813
aVtwo
p1814
aVyoung
p1815
aVwomen
p1816
aVtalk
p1817
aVabout
p1818
aVprocuring
p1819
aVtheir
p1820
aVfake
p1821
aVids
p1822
aV.
aVi
aVfeel
p1823
aVso
p1824
aVold
p1825
aV.
asg22
g23
(S'\x07\xdf\x0c\x13\x06\n\x18\x00\x00\x00'
tRp1826
sg25
Nsg26
Vlesliegeek
p1827
sa(dp1828
g3
(lp1829
Vrip
p1830
aVchris
p1831
aVcee
p1832
aV.
aVyou
p1833
aVwere
p1834
aVan
p1835
aVamazing
p1836
aVperson
p1837
aV.
asg22
g23
(S'\x07\xdf\x0c\x12\x14\r0\x00\x00\x00'
tRp1838
sg25
Nsg26
Vlesliegeek
p1839
sa(dp1840
g3
(lp1841
V@jamfish728
p1842
aVenjoy
p1843
aVyour
p1844
aVwarm
p1845
aVbeachy
p1846
aVvacation
p1847
aV!
aVnow
p1848
aVthat
p1849
aVi'm
p1850
aVfunemployed
p1851
aV,
aVmaybe
p1852
aVwe
p1853
aVcan
p1854
aVlunch
p1855
aVwhen
p1856
aVyou
p1857
aVget
p1858
aVback
p1859
aV?
asg22
g23
(S'\x07\xdf\x0c\x12\x12\x19\x05\x00\x00\x00'
tRp1860
sg25
Nsg26
Vlesliegeek
p1861
sa(dp1862
g3
(lp1863
V@jamfish728
p1864
aVwanted
p1865
aVto
p1866
aVthrow
p1867
aVmy
p1868
aVlaptop
p1869
aVout
p1870
aVthe
p1871
aVwindow
p1872
aVreading
p1873
aVthat
p1874
aV.
aVgrrr
p1875
aV:(
p1876
asg22
g23
(S'\x07\xdf\x0c\x12\x12\x0f!\x00\x00\x00'
tRp1877
sg25
Nsg26
Vlesliegeek
p1878
sa(dp1879
g3
(lp1880
V@jamfish728
p1881
aVthat
p1882
aVis
p1883
aVsort
p1884
aVof
p1885
aVthe
p1886
aVquintessential
p1887
aVexample
p1888
aVof
p1889
aVracism
p1890
aVthat
p1891
aVhow
p1892
aVthe
p1893
aVfuck
p1894
aVis
p1895
aVthat
p1896
aVhappening
p1897
aVin
p1898
aVcalifornia
p1899
aVin
p1900
aV2015
p1901
aV?
aV!
aV?
aV!
aV?
aV!
aV?
aV!
aV?
asg22
g23
(S'\x07\xdf\x0c\x12\x12\x07\x17\x00\x00\x00'
tRp1902
sg25
Nsg26
Vlesliegeek
p1903
sa(dp1904
g3
(lp1905
Vrt
p1906
aV@jwoodham
p1907
aV:
aVnot
p1908
aVto
p1909
aVgive
p1910
aVanything
p1911
aVaway
p1912
aV,
aVbut
p1913
aVabout
p1914
aVhalfway
p1915
aVinto
p1916
aVstar
p1917
aVwars
p1918
aV:
aVthe
p1919
aVforce
p1920
aVawakens
p1921
aV,
aVa
aVmanager
p1922
aVmakes
p1923
aVyou
p1924
aVput
p1925
aVyour
p1926
aVpants
p1927
aVon
p1928
aVand
p1929
aVlea
p1930
aV\u2026
asg22
g23
(S'\x07\xdf\x0c\x12\x12\x01\x1c\x00\x00\x00'
tRp1931
sg25
Nsg26
Vlesliegeek
p1932
sa(dp1933
g3
(lp1934
V@ferlatte
p1935
aVare
p1936
aVyou
p1937
aVsure
p1938
aVyou
p1939
aVwant
p1940
aVto
p1941
aVtweet
p1942
aVyour
p1943
aVsex
p1944
aVlife
p1945
aV?
asg22
g23
(S'\x07\xdf\x0c\x12\x1197\x00\x00\x00'
tRp1946
sg25
Nsg26
Vlesliegeek
p1947
sa(dp1948
g3
(lp1949
V@jamfish728
p1950
aVwhat
p1951
aVthe
p1952
aVactual
p1953
aVfuck
p1954
aV?
asg22
g23
(S'\x07\xdf\x0c\x12\x119\x1b\x00\x00\x00'
tRp1955
sg25
Nsg26
Vlesliegeek
p1956
sa(dp1957
g3
(lp1958
V@rnelson0
p1959
aVit's
p1960
aVnot
p1961
aVlike
p1962
aVit's
p1963
aVset
p1964
aVin
p1965
aV1950
p1966
aV\u2026
aVdispensers
p1967
aVhave
p1968
aVbeen
p1969
aVaround
p1970
aVsince
p1971
aVthe
p1972
aV20
p1973
aV'
aVs
aVhttps://t.co/35gv6ouzvg
p1974
aVhttps://t.co/nfagjaoetu
p1975
asg22
g23
(S"\x07\xdf\x0c\x11\x169'\x00\x00\x00"
tRp1976
sg25
Nsg26
Vlesliegeek
p1977
sa(dp1978
g3
(lp1979
V@black_isis
p1980
aVthere's
p1981
aVa
aVsurprising
p1982
aVnumber
p1983
aVof
p1984
aVintact
p1985
aVnewspapers
p1986
aVas
p1987
aVwell
p1988
aV.
aVi
aVfigured
p1989
aVi'd
p1990
aVat
p1991
aVleast
p1992
aVsee
p1993
aVa
aVwrapper
p1994
aV!
asg22
g23
(S'\x07\xdf\x0c\x11\x16\r9\x00\x00\x00'
tRp1995
sg25
Nsg26
Vlesliegeek
p1996
sa(dp1997
g3
(lp1998
Vthe
p1999
aVweirdest
p2000
aVthing
p2001
aVabout
p2002
aVthe
p2003
aVfallout
p2004
aV4
aVworld
p2005
aVis
p2006
aVthat
p2007
aVno
p2008
aVwomen's
p2009
aVrestrooms
p2010
aVhave
p2011
aVsanitary
p2012
aVproducts
p2013
aV.
asg22
g23
(S'\x07\xdf\x0c\x11\x16\x07\t\x00\x00\x00'
tRp2014
sg25
Nsg26
Vlesliegeek
p2015
sa(dp2016
g3
(lp2017
Vpoll
p2018
aVtime
p2019
aV!
aVtia
p2020
aVis
p2021
aVat
p2022
aVher
p2023
aVfirst
p2024
aVvet
p2025
aVappointment
p2026
aV.
aVwhich
p2027
aVtype
p2028
aVof
p2029
aVangry
p2030
aVis
p2031
aVshe
p2032
aV?
asg22
g23
(S'\x07\xdf\x0c\x11\x11#9\x00\x00\x00'
tRp2033
sg25
Nsg26
Vlesliegeek
p2034
sa(dp2035
g3
(lp2036
V"
aVnot
p2037
aVall
p2038
aVfighters
p2039
aV"
aV#dndquotes
p2040
asg22
g23
(S'\x07\xdf\x0c\x11\x05\t\x16\x00\x00\x00'
tRp2041
sg25
Nsg26
Vlesliegeek
p2042
sa(dp2043
g3
(lp2044
Vin
p2045
aVtoday's
p2046
aVepisode
p2047
aVof
p2048
aV"
aVnever
p2049
aVleave
p2050
aVanything
p2051
aVon
p2052
aVyour
p2053
aVbike
p2054
aVwhen
p2055
aVlocking
p2056
aVit
p2057
aVup
p2058
aV"
aVour
p2059
aVheroine
p2060
aVloses
p2061
aVher
p2062
aVfront
p2063
aVlight
p2064
aV.
asg22
g23
(S'\x07\xdf\x0c\x10\x14\x1f3\x00\x00\x00'
tRp2065
sg25
Nsg26
Vlesliegeek
p2066
sa(dp2067
g3
(lp2068
Vtoday
p2069
aV@muse
p2070
aVwon
p2071
aVat
p2072
aVlive
p2073
aVshows
p2074
aV.
aVthey
p2075
aVwere
p2076
aVhelped
p2077
aVby
p2078
aVawesome
p2079
aV@snowden
p2080
aVimagery
p2081
aV.
asg22
g23
(S'\x07\xdf\x0c\x10\x06:\x1a\x00\x00\x00'
tRp2082
sg25
Nsg26
Vlesliegeek
p2083
sa(dp2084
g3
(lp2085
V@saemg
p2086
aVthe
p2087
aVrepublican
p2088
aVdebates
p2089
aVwere
p2090
aValso
p2091
aVin
p2092
aVvancouver
p2093
aV?
aVcrazy
p2094
aV!
aV;-)
p2095
asg22
g23
(S'\x07\xdf\x0c\x10\x02\x0e:\x00\x00\x00'
tRp2096
sg25
Nsg26
Vlesliegeek
p2097
sa(dp2098
g3
(lp2099
Vheading
p2100
aVto
p2101
aVgo
p2102
aVwatch
p2103
aVthe
p2104
aVmuse
p2105
aVconcert
p2106
aV\u2014
aVnot
p2107
aVtoo
p2108
aVsad
p2109
aVto
p2110
aVbe
p2111
aVmissing
p2112
aVthe
p2113
aVrepublican
p2114
aVdebate
p2115
aVfor
p2116
aVit
p2117
aV:)
p2118
asg22
g23
(S'\x07\xdf\x0c\x10\x01;#\x00\x00\x00'
tRp2119
sg25
Nsg26
Vlesliegeek
p2120
sa(dp2121
g3
(lp2122
V@oneunified
p2123
aV@internetplumber
p2124
aVyay
p2125
aVnetdevops
p2126
aV!
aV:)
p2127
asg22
g23
(S'\x07\xdf\x0c\x0f\x11\x05\x05\x00\x00\x00'
tRp2128
sg25
Nsg26
Vlesliegeek
p2129
sa(dp2130
g3
(lp2131
V@r343l
p2132
aVi'd
p2133
aVsay
p2134
aVit's
p2135
aVone
p2136
aVof
p2137
aVthe
p2138
aVmost
p2139
aVnecessary
p2140
aVdelivery
p2141
aVapps
p2142
aV!
asg22
g23
(S'\x07\xdf\x0c\x0f\x01(#\x00\x00\x00'
tRp2143
sg25
Nsg26
Vlesliegeek
p2144
sa(dp2145
g3
(lp2146
Vi
aVneed
p2147
aVto
p2148
aVgo
p2149
aVto
p2150
aVtokyo
p2151
aVagain
p2152
aV\u2026
aV.
aVhttps://t.co/sztdkliz13
p2153
asg22
g23
(S'\x07\xdf\x0c\x0e\x100\x05\x00\x00\x00'
tRp2154
sg25
Nsg26
Vlesliegeek
p2155
sa(dp2156
g3
(lp2157
V@the_mckern
p2158
aVugh
p2159
aV.
aVthough
p2160
aVthat
p2161
aVis
p2162
aVan
p2163
aVimpressively
p2164
aVloud
p2165
aVsystem
p2166
asg22
g23
(S'\x07\xdf\x0c\x0c\x067*\x00\x00\x00'
tRp2167
sg25
Nsg26
Vlesliegeek
p2168
sa(dp2169
g3
(lp2170
V@the_mckern
p2171
aVand
p2172
aVwhen
p2173
aVwill
p2174
aVthose
p2175
aVkids
p2176
aVstop
p2177
aVskateboarding
p2178
aVon
p2179
aVthe
p2180
aVsidewalk
p2181
aV?
aV!
aV?
asg22
g23
(S'\x07\xdf\x0c\x0c\x067\x18\x00\x00\x00'
tRp2182
sg25
Nsg26
Vlesliegeek
p2183
sa(dp2184
g3
(lp2185
Vi
aVhave
p2186
aVnow
p2187
aVbecome
p2188
aVthat
p2189
aVcranky
p2190
aVold
p2191
aVlady
p2192
aVwho
p2193
aVgoes
p2194
aVdownstairs
p2195
aVand
p2196
aVtells
p2197
aVthe
p2198
aVkids
p2199
aVto
p2200
aVturn
p2201
aVthe
p2202
aVmusic
p2203
aVdown
p2204
aVbecause
p2205
aVi
aVwant
p2206
aVto
p2207
aVsleep
p2208
aV.
asg22
g23
(S'\x07\xdf\x0c\x0c\x065\x12\x00\x00\x00'
tRp2209
sg25
Nsg26
Vlesliegeek
p2210
sa(dp2211
g3
(lp2212
V@curiouserbear
p2213
aVif
p2214
aVyou
p2215
aVneed
p2216
aVhelp
p2217
aVeating
p2218
aVthem
p2219
aV,
aVbring
p2220
aVthem
p2221
aVto
p2222
aVpostgiving
p2223
aV!
aV!
asg22
g23
(S'\x07\xdf\x0c\x0b\x16\x1d%\x00\x00\x00'
tRp2224
sg25
Nsg26
Vlesliegeek
p2225
sa(dp2226
g3
(lp2227
V@mipsytipsy
p2228
aVgah
p2229
aV!
aVi
aVstill
p2230
aVfind
p2231
aVit
p2232
aVfunny
p2233
aVthat
p2234
aVmicrosoft
p2235
aVactually
p2236
aVmade
p2237
aVsuch
p2238
aVa
aVgreat
p2239
aVproduct
p2240
aV.
asg22
g23
(S'\x07\xdf\x0c\x0b\x16\x1c,\x00\x00\x00'
tRp2241
sg25
Nsg26
Vlesliegeek
p2242
sa(dp2243
g3
(lp2244
V"
aVi'm
p2245
aVbeing
p2246
aVattacked
p2247
aVby
p2248
aVa
aVhoney
p2249
aVbadger
p2250
aV!
aV"
aV#dndquotes
p2251
asg22
g23
(S'\x07\xdf\x0c\n\x04:1\x00\x00\x00'
tRp2252
sg25
Nsg26
Vlesliegeek
p2253
sa(dp2254
g3
(lp2255
V@curiouserbear
p2256
aVask
p2257
aVthem
p2258
aVto
p2259
aVchoose
p2260
aVa
aVcool
p2261
aVhttps://t.co/vuny8kibqk
p2262
aVproject
p2263
aV!
asg22
g23
(S'\x07\xdf\x0c\n\x044\x13\x00\x00\x00'
tRp2264
sg25
Nsg26
Vlesliegeek
p2265
sa(dp2266
g3
(lp2267
V@hot_bid
p2268
aV@nimby
p2269
aVit's
p2270
aVjust
p2271
aVa
aVripoff
p2272
aVof
p2273
aVzombocom
p2274
aV!
aVhttps://t.co/9oesuuwluu
p2275
aVwhere
p2276
aVanything
p2277
aVis
p2278
aVpossible
p2279
aV\u2026
asg22
g23
(S'\x07\xdf\x0c\t\x17\x04 \x00\x00\x00'
tRp2280
sg25
Nsg26
Vlesliegeek
p2281
sa(dp2282
g3
(lp2283
Vrt
p2284
aV@mjb_sf
p2285
aV:
aV"
aVthe
p2286
aVonly
p2287
aVwomen
p2288
aVto
p2289
aVwork
p2290
aVat
p2291
aVsequoia
p2292
aVwill
p2293
aVbe
p2294
aVfetching
p2295
aVmy
p2296
aVcoffee
p2297
aV.
aV"
aVhttps://t.co/t28ooazakz
p2298
aVhttps://t.co/clj8qtmdxg
p2299
asg22
g23
(S"\x07\xdf\x0c\t\x07'*\x00\x00\x00"
tRp2300
sg25
Nsg26
Vlesliegeek
p2301
sa(dp2302
g3
(lp2303
Vrt
p2304
aV@sarabee
p2305
aV:
aVsuper
p2306
aVproud
p2307
aVof
p2308
aV@etsy
p2309
aVtoday
p2310
aVfor
p2311
aVmaking
p2312
aVour
p2313
aVbathrooms
p2314
aVas
p2315
aVgender-neutral
p2316
aVas
p2317
aVstate
p2318
aVlaw
p2319
aVallows
p2320
aVhttps://t.co/ytrwvwufau
p2321
asg22
g23
(S'\x07\xdf\x0c\x08\x00#3\x00\x00\x00'
tRp2322
sg25
Nsg26
Vlesliegeek
p2323
sa(dp2324
g3
(lp2325
Vrt
p2326
aV@xatharine
p2327
aV:
aVtfw
p2328
aVall
p2329
aVyour
p2330
aVfriends
p2331
aVget
p2332
aVthe
p2333
aVnew
p2334
aVfeature
p2335
aVin
p2336
aVa
aV/
aVb
aVtesting
p2337
aV,
aVbut
p2338
aVyou
p2339
aVdon't
p2340
aVhave
p2341
aVit
p2342
aVyet
p2343
aV.
aVhttps://t.co/nrzeayiklh
p2344
asg22
g23
(S"\x07\xdf\x0c\x05\x11'*\x00\x00\x00"
tRp2345
sg25
Nsg26
Vlesliegeek
p2346
sa(dp2347
g3
(lp2348
V@cmsirbu
p2349
aVmaybe
p2350
aV"
aVthe
p2351
aVonly
p2352
aVway
p2353
aVto
p2354
aVnot
p2355
aVcry
p2356
aVis
p2357
aVto
p2358
aVlaugh
p2359
aV"
aV?
asg22
g23
(S'\x07\xdf\x0c\x04\x10\x14\x11\x00\x00\x00'
tRp2360
sg25
Nsg26
Vlesliegeek
p2361
sa(dp2362
g3
(lp2363
Vthe
p2364
aVonion
p2365
aVoften
p2366
aVtreads
p2367
aVthe
p2368
aVline
p2369
aVbetween
p2370
aVfunny
p2371
aVand
p2372
aVall
p2373
aVtoo
p2374
aVtrue
p2375
aV.
aVthis
p2376
aVrepeated
p2377
aVarticle
p2378
aVreally
p2379
aVhits
p2380
aVhome
p2381
aVfor
p2382
aVme
p2383
aV-
aVhttps://t.co/dud82taly8
p2384
asg22
g23
(S'\x07\xdf\x0c\x04\x10\x0f\x12\x00\x00\x00'
tRp2385
sg25
Nsg26
Vlesliegeek
p2386
sa(dp2387
g3
(lp2388
Vrt
p2389
aV@deray
p2390
aV:
aVtoday
p2391
aVwe
p2392
aVlaunched
p2393
aVthe
p2394
aVpolice
p2395
aVunion
p2396
aVcontract
p2397
aVproject
p2398
aV.
aVlearn
p2399
aVhow
p2400
aVthey
p2401
aVblock
p2402
aVaccountability
p2403
aV:
aVhttps://t.co/fbqpkpkn5b.
p2404
aVhttps://t.co/
p2405
aV\u2026
asg22
g23
(S'\x07\xdf\x0c\x04\x0f6\x12\x00\x00\x00'
tRp2406
sg25
Nsg26
Vlesliegeek
p2407
sa(dp2408
g3
(lp2409
V@quominus
p2410
aVah
p2411
aV!
aVdidn't
p2412
aVrealize
p2413
aVthat
p2414
aVwas
p2415
aVyour
p2416
aVpoint
p2417
aV:)
p2418
aVbut
p2419
aVyes
p2420
aVtotally
p2421
aVagree
p2422
aV.
asg22
g23
(S'\x07\xdf\x0c\x03\x14\x082\x00\x00\x00'
tRp2423
sg25
Nsg26
Vlesliegeek
p2424
sa(dp2425
g3
(lp2426
V@quominus
p2427
aVwell
p2428
aVairbnb
p2429
aVtried
p2430
aVto
p2431
aVchange
p2432
aVan
p2433
aVinitiative
p2434
aVwhich
p2435
aVwould
p2436
aVhave
p2437
aVkilled
p2438
aVtheir
p2439
aVbusiness
p2440
aV.
aVit
p2441
aVdoes
p2442
aVmake
p2443
aVsense
p2444
aVthat
p2445
aVthey
p2446
aVcampaigned
p2447
asg22
g23
(S'\x07\xdf\x0c\x03\x14\x05;\x00\x00\x00'
tRp2448
sg25
Nsg26
Vlesliegeek
p2449
sa(dp2450
g3
(lp2451
Vwerewolves
p2452
aVnot
p2453
aVswearwolves
p2454
aV#dndquotes
p2455
asg22
g23
(S'\x07\xdf\x0c\x03\x05\x11-\x00\x00\x00'
tRp2456
sg25
Nsg26
Vlesliegeek
p2457
sa(dp2458
g3
(lp2459
Vin
p2460
aVcase
p2461
aVanyone
p2462
aVthinks
p2463
aVi
aVonly
p2464
aVam
p2465
aVpicking
p2466
aVon
p2467
aVfacebook
p2468
aV-
aVmany
p2469
aVcompanies
p2470
aVpaid
p2471
aVno
p2472
aVtaxes
p2473
aV\u2014
aVhttps://t.co/ps8y0ntfcb
p2474
asg22
g23
(S'\x07\xdf\x0c\x02\x169\x07\x00\x00\x00'
tRp2475
sg25
Nsg26
Vlesliegeek
p2476
sa(dp2477
g3
(lp2478
V@ferlatte
p2479
aVi'm
p2480
aVhappy
p2481
aVthat
p2482
aVhe
p2483
aVpersonally
p2484
aVis
p2485
aVdoing
p2486
aVsome
p2487
aVgood
p2488
aV.
aVit
p2489
aVdoesn't
p2490
aVabsolve
p2491
aVhis
p2492
aVcompany
p2493
aV.
asg22
g23
(S"\x07\xdf\x0c\x02\x16\x16'\x00\x00\x00"
tRp2494
sg25
Nsg26
Vlesliegeek
p2495
sa(dp2496
g3
(lp2497
Vrt
p2498
aV@ckilpatrick
p2499
aV:
aVif
p2500
aVzuck
p2501
aVwants
p2502
aVto
p2503
aV"
aVdo
p2504
aVgood
p2505
aV,
aV"
aVhe
p2506
aVcould
p2507
aVstart
p2508
aVby
p2509
aVhaving
p2510
aVhis
p2511
aVcompany
p2512
aVpay
p2513
aVtheir
p2514
aVtaxes
p2515
aV:
aVhttps://t.co/futjpcxcgt
p2516
asg22
g23
(S'\x07\xdf\x0c\x02\x16\x153\x00\x00\x00'
tRp2517
sg25
Nsg26
Vlesliegeek
p2518
sa(dp2519
g3
(lp2520
V@pantalonesfuego
p2521
aVthanks
p2522
aV!
asg22
g23
(S'\x07\xdf\x0c\x01\x123 \x00\x00\x00'
tRp2523
sg25
Nsg26
Vlesliegeek
p2524
sa(dp2525
g3
(lp2526
Vone
p2527
aVparental
p2528
aVunit
p2529
aVis
p2530
aVreally
p2531
aVinto
p2532
aVsweet
p2533
aV/
aVdessert
p2534
aV/
aVsparkling
p2535
aVwines
p2536
aVso
p2537
aVi'm
p2538
aVhoping
p2539
aVto
p2540
aVfind
p2541
aVone
p2542
aVspecializing
p2543
aVin
p2544
aVthat
p2545
aV.
asg22
g23
(S'\x07\xdf\x0c\x01\x12\x01\x11\x00\x00\x00'
tRp2546
sg25
Nsg26
Vlesliegeek
p2547
sa(dp2548
g3
(lp2549
Vlazyweb
p2550
aVfriends
p2551
aV-
aVi'm
p2552
aVtaking
p2553
aVthe
p2554
aVparents
p2555
aVto
p2556
aVsonoma
p2557
aVwine
p2558
aVtasting
p2559
aVthis
p2560
aVweekend
p2561
aV.
aVwhich
p2562
aV3
aVplaces
p2563
aVshould
p2564
aVi
aVhit
p2565
aVup
p2566
aV?
asg22
g23
(S'\x07\xdf\x0c\x01\x12\x00*\x00\x00\x00'
tRp2567
sg25
Nsg26
Vlesliegeek
p2568
sa(dp2569
g3
(lp2570
V@curiouserbear
p2571
aVhsa's
p2572
aVare
p2573
aVat
p2574
aVleast
p2575
aVway
p2576
aVbetter
p2577
aVthan
p2578
aVfsa's
p2579
aV(
aVsince
p2580
aVyou
p2581
aVget
p2582
aVto
p2583
aVkeep
p2584
aVthe
p2585
aVhsa
p2586
aVmoney
p2587
aVeach
p2588
aVyear
p2589
aV)
asg22
g23
(S'\x07\xdf\x0c\x01\x117\x06\x00\x00\x00'
tRp2590
sg25
Nsg26
Vlesliegeek
p2591
sa(dp2592
g3
(lp2593
V@quominus
p2594
aV@franceshocutt
p2595
aVteeny
p2596
aVtiny
p2597
aVworld
p2598
aV!
asg22
g23
(S'\x07\xdf\x0c\x01\x10\x100\x00\x00\x00'
tRp2599
sg25
Nsg26
Vlesliegeek
p2600
sa(dp2601
g3
(lp2602
V@quominus
p2603
aV@franceshocutt
p2604
aVwait
p2605
aVyou
p2606
aVknow
p2607
aVthoushaltnot
p2608
aV?
aVmy
p2609
aVold
p2610
aVroommate
p2611
aVwas
p2612
aVtheir
p2613
aVguitarist
p2614
aV.
aVand
p2615
aVi
aVwas
p2616
aVfriends
p2617
aVwith
p2618
aVtheir
p2619
aVsinger
p2620
aV.
asg22
g23
(S'\x07\xdf\x0c\x01\x10\x0b2\x00\x00\x00'
tRp2621
sg25
Nsg26
Vlesliegeek
p2622
sa(dp2623
g3
(lp2624
Vgizmo
p2625
aVhas
p2626
aVdecided
p2627
aVmy
p2628
aVleg
p2629
aVis
p2630
aVhis
p2631
aVnew
p2632
aVpillow
p2633
aV.
aVi'm
p2634
aVtrapped
p2635
aVby
p2636
aVcute
p2637
aV!
aVhttps://t.co/vuvnb6vvxq
p2638
asg22
g23
(S'\x07\xdf\x0c\x01\x06\x05!\x00\x00\x00'
tRp2639
sg25
Nsg26
Vlesliegeek
p2640
sa(dp2641
g3
(lp2642
Vrt
p2643
aV@durov
p2644
aV:
aVwhatsapp
p2645
aVstarted
p2646
aVcensoring
p2647
aVlinks
p2648
aVto
p2649
aVtelegram
p2650
aVin
p2651
aVtheir
p2652
aVandroid
p2653
aVapp
p2654
aV(
aVi
aV.
aVe
aV.
aVfor
p2655
aV~
aV80
p2656
aV%
aVof
p2657
aVthe
p2658
aVusers
p2659
aV)
aV.
aVhttps://t.co/qv0vbljpi6
p2660
asg22
g23
(S'\x07\xdf\x0b\x1e\x17\x002\x00\x00\x00'
tRp2661
sg25
Nsg26
Vlesliegeek
p2662
sa(dp2663
g3
(lp2664
V@dennisdryden
p2665
aVthe
p2666
aVcity
p2667
aVis
p2668
aVbecoming
p2669
aVunaffordable
p2670
aVfor
p2671
aVmost
p2672
aVwhich
p2673
aVcauses
p2674
aVa
aVlot
p2675
aVof
p2676
aVtension
p2677
aV.
aVpeople
p2678
aVcan
p2679
aVno
p2680
aVlonger
p2681
aVlive
p2682
aVin
p2683
aVthe
p2684
aVcity
p2685
aVthey
p2686
aVlove
p2687
aV.
asg22
g23
(S'\x07\xdf\x0b\x1d\x16\x04\x08\x00\x00\x00'
tRp2688
sg25
Nsg26
Vlesliegeek
p2689
sa(dp2690
g3
(lp2691
V@dennisdryden
p2692
aVyes
p2693
aVand
p2694
aVno
p2695
aV.
aVthere's
p2696
aVa
aVlot
p2697
aVof
p2698
aVtension
p2699
aVbut
p2700
aVif
p2701
aVthe
p2702
aVworst
p2703
aVthing
p2704
aVthat
p2705
aVhappens
p2706
aVto
p2707
aVyou
p2708
aVis
p2709
aVa
aVposter
p2710
aV,
aVyour
p2711
aVlife
p2712
aVis
p2713
aVpretty
p2714
aVgreat
p2715
asg22
g23
(S'\x07\xdf\x0b\x1d\x16\x03\t\x00\x00\x00'
tRp2716
sg25
Nsg26
Vlesliegeek
p2717
sa(dp2718
g3
(lp2719
Vwhy
p2720
aVthe
p2721
aVhating
p2722
aVon
p2723
aVscott
p2724
aVweiner
p2725
aV?
aVhttps://t.co/ap4lwkycxz
p2726
asg22
g23
(S'\x07\xdf\x0b\x1d\x15\x10/\x00\x00\x00'
tRp2727
sg25
Nsg26
Vlesliegeek
p2728
sa(dp2729
g3
(lp2730
Vkittywatch
p2731
aV5000
p2732
aVupdate
p2733
aV-
aVgizmo
p2734
aVis
p2735
aVsniffing
p2736
aVcuriously
p2737
aVat
p2738
aVthe
p2739
aVclosed
p2740
aVoffice
p2741
aVdoor
p2742
aV.
aVtia
p2743
aVhas
p2744
aVdiscovered
p2745
aVthe
p2746
aVcat
p2747
aVtree
p2748
aVand
p2749
aVcares
p2750
aVabout
p2751
aVno
p2752
aVother
p2753
aVspot
p2754
asg22
g23
(S'\x07\xdf\x0b\x1a\x10+\x0b\x00\x00\x00'
tRp2755
sg25
Nsg26
Vlesliegeek
p2756
sa(dp2757
g3
(lp2758
V@curiouserbear
p2759
aV@pugmajere
p2760
aVhe's
p2761
aVcurrently
p2762
aVtrying
p2763
aVto
p2764
aVfigure
p2765
aVout
p2766
aVwhy
p2767
aVa
aVdoor
p2768
aVis
p2769
aVclosed
p2770
aV.
aVi'm
p2771
aVguessing
p2772
aVin
p2773
aVa
aVfew
p2774
aVdays
p2775
aVhe'll
p2776
aVbe
p2777
aVreally
p2778
aVunhappy
p2779
aV\u2026
asg22
g23
(S'\x07\xdf\x0b\x1a\x02\x1b\x16\x00\x00\x00'
tRp2780
sg25
Nsg26
Vlesliegeek
p2781
sa(dp2782
g3
(lp2783
V@curiouserbear
p2784
aV@pugmajere
p2785
aVshe
p2786
aVsays
p2787
aV"
aVonly
p2788
aVif
p2789
aVyou
p2790
aVhave
p2791
aVtuna
p2792
aVsashimi
p2793
aV.
aV"
aVshe's
p2794
aVa
aVvery
p2795
aVrefined
p2796
aVkitty
p2797
aV!
asg22
g23
(S'\x07\xdf\x0b\x1a\x02\x16\x1f\x00\x00\x00'
tRp2798
sg25
Nsg26
Vlesliegeek
p2799
sa(dp2800
g3
(lp2801
Vrt
p2802
aV@aphyr
p2803
aV:
aVwhoever
p2804
aVkeeps
p2805
aVputting
p2806
aVmy
p2807
aVname
p2808
aVin
p2809
aVfor
p2810
aVthese
p2811
aVthings
p2812
aV:
aVi
aVlove
p2813
aVyou
p2814
aV.
aVthese
p2815
aVare
p2816
aVmy
p2817
aVfavorite
p2818
aVemails
p2819
aVto
p2820
aVwrite
p2821
aV.
aVdon't
p2822
aVstop
p2823
aV.
aVhttps://t.co/k
p2824
aV\u2026
asg22
g23
(S'\x07\xdf\x0b\x1a\x02\x16\x02\x00\x00\x00'
tRp2825
sg25
Nsg26
Vlesliegeek
p2826
sa(dp2827
g3
(lp2828
V.
aV@pugmajere
p2829
aVand
p2830
aVi
aVwent
p2831
aVout
p2832
aVfor
p2833
aVpupusas
p2834
aVand
p2835
aVcame
p2836
aVback
p2837
aVwith
p2838
aVtia
p2839
aV!
aVshe's
p2840
aV15
p2841
aVand
p2842
aVvery
p2843
aVtalkative
p2844
aV,
aVlike
p2845
aVall
p2846
aVteenagers
p2847
aV.
aVhttps://t.co/y71q6egnxy
p2848
asg22
g23
(S'\x07\xdf\x0b\x1a\x02\x0e\x14\x00\x00\x00'
tRp2849
sg25
Nsg26
Vlesliegeek
p2850
sa(dp2851
g3
(lp2852
V@notar0b0t
p2853
aVdeclare
p2854
aVa
aVsandwich
p2855
aVinsurgency
p2856
aV!
aVsneak
p2857
aVattack
p2858
aVthe
p2859
aVturkey
p2860
aVwhile
p2861
aVnobody
p2862
aVis
p2863
aVwatching
p2864
aVthe
p2865
aVoven
p2866
aV!
asg22
g23
(S'\x07\xdf\x0b\x19\x15\x1b%\x00\x00\x00'
tRp2867
sg25
Nsg26
Vlesliegeek
p2868
sa(dp2869
g3
(lp2870
V@notar0b0t
p2871
aVthe
p2872
aVbest
p2873
aVpart
p2874
aVabout
p2875
aVadulting
p2876
aVis
p2877
aVthat
p2878
aVyou
p2879
aVget
p2880
aVto
p2881
aVdecide
p2882
aVwhat
p2883
aVyou
p2884
aVdo
p2885
aVevery
p2886
aVholiday
p2887
aV!
asg22
g23
(S'\x07\xdf\x0b\x19\x1494\x00\x00\x00'
tRp2888
sg25
Nsg26
Vlesliegeek
p2889
sa(dp2890
g3
(lp2891
Vrt
p2892
aV@andnotnull
p2893
aV:
aVfunny
p2894
aVhow
p2895
aVwith
p2896
aVcomputers
p2897
aVa
aVvulnerability
p2898
aVis
p2899
aVa
aVbad
p2900
aVthing
p2901
aVto
p2902
aVbe
p2903
aVfixed
p2904
aV,
aVbut
p2905
aVwith
p2906
aVpeople
p2907
aVit's
p2908
aVthe
p2909
aVonly
p2910
aVthing
p2911
aVthat
p2912
aVprevents
p2913
aVyou
p2914
aV\u2026
asg22
g23
(S'\x07\xdf\x0b\x19\x0e.\x14\x00\x00\x00'
tRp2915
sg25
Nsg26
Vlesliegeek
p2916
sa(dp2917
g3
(lp2918
Vhello
p2919
aVjetlag
p2920
aVmy
p2921
aVold
p2922
aVfriend
p2923
aV;
aVi've
p2924
aVcome
p2925
aVto
p2926
aVtalk
p2927
aVwith
p2928
aVyou
p2929
aVagain
p2930
aV.
aVbecause
p2931
aVa
aVvision
p2932
aVsoftly
p2933
aVcreeping
p2934
aV;
aVleft
p2935
aVits
p2936
aVseeds
p2937
aVwhile
p2938
aVi
aVwasn't
p2939
aVsleeping
p2940
aV\u2026
asg22
g23
(S'\x07\xdf\x0b\x19\r\x1c\x1b\x00\x00\x00'
tRp2941
sg25
Nsg26
Vlesliegeek
p2942
sa(dp2943
g3
(lp2944
V@natural20
p2945
aVdell
p2946
aVjust
p2947
aVbelieves
p2948
aVin
p2949
aVfreedom
p2950
aV!
aVthe
p2951
aVfreedom
p2952
aVto
p2953
aVallow
p2954
aVanyone
p2955
aVto
p2956
aVmasquerade
p2957
aVas
p2958
aVanother
p2959
aVwebsite
p2960
aV!
asg22
g23
(S'\x07\xdf\x0b\x18\x176.\x00\x00\x00'
tRp2961
sg25
Nsg26
Vlesliegeek
p2962
sa(dp2963
g3
(lp2964
Vrt
p2965
aV@curiouserbear
p2966
aV:
aVno
p2967
aVi'm
p2968
aVnot
p2969
aVmaking
p2970
aVa
aVspreadsheet
p2971
aVwith
p2972
aVa
aVschedule
p2973
aVfor
p2974
aVthanksgiving
p2975
aVwhat
p2976
aVkind
p2977
aVof
p2978
aVweirdo
p2979
aVwould
p2980
aVdo
p2981
aVsuch
p2982
aVa
aVthing
p2983
aV.
aVhttps://t.co
p2984
aV\u2026
asg22
g23
(S'\x07\xdf\x0b\x18\x175\x14\x00\x00\x00'
tRp2985
sg25
Nsg26
Vlesliegeek
p2986
sa(dp2987
g3
(lp2988
V@black_isis
p2989
aVi
aVhave
p2990
aVplayed
p2991
aV1
aVand
p2992
aV2
aVall
p2993
aVthe
p2994
aVway
p2995
aVthrough
p2996
aVand
p2997
aV3
aVi
aVstopped
p2998
aVdue
p2999
aVto
p3000
aVa
aVgame-stopping
p3001
aVknown
p3002
aVbug
p3003
aV(
aVgrrr
p3004
aV)
asg22
g23
(S'\x07\xdf\x0b\x17\x16\x01$\x00\x00\x00'
tRp3005
sg25
Nsg26
Vlesliegeek
p3006
sa(dp3007
g3
(lp3008
Vthis
p3009
aVmorning
p3010
aVin
p3011
aVa
aVfit
p3012
aVof
p3013
aVjetlag
p3014
aVi
aVpurchased
p3015
aVfallout
p3016
aV4
aVand
p3017
aVa
aVps4
p3018
aV.
aVi'll
p3019
aVsee
p3020
aVeveryone
p3021
aVin
p3022
aVa
aVmonth
p3023
aV!
asg22
g23
(S'\x07\xdf\x0b\x17\x15)\x1c\x00\x00\x00'
tRp3024
sg25
Nsg26
Vlesliegeek
p3025
sa(dp3026
g3
(lp3027
Vi'm
p3028
aVback
p3029
aVhome
p3030
aVin
p3031
aVsan
p3032
aVfrancisco
p3033
aV!
asg22
g23
(S'\x07\xdf\x0b\x17\x04\x18\x04\x00\x00\x00'
tRp3034
sg25
Nsg26
Vlesliegeek
p3035
sa(dp3036
g3
(lp3037
V@nimby
p3038
aVwhat
p3039
aVhappened
p3040
aV?
asg22
g23
(S'\x07\xdf\x0b\x16\n\x1c&\x00\x00\x00'
tRp3041
sg25
Nsg26
Vlesliegeek
p3042
sa(dp3043
g3
(lp3044
Vrt
p3045
aV@imraansiddiqi
p3046
aV:
aVsouthwest
p3047
aVairlines
p3048
aVis
p3049
aVallowing
p3050
aVits
p3051
aVracist
p3052
aVpassengers
p3053
aVto
p3054
aVkick
p3055
aVmuslim
p3056
aVpassengers
p3057
aVoff
p3058
aVtheir
p3059
aVflights
p3060
aVhttps://t.co/hsyl55vkif
p3061
asg22
g23
(S'\x07\xdf\x0b\x16\n\x19\x0f\x00\x00\x00'
tRp3062
sg25
Nsg26
Vlesliegeek
p3063
sa(dp3064
g3
(lp3065
V@kristianvanders
p3066
aVoh
p3067
aVdefinitely
p3068
aVyes
p3069
aV!
aV!
aV!
asg22
g23
(S'\x07\xdf\x0b\x15\n2+\x00\x00\x00'
tRp3070
sg25
Nsg26
Vlesliegeek
p3071
sa(dp3072
g3
(lp3073
V@dandyhighwayman
p3074
aVnope
p3075
aV.
aVin
p3076
aVfact
p3077
aVthat
p3078
aVkind
p3079
aVof
p3080
aVself
p3081
aVpromotion
p3082
aV(
aVwhich
p3083
aVtends
p3084
aVto
p3085
aVbe
p3086
aVdone
p3087
aVmore
p3088
aVby
p3089
aVmen
p3090
aVthan
p3091
aVwomen
p3092
aV)
aVis
p3093
aVrewarded
p3094
aV!
asg22
g23
(S'\x07\xdf\x0b\x15\t0\x1a\x00\x00\x00'
tRp3095
sg25
Nsg26
Vlesliegeek
p3096
sa(dp3097
g3
(lp3098
V@blakedotfr
p3099
aVfound
p3100
aVit
p3101
asg22
g23
(S'\x07\xdf\x0b\x14\x11\x18\n\x00\x00\x00'
tRp3102
sg25
Nsg26
Vlesliegeek
p3103
sa(dp3104
g3
(lp3105
Vi
aVfound
p3106
aVmy
p3107
aVbag
p3108
aV@dj_porcus
p3109
asg22
g23
(S'\x07\xdf\x0b\x14\x11\x17/\x00\x00\x00'
tRp3110
sg25
Nsg26
Vlesliegeek
p3111
sa(dp3112
g3
(lp3113
V@lesliegeek
p3114
aVbag
p3115
aVfound
p3116
aV!
aV#ripe71
p3117
asg22
g23
(S'\x07\xdf\x0b\x14\x0b\x151\x00\x00\x00'
tRp3118
sg25
Nsg26
Vlesliegeek
p3119
sa(dp3120
g3
(lp3121
V#ripe71
p3122
aVpeople
p3123
aV,
aVi
aVlost
p3124
aVmy
p3125
aVblack
p3126
aVbackpack
p3127
aV.
aVif
p3128
aVyou
p3129
aVsee
p3130
aVone
p3131
aV,
aVplease
p3132
aVlet
p3133
aVme
p3134
aVknow
p3135
aV!
asg22
g23
(S'\x07\xdf\x0b\x14\x0b\x126\x00\x00\x00'
tRp3136
sg25
Nsg26
Vlesliegeek
p3137
sa(dp3138
g3
(lp3139
Vthey
p3140
aVhave
p3141
aVa
aVbillboard
p3142
aVfor
p3143
aVa
aVhackathon
p3144
aV!
aVromania
p3145
aVis
p3146
aVawesome
p3147
aV!
aVhttps://t.co/qd4sjqo8ss
p3148
asg22
g23
(S'\x07\xdf\x0b\x13\x0c3\x16\x00\x00\x00'
tRp3149
sg25
Nsg26
Vlesliegeek
p3150
sa(dp3151
g3
(lp3152
V.
aV@flangey
p3153
aVfound
p3154
aVthe
p3155
aVromanian
p3156
aVinternet
p3157
aV!
aVhttps://t.co/9y5qlxjxrs
p3158
asg22
g23
(S'\x07\xdf\x0b\x13\x0c1\x12\x00\x00\x00'
tRp3159
sg25
Nsg26
Vlesliegeek
p3160
sa(dp3161
g3
(lp3162
V@curiouserbear
p3163
aVyep
p3164
aV.
aVeven
p3165
aVif
p3166
aVshe
p3167
aVonly
p3168
aVhad
p3169
aV3.5
p3170
aVyears
p3171
aVexperience
p3172
aV,
aVthose
p3173
aVare
p3174
aValways
p3175
aVwish
p3176
aVlists
p3177
aVand
p3178
aVnever
p3179
aVhard
p3180
aVrequirements
p3181
asg22
g23
(S'\x07\xdf\x0b\x13\x076\x1e\x00\x00\x00'
tRp3182
sg25
Nsg26
Vlesliegeek
p3183
sa(dp3184
g3
(lp3185
Vrt
p3186
aV@ioshints
p3187
aV:
aVawesome
p3188
aVmust-watch
p3189
aVtalk
p3190
aVfrom
p3191
aV@lesliegeek
p3192
aVhttps://t.co/ufsrhlhw3z
p3193
asg22
g23
(S'\x07\xdf\x0b\x12\x15\x1d)\x00\x00\x00'
tRp3194
sg25
Nsg26
Vlesliegeek
p3195
sa(dp3196
g3
(lp3197
Vrt
p3198
aV@mo7sen
p3199
aV:
aV#netdevops
p3200
aV,
aV"
aVpost
p3201
aVmortems
p3202
aVare
p3203
aVyour
p3204
aVfriend
p3205
aV!
aV"
aV:
aV-
aVopportunity
p3206
aV,
aVnot
p3207
aVa
aVchore
p3208
aV!
aV;
aV-
aVblameless
p3209
aV;
aV-
aVruthlessly
p3210
aVaccurate
p3211
aV;
aV-
aVfix
p3212
aV!
aV#ripe71
p3213
aV\u2026
asg22
g23
(S'\x07\xdf\x0b\x11\x0b\x1e\x1d\x00\x00\x00'
tRp3214
sg25
Nsg26
Vlesliegeek
p3215
sa(dp3216
g3
(lp3217
V@mo7sen
p3218
aVyay
p3219
aV!
aVi'm
p3220
aVglad
p3221
aVyou
p3222
aVenjoyed
p3223
aVit
p3224
aV:)
p3225
asg22
g23
(S'\x07\xdf\x0b\x11\x0b\x1e\x16\x00\x00\x00'
tRp3226
sg25
Nsg26
Vlesliegeek
p3227
sa(dp3228
g3
(lp3229
Vmy
p3230
aVnetdevops
p3231
aVpresentation
p3232
aVvideo
p3233
aVis
p3234
aVup
p3235
aVat
p3236
aVhttps://t.co/ptc1ddxjgb
p3237
aVand
p3238
aVthe
p3239
aVgoogle
p3240
aVslides
p3241
aVare
p3242
aVat
p3243
aVhttps://t.co/dh0bi4te5n
p3244
asg22
g23
(S'\x07\xdf\x0b\x11\x0b\x1d\x1a\x00\x00\x00'
tRp3245
sg25
Nsg26
Vlesliegeek
p3246
sa(dp3247
g3
(lp3248
V@danrlde
p3249
aV@bronwyn
p3250
aVand
p3251
aV@dorkmatt
p3252
aVgave
p3253
aVa
aVtutorial
p3254
aVon
p3255
aVmonday
p3256
aV-
aVhttps://t.co/p1ltsjddhp
p3257
aVand
p3258
aVare
p3259
aVgreat
p3260
aVat
p3261
aVteaching
p3262
aVansible
p3263
aV!
asg22
g23
(S'\x07\xdf\x0b\x11\x0b\x14*\x00\x00\x00'
tRp3264
sg25
Nsg26
Vlesliegeek
p3265
sa(dp3266
g3
(lp3267
Vrt
p3268
aV@internetplumber
p3269
aV:
aVexcellent
p3270
aVnetwork
p3271
aVautomation
p3272
aV101
p3273
aVtalk
p3274
aVby
p3275
aV@lesliegeek
p3276
aV.
aVwill
p3277
aVbe
p3278
aVsharing
p3279
aVliberally
p3280
aV.
aV.
aV.
aVhttps://t.co/ensluaownk
p3281
aVhttps://t.
p3282
aV\u2026
asg22
g23
(S'\x07\xdf\x0b\x11\x0b\r1\x00\x00\x00'
tRp3283
sg25
Nsg26
Vlesliegeek
p3284
sa(dp3285
g3
(lp3286
Vrt
p3287
aV@dorkmatt
p3288
aV:
aV.
aV@lesliegeek
p3289
aVspreading
p3290
aVthe
p3291
aVgospel
p3292
aVof
p3293
aV#netdevops
p3294
aVat
p3295
aV#ripe71
p3296
aV-
aVgreat
p3297
aVuse
p3298
aVof
p3299
aVvisual
p3300
aVcues
p3301
aVto
p3302
aVprovide
p3303
aVreal
p3304
aVworld
p3305
aVlessons
p3306
aVhttps://t
p3307
aV\u2026
asg22
g23
(S'\x07\xdf\x0b\x11\x0b\r\x16\x00\x00\x00'
tRp3308
sg25
Nsg26
Vlesliegeek
p3309
sa(dp3310
g3
(lp3311
Vmy
p3312
aVnetdevops
p3313
aVtalk
p3314
aVat
p3315
aV#ripe71
p3316
aVis
p3317
aVcoming
p3318
aVup
p3319
aVin
p3320
aVabout
p3321
aVan
p3322
aVhour
p3323
aV!
aVget
p3324
aVto
p3325
aVthe
p3326
aVmeeting
p3327
aVroom
p3328
aVor
p3329
aVjoin
p3330
aVonline
p3331
aVat
p3332
aVhttps://t.co/mptsktirjz
p3333
aVto
p3334
aVwatch
p3335
aV!
asg22
g23
(S'\x07\xdf\x0b\x11\x08\x1b(\x00\x00\x00'
tRp3336
sg25
Nsg26
Vlesliegeek
p3337
sa(dp3338
g3
(lp3339
Vwhy
p3340
aVare
p3341
aVintelligence
p3342
aVdirectors
p3343
aVblaming
p3344
aV@snowden
p3345
aVfor
p3346
aVthe
p3347
aVparis
p3348
aVtragedy
p3349
aVinstead
p3350
aVof
p3351
aVthe
p3352
aVactual
p3353
aVproblem
p3354
aV-
aVterrorists
p3355
aV?
aVhttps://t.co/qy51yxfp0h
p3356
asg22
g23
(S'\x07\xdf\x0b\x11\x06\x01\x06\x00\x00\x00'
tRp3357
sg25
Nsg26
Vlesliegeek
p3358
sa(dp3359
g3
(lp3360
V.
aV@tref
p3361
aVgot
p3362
aVa
aVpicture
p3363
aVof
p3364
aVme
p3365
aVlooking
p3366
aVhardcore
p3367
aVhttps://t.co/kvmlkipexg
p3368
asg22
g23
(S'\x07\xdf\x0b\x10\x14\x1d\x06\x00\x00\x00'
tRp3369
sg25
Nsg26
Vlesliegeek
p3370
sa(dp3371
g3
(lp3372
V@curiouserbear
p3373
aV@pugmajere
p3374
aVwe
p3375
aVhave
p3376
aVlots
p3377
aVof
p3378
aVwine
p3379
aV!
aVand
p3380
aVi'm
p3381
aVaddicted
p3382
aVto
p3383
aVduck
p3384
aV.
aVi
aVguess
p3385
aVi
aVshould
p3386
aVask
p3387
aVryan
p3388
aVif
p3389
aVhe's
p3390
aVup
p3391
aVfor
p3392
aVit
p3393
aVthough
p3394
aV;-)
p3395
asg22
g23
(S'\x07\xdf\x0b\x10\x102)\x00\x00\x00'
tRp3396
sg25
Nsg26
Vlesliegeek
p3397
sa(dp3398
g3
(lp3399
V@curiouserbear
p3400
aV@pugmajere
p3401
aV@xatharine
p3402
aVorly
p3403
aV?
aVis
p3404
aVthere
p3405
aVa
aVthanksgiving
p3406
aVat
p3407
aVyour
p3408
aVhouse
p3409
aV?
aVme
p3410
aVand
p3411
aVryan
p3412
aVdon't
p3413
aVhave
p3414
aVplans
p3415
aV\u2026
aV.
asg22
g23
(S"\x07\xdf\x0b\x10\x10)'\x00\x00\x00"
tRp3416
sg25
Nsg26
Vlesliegeek
p3417
sa(dp3418
g3
(lp3419
Vbravo
p3420
aVto
p3421
aV@ripe_ncc
p3422
aVfor
p3423
aVimplementing
p3424
aVa
aVcode
p3425
aVof
p3426
aVconduct
p3427
aVfor
p3428
aV#ripe71
p3429
aV.
asg22
g23
(S'\x07\xdf\x0b\x10\x0c\x08\x16\x00\x00\x00'
tRp3430
sg25
Nsg26
Vlesliegeek
p3431
sa(dp3432
g3
(lp3433
Vare
p3434
aVyou
p3435
aVat
p3436
aV#ripe71
p3437
aV?
aVmy
p3438
aVtalk
p3439
aVabout
p3440
aVnetdevops
p3441
aVis
p3442
aVtuesday
p3443
aVat
p3444
aVnoon
p3445
aV!
aVit
p3446
aVwill
p3447
aValso
p3448
aVbe
p3449
aVlivestreamed
p3450
aVat
p3451
aVhttps://t.co/mptsktirjz
p3452
asg22
g23
(S'\x07\xdf\x0b\x10\x0c\x06/\x00\x00\x00'
tRp3453
sg25
Nsg26
Vlesliegeek
p3454
sa(dp3455
g3
(lp3456
V@expectapatronum
p3457
aV@abigailkeyes
p3458
aV@quominus
p3459
aVmmm
p3460
aVpeaches
p3461
aV.
aVcherries
p3462
aVor
p3463
aVapples
p3464
aV&
aVamp
p3465
aV;
aVpears
p3466
aVwork
p3467
aVwell
p3468
aVtoo
p3469
aV.
aVreally
p3470
aVany
p3471
aVfruit
p3472
aVyou
p3473
aVfind
p3474
aVlaying
p3475
aVaround
p3476
aV.
asg22
g23
(S'\x07\xdf\x0b\x10\x08\x01\x05\x00\x00\x00'
tRp3477
sg25
Nsg26
Vlesliegeek
p3478
sa(dp3479
g3
(lp3480
V@abigailkeyes
p3481
aV@quominus
p3482
aVi
aVam
p3483
aVa
aVbig
p3484
aVfan
p3485
aVof
p3486
aVcooking
p3487
aVit
p3488
aVwith
p3489
aVbananas
p3490
aV,
aVwalnuts
p3491
aV,
aVblueberries
p3492
aV,
aVand
p3493
aVa
aVsprinkle
p3494
aVof
p3495
aVcinnamon
p3496
asg22
g23
(S'\x07\xdf\x0b\x10\x07/\x1d\x00\x00\x00'
tRp3497
sg25
Nsg26
Vlesliegeek
p3498
sa(dp3499
g3
(lp3500
Vgood
p3501
aVmorning
p3502
aVbucharest
p3503
aV!
asg22
g23
(S'\x07\xdf\x0b\x10\x07!0\x00\x00\x00'
tRp3504
sg25
Nsg26
Vlesliegeek
p3505
sa(dp3506
g3
(lp3507
V@xatharine
p3508
aV@curiouserbear
p3509
aV@pugmajere
p3510
aValso
p3511
aVhaight
p3512
aVstreet
p3513
aVmarket
p3514
aVif
p3515
aVyou
p3516
aVhave
p3517
aVthem
p3518
aVorder
p3519
aVyou
p3520
aVone
p3521
asg22
g23
(S'\x07\xdf\x0b\x10\x07\x15\x1e\x00\x00\x00'
tRp3522
sg25
Nsg26
Vlesliegeek
p3523
sa(dp3524
g3
(lp3525
Vtoday
p3526
aVi
aVlearned
p3527
aVthat
p3528
aVcontact
p3529
aVsolution
p3530
aVisn't
p3531
aVconsidered
p3532
aVa
aVmedical
p3533
aVliquid
p3534
aVin
p3535
aVthe
p3536
aVuk
p3537
aV(
aVfor
p3538
aVflight
p3539
aVpurposes
p3540
aV)
aV.
aVhad
p3541
aVto
p3542
aVcheck
p3543
aVmy
p3544
aVbag
p3545
aV:(
p3546
asg22
g23
(S'\x07\xdf\x0b\x0f\x0e\x0b.\x00\x00\x00'
tRp3547
sg25
Nsg26
Vlesliegeek
p3548
sa(dp3549
g3
(lp3550
Vrt
p3551
aV@peterkunz
p3552
aV:
aVone
p3553
aVof
p3554
aVcharlie
p3555
aVhebdo's
p3556
aVcartoonists
p3557
aV:
aV#joannsfar
p3558
aVhttps://t.co/z835aw9fzd
p3559
asg22
g23
(S'\x07\xdf\x0b\x0e\x0c\x04\x0e\x00\x00\x00'
tRp3560
sg25
Nsg26
Vlesliegeek
p3561
sa(dp3562
g3
(lp3563
V@kelp
p3564
aV@pugmajere
p3565
aVyep
p3566
aV!
asg22
g23
(S'\x07\xdf\x0b\r\x0c0\x1a\x00\x00\x00'
tRp3567
sg25
Nsg26
Vlesliegeek
p3568
sa(dp3569
g3
(lp3570
V@grrrlie
p3571
aVcongrats
p3572
aV!
aV!
asg22
g23
(S'\x07\xdf\x0b\r\x0b\x155\x00\x00\x00'
tRp3573
sg25
Nsg26
Vlesliegeek
p3574
sa(dp3575
g3
(lp3576
V@8bitdad
p3577
aV@kristianvanders
p3578
aVwe
p3579
aVsadly
p3580
aVdidn't
p3581
aVmake
p3582
aVit
p3583
aV:(
p3584
aVmaybe
p3585
aVnext
p3586
aVtime
p3587
aV!
asg22
g23
(S'\x07\xdf\x0b\r\x0b\x0f\n\x00\x00\x00'
tRp3588
sg25
Nsg26
Vlesliegeek
p3589
sa.