(lp1
(dp2
S'text'
p3
(lp4
Vrt
p5
aV@henryevil
p6
aV:
aVthis
p7
aVis
p8
aVtoo
p9
aVbeautiful
p10
aVto
p11
aVexist
p12
aVhttps://t.co/4wthedfs8a
p13
asS'created_at'
p14
cdatetime
datetime
p15
(S'\x07\xe0\x01\x18\x02\x0f9\x00\x00\x00'
tRp16
sS'lat/long'
p17
NsS'name'
p18
Vmiradu
p19
sa(dp20
g3
(lp21
V@nealab
p22
aVgotta
p23
aVat
p24
aVleast
p25
aVwait
p26
aVuntil
p27
aVi'm
p28
aVnot
p29
aVsick
p30
asg14
g15
(S'\x07\xe0\x01\x17\x0f9:\x00\x00\x00'
tRp31
sg17
Nsg18
Vmiradu
p32
sa(dp33
g3
(lp34
V@vijayp
p35
aV@elbloombito
p36
aVyou
p37
aVdon't
p38
aVworry
p39
aVhe'd
p40
aVsplit
p41
aVthe
p42
aVleft
p43
aVvote
p44
aVand
p45
aVcause
p46
aVa
aVtrump
p47
aVwin
p48
aV?
asg14
g15
(S'\x07\xe0\x01\x17\x0f 5\x00\x00\x00'
tRp49
sg17
Nsg18
Vmiradu
p50
sa(dp51
g3
(lp52
Vrt
p53
aV@smithsonian
p54
aV:
aVtian
p55
aVtian
p56
aV,
aVgiant
p57
aVpanda
p58
aVat
p59
aVour
p60
aV@nationalzoo
p61
aV,
aVdoes
p62
aV#snowzilla
p63
aVbetter
p64
aVthan
p65
aVall
p66
aVof
p67
aVus
p68
aV#blizzard2016
p69
aVhttps://t.co/6lxhxqf9qx
p70
asg14
g15
(S'\x07\xe0\x01\x17\x0f\x1b\x10\x00\x00\x00'
tRp71
sg17
Nsg18
Vmiradu
p72
sa(dp73
g3
(lp74
Vi
aVcould
p75
aVeat
p76
aVa
aVsolid
p77
aVpint
p78
aVof
p79
aVice
p80
aVcream
p81
aVright
p82
aVnow
p83
asg14
g15
(S'\x07\xe0\x01\x17\x034\x16\x00\x00\x00'
tRp84
sg17
Nsg18
Vmiradu
p85
sa(dp86
g3
(lp87
Vthis
p88
aVwinter
p89
aVi
aVdidn't
p90
aVget
p91
aVa
aVflu
p92
aVshot
p93
aVand
p94
aVi'm
p95
aVwatching
p96
aVmyself
p97
aVget
p98
aVsick
p99
aVevery
p100
aVsingle
p101
aVtime
p102
aVi
aVtravel
p103
aV.
aVnext
p104
aVyear
p105
aV,
aVget
p106
aVa
aVflu
p107
aVshot
p108
aV!
asg14
g15
(S'\x07\xe0\x01\x17\x02,5\x00\x00\x00'
tRp109
sg17
Nsg18
Vmiradu
p110
sa(dp111
g3
(lp112
V@mollie
p113
aV@jstpierre
p114
aV@kogibbq
p115
aV@lacma
p116
aVhuge
p117
aVfan
p118
aVof
p119
aVmuseum
p120
aVof
p121
aVjurassic
p122
aVtechnology
p123
asg14
g15
(S'\x07\xe0\x01\x17\x00&\x04\x00\x00\x00'
tRp124
sg17
Nsg18
Vmiradu
p125
sa(dp126
g3
(lp127
Vus
p128
aVflight
p129
aVcancellations
p130
aVfor
p131
aVtomorrow
p132
aVare
p133
aVup
p134
aVto
p135
aV3,784
p136
aV(
aVtoday
p137
aVhad
p138
aV3,042
p139
aV)
aVhttps://t.co/rjrxjg3s7c
p140
asg14
g15
(S'\x07\xe0\x01\x17\x00$3\x00\x00\x00'
tRp141
sg17
Nsg18
Vmiradu
p142
sa(dp143
g3
(lp144
V@sashduck
p145
aV@gsducker
p146
aVreply
p147
aVto
p148
aVit
p149
aVor
p150
aVretweet
p151
aVwith
p152
aVcomment
p153
aV(
aVpress
p154
aVretweet
p155
aVand
p156
aVthen
p157
aVchoose
p158
aVcomment
p159
aV)
asg14
g15
(S'\x07\xe0\x01\x16\x177,\x00\x00\x00'
tRp160
sg17
Nsg18
Vmiradu
p161
sa(dp162
g3
(lp163
V@ravenize
p164
aVyou
p165
aVgotta
p166
aVjust
p167
aVswitch
p168
aVto
p169
aVusing
p170
aV@shyp
p171
asg14
g15
(S'\x07\xe0\x01\x16\x17(4\x00\x00\x00'
tRp172
sg17
Nsg18
Vmiradu
p173
sa(dp174
g3
(lp175
V@backlon
p176
aVdieter
p177
asg14
g15
(S'\x07\xe0\x01\x16\x15)\x1c\x00\x00\x00'
tRp178
sg17
Nsg18
Vmiradu
p179
sa(dp180
g3
(lp181
Vrt
p182
aV@kpk
p183
aV:
aVtwitter's
p184
aVhiring
p185
aVweb
p186
aVengineers
p187
aVin
p188
aVsf
p189
aV.
aVlooking
p190
aVfor
p191
aVall
p192
aVlevels
p193
aV,
aVbut
p194
aVweb
p195
aVexperience
p196
aVrequired
p197
aV.
aVhttps://t.co/rutuepdphk
p198
asg14
g15
(S'\x07\xe0\x01\x16\x14\x0e\x19\x00\x00\x00'
tRp199
sg17
Nsg18
Vmiradu
p200
sa(dp201
g3
(lp202
V@mdp
p203
aVpizza
p204
aVrolls
p205
aV.
aVcan
p206
aVwe
p207
aVhave
p208
aVpizza
p209
aVrolls
p210
aVon
p211
aVthe
p212
aVblock
p213
aVgain
p214
aV?
asg14
g15
(S'\x07\xe0\x01\x16\x13\x18\x17\x00\x00\x00'
tRp215
sg17
Nsg18
Vmiradu
p216
sa(dp217
g3
(lp218
V@coops
p219
aV@davidbellona
p220
aV\U0001f914
aV\U0001f917
asg14
g15
(S'\x07\xe0\x01\x16\x0e\x11.\x00\x00\x00'
tRp221
sg17
Nsg18
Vmiradu
p222
sa(dp223
g3
(lp224
Vrt
p225
aV@tashwong
p226
aV:
aVbuilding
p227
aV@coastermatic
p228
aVwas
p229
aVgreat
p230
aV,
aVnow
p231
aVit's
p232
aVtime
p233
aVfor
p234
aVa
aVnew
p235
aVadventure
p236
aV.
aVlooking
p237
aVfor
p238
aVa
aVdesigner
p239
aVor
p240
aVpm
p241
aV?
aVsay
p242
aVhi
p243
aV,
aVhttps://t.co/jbxjv
p244
aV\u2026
asg14
g15
(S'\x07\xe0\x01\x16\x04/\x13\x00\x00\x00'
tRp245
sg17
Nsg18
Vmiradu
p246
sa(dp247
g3
(lp248
V@mollie
p249
aVthe
p250
aVsax
p251
aVis
p252
aVback
p253
aV!
aV?
aV?
aV!
aV!
aVso
p254
aVjealous
p255
asg14
g15
(S'\x07\xe0\x01\x16\x04-\x0b\x00\x00\x00'
tRp256
sg17
Nsg18
Vmiradu
p257
sa(dp258
g3
(lp259
V@chrismpls
p260
aV@tpducker
p261
aV\U0001f64f
asg14
g15
(S'\x07\xe0\x01\x16\x04\x18)\x00\x00\x00'
tRp262
sg17
Nsg18
Vmiradu
p263
sa(dp264
g3
(lp265
V@chrismpls
p266
aVwhere
p267
aVdoes
p268
aV@tpducker
p269
aVget
p270
aVhis
p271
aVtickets
p272
aV?
asg14
g15
(S'\x07\xe0\x01\x16\x04\x17\x15\x00\x00\x00'
tRp273
sg17
Nsg18
Vmiradu
p274
sa(dp275
g3
(lp276
V@danjackson415
p277
aVyou
p278
aVforgot
p279
aVto
p280
aVmention
p281
aV@wingwingssf
p282
asg14
g15
(S'\x07\xe0\x01\x16\x04\x13\x17\x00\x00\x00'
tRp283
sg17
Nsg18
Vmiradu
p284
sa(dp285
g3
(lp286
V@chrismpls
p287
aVwhere
p288
aVis
p289
aVthis
p290
aVand
p291
aVhow
p292
aVdo
p293
aVi
aVgo
p294
aV?
asg14
g15
(S'\x07\xe0\x01\x16\x04\x126\x00\x00\x00'
tRp295
sg17
Nsg18
Vmiradu
p296
sa(dp297
g3
(lp298
V@ericfrohnhoefer
p299
aVugh
p300
asg14
g15
(S'\x07\xe0\x01\x16\x03\x184\x00\x00\x00'
tRp301
sg17
Nsg18
Vmiradu
p302
sa(dp303
g3
(lp304
Vlove
p305
aVmy
p306
aVhome
p307
aVstate
p308
aVmaking
p309
aVthe
p310
aVnews
p311
aVhttps://t.co/tmetzvpmuj
p312
asg14
g15
(S'\x07\xe0\x01\x15\x17\x17\x1a\x00\x00\x00'
tRp313
sg17
Nsg18
Vmiradu
p314
sa(dp315
g3
(lp316
V@jzazove
p317
aVand
p318
aVtwitter
p319
aV!
asg14
g15
(S'\x07\xe0\x01\x15\x163\x00\x00\x00\x00'
tRp320
sg17
Nsg18
Vmiradu
p321
sa(dp322
g3
(lp323
V@jzazove
p324
aVit'd
p325
aVsolve
p326
aVan
p327
aVinteresting
p328
aVproblem
p329
aVon
p330
aVios
p331
aVfor
p332
aVsure
p333
aV.
aV.
aV.
aVreplace
p334
aVthe
p335
aVweird
p336
aVstatus
p337
aVbar
p338
aVhalf
p339
aVbutton
p340
asg14
g15
(S'\x07\xe0\x01\x15\x16/\x0e\x00\x00\x00'
tRp341
sg17
Nsg18
Vmiradu
p342
sa(dp343
g3
(lp344
V@thisguy
p345
aVcan't
p346
aVwait
p347
aVto
p348
aVhear
p349
aVwhat
p350
aVyou
p351
aVlearned
p352
aV!
asg14
g15
(S'\x07\xe0\x01\x15\x15\x1b5\x00\x00\x00'
tRp353
sg17
Nsg18
Vmiradu
p354
sa(dp355
g3
(lp356
V@bring_me_cheese
p357
aVjjjjjjjjjiff
p358
asg14
g15
(S'\x07\xe0\x01\x15\x145\x1a\x00\x00\x00'
tRp359
sg17
Nsg18
Vmiradu
p360
sa(dp361
g3
(lp362
Vrt
p363
aV@theeconomist
p364
aV:
aVglobal
p365
aVmarkets
p366
aVtumble
p367
aV.
aVwe
p368
aVexplain
p369
aVhow
p370
aVit
p371
aVcould
p372
aVaffect
p373
aVyou
p374
aV@twittermoments
p375
aVhttps://t.co/qxph16epot
p376
asg14
g15
(S'\x07\xe0\x01\x15\x12(+\x00\x00\x00'
tRp377
sg17
Nsg18
Vmiradu
p378
sa(dp379
g3
(lp380
V@backlon
p381
aVnespresso
p382
aV+
aV@hilinecoffee
p383
aVpods
p384
aVis
p385
aVeven
p386
aVbetter
p387
asg14
g15
(S'\x07\xe0\x01\x15\x0e\x06\x06\x00\x00\x00'
tRp388
sg17
Nsg18
Vmiradu
p389
sa(dp390
g3
(lp391
V@r2r
p392
aVno
p393
aV,
aVit's
p394
aVin
p395
aVsf
p396
aV,
aVjust
p397
aVmanaging
p398
aVclosing
p399
aVfrom
p400
aVafar
p401
asg14
g15
(S'\x07\xe0\x01\x15\x01\x05\x06\x00\x00\x00'
tRp402
sg17
Nsg18
Vmiradu
p403
sa(dp404
g3
(lp405
V@mattlotusturbo
p406
aVi
aVleft
p407
aVmy
p408
aVtreo
p409
aV180
p410
aVat
p411
aVhome
p412
aV:(
p413
asg14
g15
(S'\x07\xe0\x01\x14\x17\x06\x12\x00\x00\x00'
tRp414
sg17
Nsg18
Vmiradu
p415
sa(dp416
g3
(lp417
V@jeremysf
p418
aV@teslamotors
p419
aV\U0001f633
aV\U0001f6a8
asg14
g15
(S'\x07\xe0\x01\x14\x163\x1f\x00\x00\x00'
tRp420
sg17
Nsg18
Vmiradu
p421
sa(dp422
g3
(lp423
V@jcasts
p424
aVnopa
p425
aV!
asg14
g15
(S'\x07\xe0\x01\x14\x15)\x1d\x00\x00\x00'
tRp426
sg17
Nsg18
Vmiradu
p427
sa(dp428
g3
(lp429
V@mcgowan_kevin
p430
aVsf
p431
asg14
g15
(S'\x07\xe0\x01\x14\x15)\r\x00\x00\x00'
tRp432
sg17
Nsg18
Vmiradu
p433
sa(dp434
g3
(lp435
Vmajor
p436
aV\U0001f511
aVhttps://t.co/ythjzhdmcj
p437
asg14
g15
(S'\x07\xe0\x01\x14\x15\x1f3\x00\x00\x00'
tRp438
sg17
Nsg18
Vmiradu
p439
sa(dp440
g3
(lp441
V@danibro
p442
aV@twitterdev
p443
aV\U0001f44b
asg14
g15
(S'\x07\xe0\x01\x14\x13&\x06\x00\x00\x00'
tRp444
sg17
Nsg18
Vmiradu
p445
sa(dp446
g3
(lp447
Vrt
p448
aV@twitterdev
p449
aV:
aVannouncing
p450
aVour
p451
aV#helloworld
p452
aVtour
p453
aV-
aV-
aVjoin
p454
aVus
p455
aV!
aVhttps://t.co/m8zjgu7kpg
p456
aVhttps://t.co/ondoesih1o
p457
asg14
g15
(S'\x07\xe0\x01\x14\x13\x16:\x00\x00\x00'
tRp458
sg17
Nsg18
Vmiradu
p459
sa(dp460
g3
(lp461
Vhbd
p462
aV@mkruz
p463
asg14
g15
(S'\x07\xe0\x01\x14\x13\x14*\x00\x00\x00'
tRp464
sg17
Nsg18
Vmiradu
p465
sa(dp466
g3
(lp467
V@terronk
p468
aVno
p469
asg14
g15
(S'\x07\xe0\x01\x14\x04;*\x00\x00\x00'
tRp470
sg17
Nsg18
Vmiradu
p471
sa(dp472
g3
(lp473
Vrt
p474
aV@pdovak
p475
aV:
aVrefreshing
p476
aVseveral
p477
aVof
p478
aVmy
p479
aVolder
p480
aVprojects
p481
aV,
aVstarting
p482
aVwith
p483
aVone
p484
aVof
p485
aVmy
p486
aVmost
p487
aVpopular
p488
aV:
aVsubway
p489
aVicons
p490
aVhttps://t.co/zxjhml0php
p491
aVhttps://t.c
p492
aV\u2026
asg14
g15
(S'\x07\xe0\x01\x13\x0e+0\x00\x00\x00'
tRp493
sg17
Nsg18
Vmiradu
p494
sa(dp495
g3
(lp496
Vthis
p497
aVcan't
p498
aVwait
p499
aV,
aV@dickc
p500
aV'
aVs
aVgonna
p501
aVmake
p502
aVme
p503
aVfit
p504
aV!
aVhttps://t.co/miywvzd8jm
p505
asg14
g15
(S'\x07\xe0\x01\x13\x0e\x1f\x1f\x00\x00\x00'
tRp506
sg17
Nsg18
Vmiradu
p507
sa(dp508
g3
(lp509
Vrt
p510
aV@plateiq
p511
aV:
aV@plateiq
p512
aVis
p513
aVexcited
p514
aVto
p515
aVbe
p516
aVfeatured
p517
aVin
p518
aVjanuary's
p519
aVissue
p520
aVof
p521
aV@entrepreneur
p522
aVmagazine
p523
aV!
aVcheck
p524
aVout
p525
aVthe
p526
aVawesome
p527
aVwrite-up
p528
aVhttps://t.co/m
p529
aV\u2026
asg14
g15
(S'\x07\xe0\x01\x13\x01\x19\x07\x00\x00\x00'
tRp530
sg17
Nsg18
Vmiradu
p531
sa(dp532
g3
(lp533
V@morganmcentire
p534
aV@diegobandito
p535
aV!
asg14
g15
(S'\x07\xe0\x01\x12\x11\x03(\x00\x00\x00'
tRp536
sg17
Nsg18
Vmiradu
p537
sa(dp538
g3
(lp539
Vhi
p540
aVhttps://t.co/7q6ybadztg
p541
asg14
g15
(S'\x07\xe0\x01\x12\x101,\x00\x00\x00'
tRp542
sg17
Nsg18
Vmiradu
p543
sa(dp544
g3
(lp545
V@robdaemon
p546
aVspacex
p547
asg14
g15
(S"\x07\xe0\x01\x11\x125'\x00\x00\x00"
tRp548
sg17
Nsg18
Vmiradu
p549
sa(dp550
g3
(lp551
V@robdaemon
p552
aVwayyyyyy
p553
aVbetter
p554
asg14
g15
(S'\x07\xe0\x01\x11\x121#\x00\x00\x00'
tRp555
sg17
Nsg18
Vmiradu
p556
sa(dp557
g3
(lp558
Vyoutube
p559
aVapp
p560
aVon
p561
aVappletv
p562
aVcan
p563
aVstream
p564
aVspacex
p565
aVlive
p566
aVwebcast
p567
aVin
p568
aVhd
p569
aV\U0001f680
aV\U0001f4fa
asg14
g15
(S'\x07\xe0\x01\x11\x12\x1c.\x00\x00\x00'
tRp570
sg17
Nsg18
Vmiradu
p571
sa(dp572
g3
(lp573
V@meat
p574
aV@singy
p575
aVi
aVlike
p576
aVbears
p577
asg14
g15
(S'\x07\xe0\x01\x10\x16-"\x00\x00\x00'
tRp578
sg17
Nsg18
Vmiradu
p579
sa(dp580
g3
(lp581
Vairplanes
p582
aVneed
p583
aVbetter
p584
aVsound
p585
aVdesign
p586
aV.
aVwhat
p587
aVif
p588
aVeach
p589
aVairline
p590
aVhad
p591
aVa
aVunique
p592
aVdeparture
p593
aVand
p594
aVlanding
p595
aVchime
p596
aVala
p597
aVtrains
p598
aV?
aVi'd
p599
aVfeel
p600
aVmore
p601
aVjoy
p602
asg14
g15
(S'\x07\xe0\x01\x10\x16$\x02\x00\x00\x00'
tRp603
sg17
Nsg18
Vmiradu
p604
sa(dp605
g3
(lp606
V@pmorelli
p607
aVif
p608
aVfacetime
p609
aVcould
p610
aVbroadcast
p611
aVto
p612
aVthe
p613
aVworld
p614
aVand
p615
aVnot
p616
aVjust
p617
aV1
aV:
aV1
aV.
aV.
aV.
aV.
aV.
asg14
g15
(S'\x07\xe0\x01\x0f\x12&\x0e\x00\x00\x00'
tRp618
sg17
Nsg18
Vmiradu
p619
sa(dp620
g3
(lp621
V@wayne
p622
aV@pmarca
p623
aVwhy
p624
aVcan't
p625
aVa
aVperiscope
p626
aVor
p627
aVa
aVbreaking
p628
aVtwitter
p629
aVmoment
p630
aVget
p631
aVto
p632
aVring
p633
aV?
asg14
g15
(S'\x07\xe0\x01\x0f\x12$#\x00\x00\x00'
tRp634
sg17
Nsg18
Vmiradu
p635
sa(dp636
g3
(lp637
V@roooooland
p638
aV@twitterjp
p639
aVcastle
p640
aVin
p641
aVthe
p642
aVsky
p643
aVhttps://t.co/uwkmhcspqf
p644
asg14
g15
(S'\x07\xe0\x01\x0f\x0f\x0b\n\x00\x00\x00'
tRp645
sg17
Nsg18
Vmiradu
p646
sa(dp647
g3
(lp648
Vmaybe
p649
aVone
p650
aVof
p651
aVthe
p652
aVmost
p653
aVunique
p654
aVtwitter
p655
aVtraditions
p656
aVworldwide
p657
aV-
aVhappening
p658
aVin
p659
aV30
p660
aVminutes
p661
aV!
aVhttps://t.co/p1vyislqxg
p662
asg14
g15
(S'\x07\xe0\x01\x0f\r9\x19\x00\x00\x00'
tRp663
sg17
Nsg18
Vmiradu
p664
sa(dp665
g3
(lp666
V@bijan
p667
aV@thiswildidea
p668
aVi
aVshould
p669
aVhave
p670
aVjust
p671
aVsaid
p672
aV"
aVbest
p673
aV"
aV\U0001f609
aV(
aVseriously
p674
aVthough
p675
aVit's
p676
aVmagic
p677
aV)
asg14
g15
(S'\x07\xe0\x01\x0f\x00\x1b\x01\x00\x00\x00'
tRp678
sg17
Nsg18
Vmiradu
p679
sa(dp680
g3
(lp681
V@thiswildidea
p682
aV@bijan
p683
aVabsolute
p684
aVbest
p685
aVway
p686
aVto
p687
aVfind
p688
aVthe
p689
aVtrendiest
p690
aVplaces
p691
aVin
p692
aVevery
p693
aVcity
p694
aVyou
p695
aVvisit
p696
aVaround
p697
aVthe
p698
aVworld
p699
asg14
g15
(S'\x07\xe0\x01\x0f\x00\x04!\x00\x00\x00'
tRp700
sg17
Nsg18
Vmiradu
p701
sa(dp702
g3
(lp703
Vcongrats
p704
aV@dens
p705
aVon
p706
aVkeeping
p707
aV4
aVsq
p708
aVfunded
p709
aVto
p710
aVkeep
p711
aVon
p712
aVbuilding
p713
aV.
aVit's
p714
aVimpossible
p715
aVto
p716
aVtravel
p717
aVwithout
p718
aVwhat
p719
aVyou've
p720
aVbuilt
p721
aV!
asg14
g15
(S'\x07\xe0\x01\x0e\x17 \x1b\x00\x00\x00'
tRp722
sg17
Nsg18
Vmiradu
p723
sa(dp724
g3
(lp725
Vrt
p726
aV@amyzima
p727
aV:
aVwhen
p728
aVthe
p729
aVproduct
p730
aVyou
p731
aVwork
p732
aVon
p733
aVgets
p734
aVused
p735
aVon
p736
aVthe
p737
aVinternational
p738
aVspace
p739
aVstation
p740
aV.
aVwow
p741
aV!
aV#lovewhereyouwork
p742
aVhttps://t.co/hmmrbzwxua
p743
asg14
g15
(S'\x07\xe0\x01\x0e\x0f$"\x00\x00\x00'
tRp744
sg17
Nsg18
Vmiradu
p745
sa(dp746
g3
(lp747
V@mad_typist
p748
aV@twitter
p749
aV@twitteruk
p750
aVwe're
p751
aVsuper
p752
aVexcited
p753
aVto
p754
aVhave
p755
aVyou
p756
aV!
asg14
g15
(S'\x07\xe0\x01\x0e\x0f\x19$\x00\x00\x00'
tRp757
sg17
Nsg18
Vmiradu
p758
sa(dp759
g3
(lp760
V@scosman
p761
aVhow
p762
aVdo
p763
aVi
aVget
p764
aVthis
p765
asg14
g15
(S'\x07\xe0\x01\r\x16%\x06\x00\x00\x00'
tRp766
sg17
Nsg18
Vmiradu
p767
sa(dp768
g3
(lp769
Vlife
p770
aVpro
p771
aVtip
p772
aV:
aVdon't
p773
aVget
p774
aVfood
p775
aVpoisoning
p776
aVwhile
p777
aVtraveling
p778
aV.
aV\U0001f628
aV\U0001f4a9
aV\U0001f631
asg14
g15
(S'\x07\xe0\x01\x0c\x12:2\x00\x00\x00'
tRp779
sg17
Nsg18
Vmiradu
p780
sa(dp781
g3
(lp782
Vrt
p783
aV@crashlytics
p784
aV:
aVintroducing
p785
aVthe
p786
aVability
p787
aVto
p788
aVlog
p789
aVnserrors
p790
aV,
aVnow
p791
aVon
p792
aVthe
p793
aV#
aV1
aVcrash
p794
aVreporting
p795
aVsolution
p796
aV!
aVhttps://t.co/noaywssxop
p797
aV#mobiledev
p798
aVhttps
p799
aV:
aV\u2026
asg14
g15
(S'\x07\xe0\x01\x0c\x12\r2\x00\x00\x00'
tRp800
sg17
Nsg18
Vmiradu
p801
sa(dp802
g3
(lp803
V@joyding
p804
aVooo
p805
aV!
aVa
aVcouple
p806
aVtips
p807
aV:
aVbuy
p808
aVa
aVmicroplane
p809
aVas
p810
aVthey
p811
aVlike
p812
aVto
p813
aVuse
p814
aVzest
p815
aV,
aVdouble
p816
aVthe
p817
aVamount
p818
aVof
p819
aVspice
p820
aV/
aVgarlic
p821
aV,
aVhalve
p822
aVsugary
p823
aVingredients
p824
aV.
asg14
g15
(S"\x07\xe0\x01\n\x14'\x08\x00\x00\x00"
tRp825
sg17
Nsg18
Vmiradu
p826
sa(dp827
g3
(lp828
Vrt
p829
aV@rollingstone
p830
aV:
aVsean
p831
aVpenn
p832
aVrecounts
p833
aVhis
p834
aVsecret
p835
aVvisit
p836
aVwith
p837
aVel
p838
aVchapo
p839
aV,
aVmonths
p840
aVbefore
p841
aVthe
p842
aVdrug
p843
aVlord's
p844
aVrecapture
p845
aVhttps://t.co/onarmvr1tv
p846
aVhttps
p847
aV:
aV\u2026
asg14
g15
(S"\x07\xe0\x01\n\x05#'\x00\x00\x00"
tRp848
sg17
Nsg18
Vmiradu
p849
sa(dp850
g3
(lp851
V@caseynewton
p852
aV@waltmossberg
p853
aVthis
p854
aVwas
p855
aVsuper
p856
aVcute
p857
aV,
aV@backlon
p858
asg14
g15
(S'\x07\xe0\x01\x08\x17%\x01\x00\x00\x00'
tRp859
sg17
Nsg18
Vmiradu
p860
sa(dp861
g3
(lp862
V@estern
p863
aVi
aVhave
p864
aVone
p865
aVbut
p866
aVi
aVleft
p867
aVall
p868
aVmy
p869
aVcables
p870
aVin
p871
aVanother
p872
aVbag
p873
aV:(
p874
aVluckily
p875
aVi
aVfound
p876
aVa
aVdixons
p877
aVand
p878
aVgot
p879
aVfixed
p880
asg14
g15
(S'\x07\xe0\x01\x08\x17\x19\x01\x00\x00\x00'
tRp881
sg17
Nsg18
Vmiradu
p882
sa(dp883
g3
(lp884
V@couch
p885
aV@averycodes
p886
aVthat's
p887
aVa
aVdream
p888
aVcome
p889
aVtrue
p890
aV!
aVcongrats
p891
aV!
aV!
aV!
asg14
g15
(S'\x07\xe0\x01\x08\x14\r\x01\x00\x00\x00'
tRp892
sg17
Nsg18
Vmiradu
p893
sa(dp894
g3
(lp895
Vi
aVdidn't
p896
aVknow
p897
aV@adambain
p898
aVmoonlighted
p899
aVas
p900
aVa
aV@deltaassist
p901
aVagent
p902
aV-
aVno
p903
aVwonder
p904
aVtheir
p905
aVtwitter
p906
aVdm
p907
aVcustomer
p908
aVservice
p909
aVis
p910
aVso
p911
aVgood
p912
aV!
aVhttps://t.co/fngdpklbrw
p913
asg14
g15
(S'\x07\xe0\x01\x08\x10.\x1e\x00\x00\x00'
tRp914
sg17
Nsg18
Vmiradu
p915
sa(dp916
g3
(lp917
V@tostie
p918
aVfirst
p919
aVairport
p920
aVstore
p921
aVi
aVsee
p922
aVis
p923
aVgonna
p924
aVget
p925
aVan
p926
aVamazing
p927
aVcustomer
p928
asg14
g15
(S'\x07\xe0\x01\x08\x07\x1a)\x00\x00\x00'
tRp929
sg17
Nsg18
Vmiradu
p930
sa(dp931
g3
(lp932
Vcurrent
p933
aVstatus
p934
aV:
aVscared
p935
aV.
aVthis
p936
aVis
p937
aVall
p938
aVi
aVhave
p939
aVleft
p940
aV:
aVhttps://t.co/2ad9o3mgyr
p941
asg14
g15
(S'\x07\xe0\x01\x08\x07\x190\x00\x00\x00'
tRp942
sg17
Nsg18
Vmiradu
p943
sa(dp944
g3
(lp945
Vwell
p946
aVit
p947
aVfinally
p948
aVhappened
p949
aV.
aV.
aV.
aVi
aVleft
p950
aVon
p951
aVan
p952
aVinternational
p953
aVtrip
p954
aVwithout
p955
aVany
p956
aVof
p957
aVmy
p958
aVchargers
p959
aV.
aV\U0001f633
aV\U0001f633
aV\U0001f633
asg14
g15
(S'\x07\xe0\x01\x08\x07\x17\x10\x00\x00\x00'
tRp960
sg17
Nsg18
Vmiradu
p961
sa(dp962
g3
(lp963
V@fishermp
p964
aV@twitter
p965
aV@jezforrester
p966
aV@thesubjective
p967
aV@billgodwin
p968
aVcan't
p969
aVbelieve
p970
aVi'm
p971
aVmissing
p972
aVout
p973
asg14
g15
(S'\x07\xe0\x01\x08\x06;\x18\x00\x00\x00'
tRp974
sg17
Nsg18
Vmiradu
p975
sa(dp976
g3
(lp977
V@thedon
p978
aV@hunterwalk
p979
aV@dilisnya
p980
aVwhat
p981
aVis
p982
aV"
aVtool
p983
aV"
aV?
asg14
g15
(S'\x07\xe0\x01\x08\x069\x05\x00\x00\x00'
tRp984
sg17
Nsg18
Vmiradu
p985
sa(dp986
g3
(lp987
V@gabor
p988
aVthe
p989
aVbest
p990
aV!
aVhave
p991
aVfun
p992
aV\U0001f354
aV\U0001f35f
aV\U0001f355
asg14
g15
(S'\x07\xe0\x01\x08\x03\x13\x00\x00\x00\x00'
tRp993
sg17
Nsg18
Vmiradu
p994
sa(dp995
g3
(lp996
V@justmadhu
p997
aV@jasontoff
p998
aV@tmobrien
p999
aV@tdd
p1000
aV@feldman
p1001
aVthanks
p1002
aVfor
p1003
aVruining
p1004
aVthe
p1005
aVgame
p1006
asg14
g15
(S'\x07\xe0\x01\x08\x00\x0f\x08\x00\x00\x00'
tRp1007
sg17
Nsg18
Vmiradu
p1008
sa(dp1009
g3
(lp1010
V@pandemona
p1011
aV@chanian
p1012
aVbest
p1013
aVpart
p1014
aVis
p1015
aVthat
p1016
aVthey
p1017
aVdeleted
p1018
aVour
p1019
aVaccounts
p1020
aVonly
p1021
aVweeks
p1022
aVbefore
p1023
aVq4
p1024
aV2015
p1025
aVtaxes
p1026
aVwere
p1027
aVdue
p1028
aV.
aVmakes
p1029
aVzero
p1030
aVsense
p1031
asg14
g15
(S"\x07\xe0\x01\x07\x07\x02'\x00\x00\x00"
tRp1032
sg17
Nsg18
Vmiradu
p1033
sa(dp1034
g3
(lp1035
V@pbaker
p1036
aV@wired
p1037
aVis
p1038
aVthis
p1039
aVyours
p1040
aV?
asg14
g15
(S'\x07\xe0\x01\x07\x05\x17&\x00\x00\x00'
tRp1041
sg17
Nsg18
Vmiradu
p1042
sa(dp1043
g3
(lp1044
V@janamal
p1045
aV@diegobandito
p1046
aV@jordanyelinek
p1047
aV\U0001f917
asg14
g15
(S'\x07\xe0\x01\x07\x01\x14)\x00\x00\x00'
tRp1048
sg17
Nsg18
Vmiradu
p1049
sa(dp1050
g3
(lp1051
V\u26a1
aV\ufe0f
aV\U0001f436
aVexcited
p1052
aVto
p1053
aVwelcome
p1054
aV@diegobandito
p1055
aVto
p1056
aV@jordanyelinek
p1057
aVand
p1058
aVi's
p1059
aVlife
p1060
aV!
aVhttps://t.co/eaadabmyoj
p1061
asg14
g15
(S'\x07\xe0\x01\x07\x01\x123\x00\x00\x00'
tRp1062
sg17
Nsg18
Vmiradu
p1063
sa(dp1064
g3
(lp1065
V@richparet
p1066
aV@mollie
p1067
aV@theliebowitz
p1068
aVi
aVwonder
p1069
aVif
p1070
aVjosh
p1071
aVis
p1072
aVjust
p1073
aVtrying
p1074
aVto
p1075
aVtroll
p1076
aVus
p1077
asg14
g15
(S'\x07\xe0\x01\x07\x01\x04\x02\x00\x00\x00'
tRp1078
sg17
Nsg18
Vmiradu
p1079
sa(dp1080
g3
(lp1081
V@r2r
p1082
aVwtf
p1083
asg14
g15
(S'\x07\xe0\x01\x06\x16\x013\x00\x00\x00'
tRp1084
sg17
Nsg18
Vmiradu
p1085
sa(dp1086
g3
(lp1087
Vrt
p1088
aV@thenextweb
p1089
aV:
aVtwitter's
p1090
aVnew
p1091
aV'
aVmobile
p1092
aVapp
p1093
aVplaybook
p1094
aV'
aVis
p1095
aVa
aVseries
p1096
aVof
p1097
aVblog
p1098
aVposts
p1099
aVon
p1100
aVhow
p1101
aVto
p1102
aVbuild
p1103
aVapps
p1104
aVhttps://t.co/helnlt03x8
p1105
aVhttps://t.co/qao
p1106
aV\u2026
asg14
g15
(S'\x07\xe0\x01\x06\x15\x17&\x00\x00\x00'
tRp1107
sg17
Nsg18
Vmiradu
p1108
sa(dp1109
g3
(lp1110
V@onethinline
p1111
aV#
aV2
aVis
p1112
aVyour
p1113
aVbest
p1114
aVanswer
p1115
asg14
g15
(S'\x07\xe0\x01\x06\x133\x1c\x00\x00\x00'
tRp1116
sg17
Nsg18
Vmiradu
p1117
sa(dp1118
g3
(lp1119
Vrt
p1120
aV@getstream_io
p1121
aV:
aV.
aV@getstream_io
p1122
aV+
aV@meteorjs
p1123
aVintegration
p1124
aVis
p1125
aVavailable
p1126
aVtoday
p1127
aV.
aVtry
p1128
aVthe
p1129
aVtutorial
p1130
aV!
aVhttps://t.co/ylwvc7xdyw
p1131
aV#meteor
p1132
aV@discoverme
p1133
aV\u2026
asg14
g15
(S'\x07\xe0\x01\x06\x13-7\x00\x00\x00'
tRp1134
sg17
Nsg18
Vmiradu
p1135
sa(dp1136
g3
(lp1137
V@onethinline
p1138
aVwhy
p1139
aVwould
p1140
aVyou
p1141
aVshave
p1142
asg14
g15
(S'\x07\xe0\x01\x06\x13\x19\x18\x00\x00\x00'
tRp1143
sg17
Nsg18
Vmiradu
p1144
sa(dp1145
g3
(lp1146
V@jack
p1147
aV45
p1148
aVyears
p1149
aVwasted
p1150
asg14
g15
(S'\x07\xe0\x01\x06\x12-\x16\x00\x00\x00'
tRp1151
sg17
Nsg18
Vmiradu
p1152
sa(dp1153
g3
(lp1154
V@elizabeth
p1155
aV@ces
p1156
aVsame
p1157
aV!
asg14
g15
(S'\x07\xe0\x01\x06\x12\x19\x05\x00\x00\x00'
tRp1158
sg17
Nsg18
Vmiradu
p1159
sa(dp1160
g3
(lp1161
V@justmadhu
p1162
aV@rallat
p1163
aV@oculus
p1164
aVit
p1165
aVrequires
p1166
aVowning
p1167
aVa
aVpc
p1168
aV?
aV/
aVconfused
p1169
asg14
g15
(S'\x07\xe0\x01\x06\x12\x185\x00\x00\x00'
tRp1170
sg17
Nsg18
Vmiradu
p1171
sa(dp1172
g3
(lp1173
V@katies
p1174
aV#onlyontwitter
p1175
aV#lovethis
p1176
asg14
g15
(S'\x07\xe0\x01\x06\x10\x1c4\x00\x00\x00'
tRp1177
sg17
Nsg18
Vmiradu
p1178
sa(dp1179
g3
(lp1180
V@joy__ebooks
p1181
aV@joyding
p1182
aVsame
p1183
asg14
g15
(S'\x07\xe0\x01\x06\x00+\x1d\x00\x00\x00'
tRp1184
sg17
Nsg18
Vmiradu
p1185
sa(dp1186
g3
(lp1187
V@setosora
p1188
aV@doorman
p1189
aVlife
p1190
aVchanger
p1191
aV.
aVaccepts
p1192
aVall
p1193
aVour
p1194
aVpackages
p1195
aVand
p1196
aVdelivers
p1197
aVthem
p1198
aVon
p1199
aVdemand
p1200
aVwhen
p1201
aVi'm
p1202
aVhome-use
p1203
aVpromo
p1204
aVxrjst
p1205
aVto
p1206
aVget
p1207
aV$
aV10
p1208
aVcredit
p1209
asg14
g15
(S'\x07\xe0\x01\x05\x17$:\x00\x00\x00'
tRp1210
sg17
Nsg18
Vmiradu
p1211
sa(dp1212
g3
(lp1213
V@ericshangle
p1214
aV@doorman
p1215
aVlife
p1216
aVchanger
p1217
aV.
aVaccepts
p1218
aVall
p1219
aVour
p1220
aVpackages
p1221
aVand
p1222
aVdelivers
p1223
aVthem
p1224
aVon
p1225
aVdemand
p1226
aVwhen
p1227
aVi'm
p1228
aVhome-use
p1229
aVpromo
p1230
aVxrjst
p1231
aVto
p1232
aVget
p1233
aV$
aV10
p1234
aVcredit
p1235
asg14
g15
(S'\x07\xe0\x01\x05\x17$-\x00\x00\x00'
tRp1236
sg17
Nsg18
Vmiradu
p1237
sa(dp1238
g3
(lp1239
Vwhoa
p1240
aVnew
p1241
aV@doorman
p1242
aVapp
p1243
aVhttps://t.co/ai1hyoerc4
p1244
asg14
g15
(S'\x07\xe0\x01\x05\x17\x02\t\x00\x00\x00'
tRp1245
sg17
Nsg18
Vmiradu
p1246
sa(dp1247
g3
(lp1248
V@jessimurray
p1249
aV@maiab
p1250
aVew
p1251
aVew
p1252
aVew
p1253
aVew
p1254
aVew
p1255
aVew
p1256
aVew
p1257
aVew
p1258
asg14
g15
(S'\x07\xe0\x01\x05\x16\x1b*\x00\x00\x00'
tRp1259
sg17
Nsg18
Vmiradu
p1260
sa(dp1261
g3
(lp1262
Vrt
p1263
aV@jack
p1264
aV:
aVhttps://t.co/bc5rwqpcax
p1265
asg14
g15
(S'\x07\xe0\x01\x05\x16\t\x0c\x00\x00\x00'
tRp1266
sg17
Nsg18
Vmiradu
p1267
sa(dp1268
g3
(lp1269
Vwhoa
p1270
aVcongrats
p1271
aV!
aV!
aV!
aVhttps://t.co/3drsjispue
p1272
asg14
g15
(S'\x07\xe0\x01\x05\x15:$\x00\x00\x00'
tRp1273
sg17
Nsg18
Vmiradu
p1274
sa(dp1275
g3
(lp1276
Vi
aVlove
p1277
aVthe
p1278
aVlittle
p1279
aVblue
p1280
aVbird
p1281
aVat
p1282
aVthe
p1283
aVend
p1284
aVof
p1285
aVthis
p1286
aVtweet
p1287
aV#golive
p1288
asg14
g15
(S'\x07\xe0\x01\x05\x14\x11\x1e\x00\x00\x00'
tRp1289
sg17
Nsg18
Vmiradu
p1290
sa(dp1291
g3
(lp1292
Vrt
p1293
aV@whitehouse
p1294
aV:
aV"
aVwe
p1295
aVdo
p1296
aVnot
p1297
aVhave
p1298
aVto
p1299
aVaccept
p1300
aVthis
p1301
aVcarnage
p1302
aVas
p1303
aVthe
p1304
aVprice
p1305
aVof
p1306
aVour
p1307
aVfreedom
p1308
aV.
aV"
aV\u2014
aV@potus
p1309
aVrt
p1310
aVif
p1311
aVyou
p1312
aVagree
p1313
aV:
aVit's
p1314
aVtime
p1315
aVto
p1316
aVact
p1317
aVto
p1318
aVhelp
p1319
aV#st
p1320
aV\u2026
asg14
g15
(S'\x07\xe0\x01\x05\x135;\x00\x00\x00'
tRp1321
sg17
Nsg18
Vmiradu
p1322
sa(dp1323
g3
(lp1324
Vrt
p1325
aV@jeffseibert
p1326
aV:
aVready
p1327
aVfor
p1328
aVa
aVnew
p1329
aVchallenge
p1330
aV?
aVi
aV\u2019
aVm
aVseeking
p1331
aVa
aVworld-class
p1332
aVdirector
p1333
aVof
p1334
aVproduct
p1335
aVfor
p1336
aVa
aVkey
p1337
aVleadership
p1338
aVposition
p1339
aVon
p1340
aVmy
p1341
aVteam
p1342
aV:
aVhttps
p1343
aV:/
p1344
aV\u2026
asg14
g15
(S'\x07\xe0\x01\x05\x11\r\x18\x00\x00\x00'
tRp1345
sg17
Nsg18
Vmiradu
p1346
sa(dp1347
g3
(lp1348
V@justmadhu
p1349
aV@tmobrien
p1350
aV@jasontoff
p1351
aV@tdd
p1352
aV@rafinhabastos
p1353
aVprotect
p1354
aVyourself
p1355
aVin
p1356
aVthe
p1357
aVfuture
p1358
aVhttps://t.co/8ap772xmj7
p1359
asg14
g15
(S'\x07\xe0\x01\x05\x104%\x00\x00\x00'
tRp1360
sg17
Nsg18
Vmiradu
p1361
sa(dp1362
g3
(lp1363
V@nateswanner
p1364
aVwho
p1365
aVneeds
p1366
aVelectric
p1367
aVcars
p1368
aVwhen
p1369
aVyou
p1370
aVcan
p1371
aVhave
p1372
aVelectric
p1373
aVscooters
p1374
aVinstead
p1375
aV?
asg14
g15
(S'\x07\xe0\x01\x05\x103\x15\x00\x00\x00'
tRp1376
sg17
Nsg18
Vmiradu
p1377
sa(dp1378
g3
(lp1379
V@nateswanner
p1380
aVoh
p1381
aVfor
p1382
aVme
p1383
aVit
p1384
aVwas
p1385
aVthat
p1386
aVgogoro
p1387
aVstill
p1388
aVhasn't
p1389
aVlaunched
p1390
aVin
p1391
aVsf
p1392
asg14
g15
(S'\x07\xe0\x01\x05\x10*\x01\x00\x00\x00'
tRp1393
sg17
Nsg18
Vmiradu
p1394
sa(dp1395
g3
(lp1396
Vdidn't
p1397
aVsleep
p1398
aVwell
p1399
aVlast
p1400
aVnight
p1401
aV\U0001f623
asg14
g15
(S'\x07\xe0\x01\x05\x10(\x05\x00\x00\x00'
tRp1402
sg17
Nsg18
Vmiradu
p1403
sa(dp1404
g3
(lp1405
V@alibee
p1406
aVcongrats
p1407
aV!
aV!
aV!
asg14
g15
(S'\x07\xe0\x01\x05\x02\x15\x13\x00\x00\x00'
tRp1408
sg17
Nsg18
Vmiradu
p1409
sa(dp1410
g3
(lp1411
V@ericfrohnhoefer
p1412
aV@r2r
p1413
aVwhat
p1414
aVbubble
p1415
asg14
g15
(S'\x07\xe0\x01\x05\x02\x13+\x00\x00\x00'
tRp1416
sg17
Nsg18
Vmiradu
p1417
sa(dp1418
g3
(lp1419
Vgo
p1420
aV@silvercar
p1421
aV!
aVhttps://t.co/foejhqgehk
p1422
asg14
g15
(S'\x07\xe0\x01\x05\x02\x05\x05\x00\x00\x00'
tRp1423
sg17
Nsg18
Vmiradu
p1424
sa(dp1425
g3
(lp1426
V@mcrowther
p1427
aV\U0001f914
asg14
g15
(S'\x07\xe0\x01\x04\x16:&\x00\x00\x00'
tRp1428
sg17
Nsg18
Vmiradu
p1429
sa(dp1430
g3
(lp1431
V@coops
p1432
aVdelta
p1433
aVhands
p1434
aVdown
p1435
aV.
aVthey
p1436
aVhave
p1437
aVthe
p1438
aVbest
p1439
aVservice
p1440
aVjfk-sfo
p1441
aV,
aVand
p1442
aVare
p1443
aVthe
p1444
aVonly
p1445
aVinternational
p1446
aVchoice
p1447
aVout
p1448
aVof
p1449
aVjfk
p1450
aVof
p1451
aVyour
p1452
aV3
aV.
asg14
g15
(S'\x07\xe0\x01\x04\x13\x14\x0b\x00\x00\x00'
tRp1453
sg17
Nsg18
Vmiradu
p1454
sa(dp1455
g3
(lp1456
V@chrismessina
p1457
aV@uber
p1458
aVcongrats
p1459
aV!
asg14
g15
(S'\x07\xe0\x01\x04\x10,)\x00\x00\x00'
tRp1460
sg17
Nsg18
Vmiradu
p1461
sa(dp1462
g3
(lp1463
V@emoore
p1464
aVgiven
p1465
aVthis
p1466
aVrec
p1467
aV,
aVi
aVsuggest
p1468
aVyou
p1469
aVdo
p1470
aVnot
p1471
aVcreate
p1472
aVan
p1473
aVaccount
p1474
aVon
p1475
aVhttps://t.co/cc2oaakqm1
p1476
aVor
p1477
aVspend
p1478
aVtime
p1479
aVon
p1480
aVhttps://t.co/ah37avityt
p1481
asg14
g15
(S'\x07\xe0\x01\x04\x05\x1f\x1e\x00\x00\x00'
tRp1482
sg17
Nsg18
Vmiradu
p1483
sa(dp1484
g3
(lp1485
V@coolasspuppy
p1486
aVyou
p1487
aVknow
p1488
aVyou
p1489
aVcan
p1490
aVdo
p1491
aVboth
p1492
asg14
g15
(S'\x07\xe0\x01\x03\x159\x1b\x00\x00\x00'
tRp1493
sg17
Nsg18
Vmiradu
p1494
sa(dp1495
g3
(lp1496
V@meat
p1497
aV\u2764
aV\ufe0f
aV\U0001f499
asg14
g15
(S'\x07\xe0\x01\x03\x154;\x00\x00\x00'
tRp1498
sg17
Nsg18
Vmiradu
p1499
sa(dp1500
g3
(lp1501
Vi'm
p1502
aVso
p1503
aVready
p1504
aVfor
p1505
aVthis
p1506
aVbreak
p1507
aVto
p1508
aVbe
p1509
aVover
p1510
aV.
aVit's
p1511
aVtime
p1512
aVto
p1513
aVbuild
p1514
aVnew
p1515
aVthings
p1516
aV!
asg14
g15
(S'\x07\xe0\x01\x03\x13)\x17\x00\x00\x00'
tRp1517
sg17
Nsg18
Vmiradu
p1518
sa(dp1519
g3
(lp1520
V@jasontoff
p1521
aV@feldman
p1522
aV@tmobrien
p1523
aV@justmadhu
p1524
aV@justmadhu
p1525
aV@feldman
p1526
aV@tmobrien
p1527
aV@jasontoff
p1528
aV@cristinatoff
p1529
aVneeds
p1530
aVa
aVdeeper
p1531
aVtwitter
p1532
aVintegration
p1533
aV.
asg14
g15
(S'\x07\xe0\x01\x03\x04\x04%\x00\x00\x00'
tRp1534
sg17
Nsg18
Vmiradu
p1535
sa(dp1536
g3
(lp1537
V@tmobrien
p1538
aV@justmadhu
p1539
aV@numberfulgame
p1540
aVthis
p1541
aVis
p1542
aVgood
p1543
aVgame
p1544
aV.
aVjust
p1545
aVmade
p1546
aV33
p1547
aV!
asg14
g15
(S'\x07\xe0\x01\x03\x02)+\x00\x00\x00'
tRp1548
sg17
Nsg18
Vmiradu
p1549
sa(dp1550
g3
(lp1551
Vwhat's
p1552
aVhappening
p1553
aV?
asg14
g15
(S'\x07\xe0\x01\x02\x12\x18+\x00\x00\x00'
tRp1554
sg17
Nsg18
Vmiradu
p1555
sa(dp1556
g3
(lp1557
V@backlon
p1558
aVoh
p1559
aVgod
p1560
aVit
p1561
aVhas
p1562
aVstarted
p1563
aV?
aV!
asg14
g15
(S'\x07\xe0\x01\x02\x12\x14;\x00\x00\x00'
tRp1564
sg17
Nsg18
Vmiradu
p1565
sa(dp1566
g3
(lp1567
V@shinypb
p1568
aVmy
p1569
aVnest
p1570
aVprotect
p1571
aVended
p1572
aVup
p1573
aVin
p1574
aVa
aVdrawer
p1575
asg14
g15
(S'\x07\xe0\x01\x02\x03-\x05\x00\x00\x00'
tRp1576
sg17
Nsg18
Vmiradu
p1577
sa(dp1578
g3
(lp1579
V\U0001f37e
asg14
g15
(S'\x07\xe0\x01\x01\x05\x00\x05\x00\x00\x00'
tRp1580
sg17
Nsg18
Vmiradu
p1581
sa(dp1582
g3
(lp1583
V@frogtwitt
p1584
aV@blueapron
p1585
aVdon't
p1586
aVworry
p1587
aVwe
p1588
aValways
p1589
aVdouble
p1590
aVthe
p1591
aVgarlic
p1592
asg14
g15
(S'\x07\xe0\x01\x01\x01\x00\x00\x00\x00\x00'
tRp1593
sg17
Nsg18
Vmiradu
p1594
sa(dp1595
g3
(lp1596
V@reyner
p1597
aV\U0001f6a8
asg14
g15
(S'\x07\xdf\x0c\x1f\x17:.\x00\x00\x00'
tRp1598
sg17
Nsg18
Vmiradu
p1599
sa(dp1600
g3
(lp1601
Vthis
p1602
aVplace
p1603
aVhas
p1604
aVto
p1605
aVbe
p1606
aVmy
p1607
aVnew
p1608
aVfavorite
p1609
aVplace
p1610
aVin
p1611
aVhealdsburg
p1612
aV-
aVhttps://t.co/kdogsruunb
p1613
aVhttps://t.co/5n49n3kjuy
p1614
aVhttps://t.co/egdvwqbgsq
p1615
asg14
g15
(S'\x07\xdf\x0c\x1f\x144\x18\x00\x00\x00'
tRp1616
sg17
Nsg18
Vmiradu
p1617
sa(dp1618
g3
(lp1619
Vyesterday
p1620
aVi
aVneeded
p1621
aVa
aVcar
p1622
aVjumpstarted
p1623
aV.
aVtowing
p1624
aVservice
p1625
aVwanted
p1626
aVan
p1627
aVhour
p1628
aVand
p1629
aV$
aV100
p1630
aV.
aVamazon
p1631
aVprime
p1632
aVnow
p1633
aVgot
p1634
aVme
p1635
aVcables
p1636
aVin
p1637
aV20
p1638
aVmin
p1639
aVfor
p1640
aV$
aV40
p1641
aV.
asg14
g15
(S'\x07\xdf\x0c\x1f\x11/\x14\x00\x00\x00'
tRp1642
sg17
Nsg18
Vmiradu
p1643
sa(dp1644
g3
(lp1645
Vmy
p1646
aVyear
p1647
aVin
p1648
aV@blueapron
p1649
aVhttps://t.co/ulrjycg7xp
p1650
asg14
g15
(S'\x07\xdf\x0c\x1f\x1014\x00\x00\x00'
tRp1651
sg17
Nsg18
Vmiradu
p1652
sa(dp1653
g3
(lp1654
V@javi
p1655
aV@nachosoto
p1656
aVsure
p1657
aVbut
p1658
aVimagine
p1659
aVif
p1660
aVapps
p1661
aVcould
p1662
aVonly
p1663
aVbe
p1664
aVglances
p1665
aVhow
p1666
aVmuch
p1667
aVbetter
p1668
aVthey
p1669
aVcould
p1670
aVhave
p1671
aVbeen
p1672
aV.
asg14
g15
(S'\x07\xdf\x0c\x1f\x06\x00\x1a\x00\x00\x00'
tRp1673
sg17
Nsg18
Vmiradu
p1674
sa(dp1675
g3
(lp1676
V@nachosoto
p1677
aV@javi
p1678
aVi
aVdon't
p1679
aVbother
p1680
aVwith
p1681
aVwatch
p1682
aVapps
p1683
aVanymore
p1684
aV,
aVthey're
p1685
aVall
p1686
aVgarbage
p1687
aV.
aVnotifications
p1688
aV,
aVglances
p1689
aV,
aVsending
p1690
aVhearts
p1691
aVis
p1692
aVwhat
p1693
aVit's
p1694
aVfor
p1695
asg14
g15
(S'\x07\xdf\x0c\x1f\x0553\x00\x00\x00'
tRp1696
sg17
Nsg18
Vmiradu
p1697
sa(dp1698
g3
(lp1699
V.
aV@ltm
p1700
aVon
p1701
aV#periscope
p1702
aV:
aVtrivia
p1703
aVscope
p1704
aV:
aV2015
p1705
aVtrivia
p1706
aV!
aV#newyear
p1707
aV#yearinreview
p1708
aVhttps://t.co/bh1gdstexl
p1709
asg14
g15
(S'\x07\xdf\x0c\x1f\x05\x1e\x08\x00\x00\x00'
tRp1710
sg17
Nsg18
Vmiradu
p1711
sa(dp1712
g3
(lp1713
Vrt
p1714
aV@macrumors
p1715
aV:
aVtwitter
p1716
aVfor
p1717
aVmac
p1718
aVgets
p1719
aVmajor
p1720
aVupdate
p1721
aVwith
p1722
aVrevamped
p1723
aVdesign
p1724
aV,
aVnew
p1725
aVfeatures
p1726
aVhttps://t.co/rjw1b92cqi
p1727
aVby
p1728
aV@julipuli
p1729
aVhttps://t.co/zebjj
p1730
aV\u2026
asg14
g15
(S'\x07\xdf\x0c\x1e\x12$\x02\x00\x00\x00'
tRp1731
sg17
Nsg18
Vmiradu
p1732
sa(dp1733
g3
(lp1734
V@engineerboris
p1735
aV4.8
p1736
aVhttps://t.co/c5m3vbqdhn
p1737
asg14
g15
(S'\x07\xdf\x0c\x1e\x07-\x12\x00\x00\x00'
tRp1738
sg17
Nsg18
Vmiradu
p1739
sa(dp1740
g3
(lp1741
V@engineerboris
p1742
aVall
p1743
aVthe
p1744
aVway
p1745
aVto
p1746
aVvancouver
p1747
aVtoo
p1748
aVaccording
p1749
aVto
p1750
aVpeople's
p1751
aVtweets
p1752
asg14
g15
(S'\x07\xdf\x0c\x1e\x07*\x0e\x00\x00\x00'
tRp1753
sg17
Nsg18
Vmiradu
p1754
sa(dp1755
g3
(lp1756
V@rjcc
p1757
aVyeah
p1758
aVit
p1759
aVwas
p1760
aVmore
p1761
aVme
p1762
aVjust
p1763
aVplaying
p1764
aVaround
p1765
aV.
aVappletv
p1766
aVneeds
p1767
aVfull
p1768
aVroom
p1769
aVmics
p1770
aV.
aVamazon
p1771
aVecho
p1772
aVis
p1773
aVso
p1774
aVmuch
p1775
aVbetter
p1776
aVat
p1777
aVthis
p1778
asg14
g15
(S'\x07\xdf\x0c\x1e\x07\x11\x0e\x00\x00\x00'
tRp1779
sg17
Nsg18
Vmiradu
p1780
sa(dp1781
g3
(lp1782
V@kpk
p1783
aV"
aVplay
p1784
aV"
aVand
p1785
aV"
aVunpause
p1786
aV"
asg14
g15
(S'\x07\xdf\x0c\x1e\x07\n\x08\x00\x00\x00'
tRp1787
sg17
Nsg18
Vmiradu
p1788
sa(dp1789
g3
(lp1790
Vsiri
p1791
aVon
p1792
aVappletv
p1793
aVcan
p1794
aVpause
p1795
aVnetflix
p1796
aVbut
p1797
aVnot
p1798
aVplay
p1799
aVagain
p1800
aVafter
p1801
aVpausing
p1802
aV.
aVhuh
p1803
aV?
asg14
g15
(S'\x07\xdf\x0c\x1e\x07\x08&\x00\x00\x00'
tRp1804
sg17
Nsg18
Vmiradu
p1805
sa(dp1806
g3
(lp1807
V@emoore
p1808
aVfor
p1809
aVreal
p1810
aV?
aV!
aV?
aVomg
p1811
asg14
g15
(S'\x07\xdf\x0c\x1e\x06\x053\x00\x00\x00'
tRp1812
sg17
Nsg18
Vmiradu
p1813
sa(dp1814
g3
(lp1815
V@kris
p1816
aVi
aVdo
p1817
aVit
p1818
aVall
p1819
aVthe
p1820
aVtime
p1821
aVw
aVjordan
p1822
aV\u263a
aV\ufe0f
asg14
g15
(S'\x07\xdf\x0c\x1d\x17\x14\x15\x00\x00\x00'
tRp1823
sg17
Nsg18
Vmiradu
p1824
sa(dp1825
g3
(lp1826
Va
aVsan
p1827
aVfrancisco
p1828
aVplay
p1829
aVcasts
p1830
aVtech
p1831
aVcompanies
p1832
aVas
p1833
aVvillains
p1834
aV\u2014
aVbut
p1835
aVthey're
p1836
aVnot
p1837
aVto
p1838
aVblame
p1839
aVfor
p1840
aVthe
p1841
aVcity's
p1842
aVsoaring
p1843
aVrents
p1844
aV:
aVhttps://t.co/uattlkjvfk
p1845
asg14
g15
(S'\x07\xdf\x0c\x1d\x130\r\x00\x00\x00'
tRp1846
sg17
Nsg18
Vmiradu
p1847
sa(dp1848
g3
(lp1849
V@beadaschauer
p1850
aVseems
p1851
aVto
p1852
aVbe
p1853
aVthe
p1854
aVsame
p1855
asg14
g15
(S'\x07\xdf\x0c\x1d\x10\x13\x1a\x00\x00\x00'
tRp1856
sg17
Nsg18
Vmiradu
p1857
sa(dp1858
g3
(lp1859
V@derosimona
p1860
aVbecause
p1861
aVi
aVstore
p1862
aVthe
p1863
aVbutton
p1864
aVnext
p1865
aVto
p1866
aVmy
p1867
aVtide
p1868
aV.
aVwhen
p1869
aVi
aVran
p1870
aVout
p1871
aV,
aVi
aVpressed
p1872
aVit
p1873
aVand
p1874
aVit
p1875
aVblinked
p1876
aVwhite
p1877
aVand
p1878
aVthen
p1879
aVturned
p1880
aVgreen
p1881
aV.
aVall
p1882
aVdone
p1883
aV!
asg14
g15
(S'\x07\xdf\x0c\x1d\x03\x11\x05\x00\x00\x00'
tRp1884
sg17
Nsg18
Vmiradu
p1885
sa(dp1886
g3
(lp1887
V@sf_kevin
p1888
aVi
aVwas
p1889
aVabout
p1890
aVto
p1891
aVcorrect
p1892
aVmyself
p1893
aV.
asg14
g15
(S'\x07\xdf\x0c\x1d\x03\x0b)\x00\x00\x00'
tRp1894
sg17
Nsg18
Vmiradu
p1895
sa(dp1896
g3
(lp1897
V@sf_kevin
p1898
aVlast
p1899
aVweek
p1900
aVi
aVsold
p1901
aVa
aV$
aV50
p1902
aVlego
p1903
aVset
p1904
aVfrom
p1905
aV2010
p1906
aVthat
p1907
aVi
aVhad
p1908
aVstored
p1909
aVfor
p1910
aV$
aV250
p1911
aV.
aV38
p1912
aV%
aVapr
p1913
aV.
asg14
g15
(S'\x07\xdf\x0c\x1d\x03\t\x00\x00\x00\x00'
tRp1914
sg17
Nsg18
Vmiradu
p1915
sa(dp1916
g3
(lp1917
V@backlon
p1918
aVblazer
p1919
aVon
p1920
aVa
aVvisorphone
p1921
aVwas
p1922
aVa
aVproxy
p1923
aVbrowser
p1924
aVand
p1925
aVthe
p1926
aVproxy
p1927
aVis
p1928
aVshutdown
p1929
aV.
aVbut
p1930
aV,
aVhttps://t.co/kwp52yj7tx
p1931
aVwould
p1932
aVstill
p1933
aVrender
p1934
aVgreat
p1935
aV\u26a1
aV\ufe0f
aV\u270c
aV\ufe0f
asg14
g15
(S'\x07\xdf\x0c\x1d\x01,\x0b\x00\x00\x00'
tRp1936
sg17
Nsg18
Vmiradu
p1937
sa(dp1938
g3
(lp1939
Vi
aVgot
p1940
aVto
p1941
aVuse
p1942
aVmy
p1943
aVamazon
p1944
aVdash
p1945
aVbutton
p1946
aVtoday
p1947
aVto
p1948
aVorder
p1949
aVa
aVnew
p1950
aVbox
p1951
aVof
p1952
aVtide
p1953
aVpods
p1954
aVafter
p1955
aVi
aVran
p1956
aVout
p1957
aV.
aVsuch
p1958
aVa
aVdelightful
p1959
aVexperience
p1960
aV.
asg14
g15
(S'\x07\xdf\x0c\x1d\x01)1\x00\x00\x00'
tRp1961
sg17
Nsg18
Vmiradu
p1962
sa(dp1963
g3
(lp1964
V@joshelman
p1965
aVtweetdeck
p1966
aVhas
p1967
aVan
p1968
aVincredible
p1969
aVfeature
p1970
aVfor
p1971
aVthis
p1972
aV-
aVyou
p1973
aVcan
p1974
aVadd
p1975
aVa
aVhome
p1976
aVcolumn
p1977
aVto
p1978
aVview
p1979
aVtwitter
p1980
aVthe
p1981
aVway
p1982
aVthey
p1983
aVdo
p1984
aVhttps://t.co/ccvljjraxu
p1985
asg14
g15
(S'\x07\xdf\x0c\x1c\x05\x06\x03\x00\x00\x00'
tRp1986
sg17
Nsg18
Vmiradu
p1987
sa(dp1988
g3
(lp1989
V@fmborghino
p1990
aVi
aVthought
p1991
aVseniors
p1992
aVwas
p1993
aVthe
p1994
aVone
p1995
aVuse
p1996
aVcase
p1997
aVthey
p1998
aVtargeted
p1999
aV\U0001f623
asg14
g15
(S'\x07\xdf\x0c\x1a\x0f\t-\x00\x00\x00'
tRp2000
sg17
Nsg18
Vmiradu
p2001
sa(dp2002
g3
(lp2003
Vchristmas
p2004
aV#starwars
p2005
aVtickets
p2006
aVpurchased
p2007
asg14
g15
(S'\x07\xdf\x0c\x1a\x00\x11\x05\x00\x00\x00'
tRp2008
sg17
Nsg18
Vmiradu
p2009
sa(dp2010
g3
(lp2011
Vwow
p2012
aV,
aVchrome
p2013
aVos
p2014
aVis
p2015
aVawful
p2016
aV.
aVimpossible
p2017
aVto
p2018
aVdisable
p2019
aVpassword
p2020
aVon
p2021
aVlogin
p2022
aV,
aVor
p2023
aVincrease
p2024
aVfont
p2025
aVsize
p2026
aVused
p2027
aVin
p2028
aVux
p2029
aV.
aVguest
p2030
aVaccess
p2031
aVcrashes
p2032
aVchanging
p2033
aVsettings
p2034
aV\U0001f621
asg14
g15
(S'\x07\xdf\x0c\x19\x158\x1c\x00\x00\x00'
tRp2035
sg17
Nsg18
Vmiradu
p2036
sa(dp2037
g3
(lp2038
V@tmobrien
p2039
aV\U0001f61f
asg14
g15
(S'\x07\xdf\x0c\x18\x126\x10\x00\x00\x00'
tRp2040
sg17
Nsg18
Vmiradu
p2041
sa(dp2042
g3
(lp2043
V@tmobrien
p2044
aVuse
p2045
aVamazon
p2046
aVprime
p2047
aVnow
p2048
aVnext
p2049
aVtime
p2050
aV?
aValready
p2051
aVsaved
p2052
aVme
p2053
aVtwice
p2054
aVfrom
p2055
aVhaving
p2056
aVto
p2057
aVgo
p2058
aVto
p2059
aVthe
p2060
aVstore
p2061
asg14
g15
(S'\x07\xdf\x0c\x18\x122:\x00\x00\x00'
tRp2062
sg17
Nsg18
Vmiradu
p2063
sa(dp2064
g3
(lp2065
Vrt
p2066
aV@twitter
p2067
aV:
aV#happyholidays
p2068
aV\U0001f384
aVrace
p2069
aVyou
p2070
aVto
p2071
aVthe
p2072
aVtree
p2073
aV!
aVhttps://t.co/0pzzeqoumn
p2074
asg14
g15
(S'\x07\xdf\x0c\x18\x11\x15-\x00\x00\x00'
tRp2075
sg17
Nsg18
Vmiradu
p2076
sa(dp2077
g3
(lp2078
V@mollie
p2079
aV@isaacvandor
p2080
aV\U0001f3af
asg14
g15
(S'\x07\xdf\x0c\x18\x059\x0c\x00\x00\x00'
tRp2081
sg17
Nsg18
Vmiradu
p2082
sa(dp2083
g3
(lp2084
Vrt
p2085
aV@jordanyelinek
p2086
aV:
aV#xmasonesies
p2087
aVat
p2088
aVchateau
p2089
aVducker
p2090
aVhttps://t.co/zhwncnan3x
p2091
asg14
g15
(S'\x07\xdf\x0c\x18\x05\x05\x0e\x00\x00\x00'
tRp2092
sg17
Nsg18
Vmiradu
p2093
sa(dp2094
g3
(lp2095
V@joyding
p2096
aV@kevinweil
p2097
aVthis
p2098
aVis
p2099
aVwhen
p2100
aVpaying
p2101
aV$
aV50
p2102
aVfor
p2103
aVlounge
p2104
aVaccess
p2105
aVin
p2106
aVthe
p2107
aVunited
p2108
aVapp
p2109
aVmakes
p2110
aVsense
p2111
asg14
g15
(S'\x07\xdf\x0c\x18\x046\x08\x00\x00\x00'
tRp2112
sg17
Nsg18
Vmiradu
p2113
sa(dp2114
g3
(lp2115
V@jeffseibert
p2116
aVthe
p2117
aVbeginning
p2118
aVof
p2119
aVa
aVgreat
p2120
aVchristmas
p2121
aV!
aVhttps://t.co/lhzowkricz
p2122
asg14
g15
(S'\x07\xdf\x0c\x17\x15\x149\x00\x00\x00'
tRp2123
sg17
Nsg18
Vmiradu
p2124
sa(dp2125
g3
(lp2126
Vrt
p2127
aV@gizmodo
p2128
aV:
aV.
aV@bostondynamics
p2129
aV'
aVrobo-dogs
p2130
aVpulling
p2131
aVsanta's
p2132
aVsleigh
p2133
aVis
p2134
aVa
aVterrifying
p2135
aVglimpse
p2136
aVof
p2137
aVthe
p2138
aVfuture
p2139
aVhttps://t.co/9n0exr5m8l
p2140
aVhttps://t.co/
p2141
aV\u2026
asg14
g15
(S'\x07\xdf\x0c\x16\x17;-\x00\x00\x00'
tRp2142
sg17
Nsg18
Vmiradu
p2143
sa(dp2144
g3
(lp2145
Vthanks
p2146
aV#amexgift
p2147
asg14
g15
(S'\x07\xdf\x0c\x16\x13!\x18\x00\x00\x00'
tRp2148
sg17
Nsg18
Vmiradu
p2149
sa(dp2150
g3
(lp2151
V@lessachu
p2152
aVyou're
p2153
aVin
p2154
aVchasing
p2155
aVmai
p2156
aV!
aV?
aV!
aVplease
p2157
aVmake
p2158
aVsure
p2159
aVto
p2160
aVgo
p2161
aVto
p2162
aVsp
p2163
aVchicken
p2164
aV.
aVequally
p2165
aVas
p2166
aVgood
p2167
aVas
p2168
aVkhao
p2169
aVsoi
p2170
aV:)
p2171
asg14
g15
(S'\x07\xdf\x0c\x16\x05\x002\x00\x00\x00'
tRp2172
sg17
Nsg18
Vmiradu
p2173
sa(dp2174
g3
(lp2175
V@sayrer
p2176
aV@jco
p2177
aValternatively
p2178
aVthey
p2179
aVturn
p2180
aVinto
p2181
aVan
p2182
aVapartment
p2183
aVand
p2184
aVyou
p2185
aVare
p2186
aVmore
p2187
aVcomfortable
p2188
aVin
p2189
aVthem
p2190
aVthen
p2191
aVwherever
p2192
aVyou're
p2193
aVgoing
p2194
asg14
g15
(S'\x07\xdf\x0c\x16\x03:7\x00\x00\x00'
tRp2195
sg17
Nsg18
Vmiradu
p2196
sa(dp2197
g3
(lp2198
V@sayrer
p2199
aV@jco
p2200
aVself
p2201
aVdriving
p2202
aVcars
p2203
aVmight
p2204
aVbegat
p2205
aVeven
p2206
aVworse
p2207
aVsuburbia
p2208
aV\U0001f630
asg14
g15
(S'\x07\xdf\x0c\x16\x0382\x00\x00\x00'
tRp2209
sg17
Nsg18
Vmiradu
p2210
sa(dp2211
g3
(lp2212
V@sayrer
p2213
aV@jco
p2214
aVthat
p2215
aVis
p2216
aVtrue
p2217
aV.
aVi
aVjust
p2218
aVdon't
p2219
aVwant
p2220
aVto
p2221
aVreturn
p2222
aVto
p2223
aVa
aVworld
p2224
aVof
p2225
aVsurburban
p2226
aVoffice
p2227
aVcampuses
p2228
aV.
aVbuilding
p2229
aVnew
p2230
aVthings
p2231
aVbelongs
p2232
aVin
p2233
aVcity
p2234
aVcenters
p2235
asg14
g15
(S'\x07\xdf\x0c\x16\x036\x1a\x00\x00\x00'
tRp2236
sg17
Nsg18
Vmiradu
p2237
sa(dp2238
g3
(lp2239
V@sayrer
p2240
aV@jco
p2241
aVthat's
p2242
aVsad
p2243
aVto
p2244
aVthink
p2245
aVabout
p2246
aV:(
p2247
aVsf
p2248
aVcould
p2249
aVbe
p2250
aVone
p2251
aVof
p2252
aVthe
p2253
aVworld's
p2254
aVgreat
p2255
aVcities
p2256
asg14
g15
(S'\x07\xdf\x0c\x16\x034\x1f\x00\x00\x00'
tRp2257
sg17
Nsg18
Vmiradu
p2258
sa(dp2259
g3
(lp2260
V@jco
p2261
aV@sayrer
p2262
aVpretty
p2263
aVsure
p2264
aVit's
p2265
aVnot
p2266
aVed
p2267
aVlee
p2268
aVthat's
p2269
aVthe
p2270
aVproblems
p2271
aVbut
p2272
aVthe
p2273
aVnimby
p2274
aVneighborhood
p2275
aVgroups
p2276
aVand
p2277
aVtenants
p2278
aVunions
p2279
aV.
aV.
aV.
asg14
g15
(S'\x07\xdf\x0c\x16\x0325\x00\x00\x00'
tRp2280
sg17
Nsg18
Vmiradu
p2281
sa(dp2282
g3
(lp2283
V@jco
p2284
aV@sayrer
p2285
aVserious
p2286
aV,
aVlet's
p2287
aVsolve
p2288
aVour
p2289
aVhousing
p2290
aVcrisis
p2291
aV.
aVbuild
p2292
aVdensity
p2293
aVnext
p2294
aVto
p2295
aVtransit
p2296
aV.
asg14
g15
(S'\x07\xdf\x0c\x16\x031\x1a\x00\x00\x00'
tRp2297
sg17
Nsg18
Vmiradu
p2298
sa(dp2299
g3
(lp2300
V@jco
p2301
aV@sayrer
p2302
aVsure
p2303
aVif
p2304
aVwe
p2305
aVbuilt
p2306
aVmoar
p2307
aVhousing
p2308
aVand
p2309
aVmoar
p2310
aVpublic
p2311
aVtransit
p2312
aVand
p2313
aVmoar
p2314
aVskyscrapers
p2315
aV!
asg14
g15
(S'\x07\xdf\x0c\x16\x030\x0c\x00\x00\x00'
tRp2316
sg17
Nsg18
Vmiradu
p2317
sa(dp2318
g3
(lp2319
Vrt
p2320
aV@elonmusk
p2321
aV:
aVlive
p2322
aVvideo
p2323
aVfrom
p2324
aVlz
p2325
aV-
aV1
aVhttps://t.co/ve6gexfodh
p2326
asg14
g15
(S'\x07\xdf\x0c\x16\x03.\x19\x00\x00\x00'
tRp2327
sg17
Nsg18
Vmiradu
p2328
sa(dp2329
g3
(lp2330
V@backlon
p2331
aVno
p2332
aVspoilers
p2333
aVplease
p2334
asg14
g15
(S'\x07\xdf\x0c\x16\x01.\x11\x00\x00\x00'
tRp2335
sg17
Nsg18
Vmiradu
p2336
sa(dp2337
g3
(lp2338
Vrt
p2339
aV@spacex
p2340
aV:
aVthe
p2341
aVfalcon
p2342
aV9
aVfirst
p2343
aVstage
p2344
aVlanding
p2345
aVis
p2346
aVconfirmed
p2347
aV.
aVsecond
p2348
aVstage
p2349
aVcontinuing
p2350
aVnominally
p2351
aV.
aVhttps://t.co/rx2qksl0z7
p2352
asg14
g15
(S'\x07\xdf\x0c\x16\x01)\x01\x00\x00\x00'
tRp2353
sg17
Nsg18
Vmiradu
p2354
sa(dp2355
g3
(lp2356
Vto
p2357
aVwork
p2358
aVso
p2359
aVhard
p2360
aVon
p2361
aVa
aVdream
p2362
aVfor
p2363
aVso
p2364
aVmany
p2365
aVyears
p2366
aVand
p2367
aVfail
p2368
aVso
p2369
aVmany
p2370
aVtimes
p2371
aV,
aVpublicly
p2372
aV,
aVand
p2373
aVthen
p2374
aVfinally
p2375
aVsucceed
p2376
aV.
aV#spacex
p2377
asg14
g15
(S'\x07\xdf\x0c\x16\x01(\x19\x00\x00\x00'
tRp2378
sg17
Nsg18
Vmiradu
p2379
sa(dp2380
g3
(lp2381
Vholy
p2382
aVwow
p2383
aV#spacex
p2384
asg14
g15
(S"\x07\xdf\x0c\x16\x01'+\x00\x00\x00"
tRp2385
sg17
Nsg18
Vmiradu
p2386
sa(dp2387
g3
(lp2388
V@miradu
p2389
aVit's
p2390
aVso
p2391
aVcool
p2392
aVto
p2393
aVwatch
p2394
aVthis
p2395
aVlive
p2396
aV.
aVthank
p2397
aVyou
p2398
aV@elonmusk
p2399
aVand
p2400
aV@spacex
p2401
aV(
aV!
aV)
asg14
g15
(S'\x07\xdf\x0c\x16\x01!\x08\x00\x00\x00'
tRp2402
sg17
Nsg18
Vmiradu
p2403
sa(dp2404
g3
(lp2405
Vt
aVminus
p2406
aV1
aVminute
p2407
aVfor
p2408
aVspacex
p2409
aVlaunch
p2410
aV#livenow
p2411
aVhttps://t.co/kwryzlbinq
p2412
asg14
g15
(S'\x07\xdf\x0c\x16\x01\x1c,\x00\x00\x00'
tRp2413
sg17
Nsg18
Vmiradu
p2414
sa(dp2415
g3
(lp2416
Vi'm
p2417
aVlate
p2418
aVto
p2419
aVthis
p2420
aV,
aVbut
p2421
aV@kayvz
p2422
aVwas
p2423
aVabsolutely
p2424
aVawesome
p2425
aVon
p2426
aVstephen
p2427
aVcolbert
p2428
aV:
aVhttps://t.co/lq9o0ntyn1
p2429
asg14
g15
(S'\x07\xdf\x0c\x15\x13\x1d9\x00\x00\x00'
tRp2430
sg17
Nsg18
Vmiradu
p2431
sa(dp2432
g3
(lp2433
Vrt
p2434
aV@mrcs
p2435
aV:
aVenjoying
p2436
aVsanta
p2437
aVmonica
p2438
aVwith
p2439
aVthis
p2440
aVguy
p2441
aV.
aVhttps://t.co/yswo8es5mu
p2442
asg14
g15
(S'\x07\xdf\x0c\x14\x17\x1a \x00\x00\x00'
tRp2443
sg17
Nsg18
Vmiradu
p2444
sa(dp2445
g3
(lp2446
V@backlon
p2447
aV@wsj
p2448
aVthat's
p2449
aVit
p2450
aV,
aVwine
p2451
aVis
p2452
aVover
p2453
asg14
g15
(S'\x07\xdf\x0c\x14\x11\x14\x02\x00\x00\x00'
tRp2454
sg17
Nsg18
Vmiradu
p2455
sa(dp2456
g3
(lp2457
Vhello
p2458
aVla
p2459
aV!
aVhttps://t.co/sfcpongote
p2460
asg14
g15
(S'\x07\xdf\x0c\x13\x12\x106\x00\x00\x00'
tRp2461
sg17
Nsg18
Vmiradu
p2462
sa(dp2463
g3
(lp2464
Vso
p2465
aVif
p2466
aVyou
p2467
aVhaven't
p2468
aVseen
p2469
aV#disgraced
p2470
aVat
p2471
aV@berkeleyrep
p2472
aVyou
p2473
aVhave
p2474
aVanother
p2475
aVweek
p2476
aVto
p2477
aVsee
p2478
aVit
p2479
aV-
aV-
aVvery
p2480
aVgood
p2481
aVemotionally
p2482
aVintense
p2483
aV,
aVmodern
p2484
aVtheater
p2485
asg14
g15
(S'\x07\xdf\x0c\x13\x06\x19.\x00\x00\x00'
tRp2486
sg17
Nsg18
Vmiradu
p2487
sa(dp2488
g3
(lp2489
Vrt
p2490
aV@carolinesinders
p2491
aV:
aVone
p2492
aVof
p2493
aVthe
p2494
aVmost
p2495
aVintense
p2496
aV,
aVtroubling
p2497
aV,
aVand
p2498
aVwell
p2499
aVdone
p2500
aVpieces
p2501
aVyou
p2502
aVwill
p2503
aVread
p2504
aVall
p2505
aVyear
p2506
aVabout
p2507
aVrape
p2508
aVand
p2509
aVrape
p2510
aVreportings
p2511
aV.
aVhttps
p2512
aV\u2026
asg14
g15
(S'\x07\xdf\x0c\x13\x03\x1d\x06\x00\x00\x00'
tRp2513
sg17
Nsg18
Vmiradu
p2514
sa(dp2515
g3
(lp2516
Vrt
p2517
aV@twitteritalia
p2518
aV:
aVil
p2519
aVteam
p2520
aV@twitteritalia
p2521
aVcanta
p2522
aV(
aVmale
p2523
aVma
p2524
aVdi
p2525
aVcuore
p2526
aV)
aV#lastchristmas
p2527
aV.
aVper
p2528
aVogni
p2529
aVrt
p2530
aV,
aVdoneremo
p2531
aV\u20ac
aV1
aValla
p2532
aVonlus
p2533
aV@fllisfrancesco
p2534
aV.
aVhtt
p2535
aV\u2026
asg14
g15
(S'\x07\xdf\x0c\x13\x01\x13.\x00\x00\x00'
tRp2536
sg17
Nsg18
Vmiradu
p2537
sa(dp2538
g3
(lp2539
Vrt
p2540
aV@trivia_scope
p2541
aV:
aVlive
p2542
aVon
p2543
aV#periscope
p2544
aV:
aVepisode
p2545
aViii
p2546
aVhttps://t.co/7onncysohi
p2547
asg14
g15
(S'\x07\xdf\x0c\x12\x15\x19-\x00\x00\x00'
tRp2548
sg17
Nsg18
Vmiradu
p2549
sa(dp2550
g3
(lp2551
Vso
p2552
aVcool
p2553
aVto
p2554
aVsee
p2555
aVthe
p2556
aVpace
p2557
aVof
p2558
aVinnovation
p2559
aVat
p2560
aV#hackweek
p2561
aV!
asg14
g15
(S'\x07\xdf\x0c\x12\x14\x072\x00\x00\x00'
tRp2562
sg17
Nsg18
Vmiradu
p2563
sa(dp2564
g3
(lp2565
Voh
p2566
aV:
aV"
aVdo
p2567
aVyou
p2568
aVhave
p2569
aVanything
p2570
aVbetter
p2571
aVto
p2572
aVdo
p2573
aV?
aV"
aV"
aVthen
p2574
aVtroll
p2575
aVyou
p2576
aV?
aVhaha
p2577
aV,
aVno
p2578
aV"
asg14
g15
(S'\x07\xdf\x0c\x12\x126.\x00\x00\x00'
tRp2579
sg17
Nsg18
Vmiradu
p2580
sa(dp2581
g3
(lp2582
V@mikeyk
p2583
aVwhat
p2584
aVis
p2585
aV"
aVlove
p2586
aV"
asg14
g15
(S'\x07\xdf\x0c\x12\x11\x13"\x00\x00\x00'
tRp2587
sg17
Nsg18
Vmiradu
p2588
sa(dp2589
g3
(lp2590
Vrt
p2591
aV@benrito
p2592
aV:
aVindictment
p2593
aVof
p2594
aV@mit
p2595
aVand
p2596
aVits
p2597
aVpersistent
p2598
aVfailure
p2599
aVto
p2600
aVprotect
p2601
aVstudents
p2602
aV\u2014
aV@starsandrobots
p2603
aVreflects
p2604
aVon
p2605
aV2007
p2606
aVgunpoint
p2607
aVarrest
p2608
aVhttps://t.
p2609
aV\u2026
asg14
g15
(S'\x07\xdf\x0c\x12\x08+\x0f\x00\x00\x00'
tRp2610
sg17
Nsg18
Vmiradu
p2611
sa(dp2612
g3
(lp2613
Vrt
p2614
aV@twitterdev
p2615
aV:
aVnew
p2616
aVon
p2617
aVhttps://t.co/wd8tsexkwe,
p2618
aVcustomize
p2619
aVyour
p2620
aVembedded
p2621
aVgrid
p2622
aVto
p2623
aVdisplay
p2624
aVexactly
p2625
aVthe
p2626
aVright
p2627
aVnumber
p2628
aVof
p2629
aVtweets
p2630
aVfor
p2631
aVyour
p2632
aVsite
p2633
aV.
aVh
aV\u2026
asg14
g15
(S'\x07\xdf\x0c\x12\x003;\x00\x00\x00'
tRp2634
sg17
Nsg18
Vmiradu
p2635
sa(dp2636
g3
(lp2637
V@ltm
p2638
aVwhat
p2639
aVabout
p2640
aVthe
p2641
aVnew
p2642
aVone
p2643
aV?
asg14
g15
(S'\x07\xdf\x0c\x11\x173\x08\x00\x00\x00'
tRp2644
sg17
Nsg18
Vmiradu
p2645
sa(dp2646
g3
(lp2647
V@ryanoneill
p2648
aVwhat
p2649
aVabout
p2650
aVthe
p2651
aVnew
p2652
aVone
p2653
aV?
asg14
g15
(S'\x07\xdf\x0c\x11\x1728\x00\x00\x00'
tRp2654
sg17
Nsg18
Vmiradu
p2655
sa(dp2656
g3
(lp2657
Vwhen
p2658
aVdoes
p2659
aVstar
p2660
aVwars
p2661
aVcome
p2662
aVout
p2663
aV?
asg14
g15
(S'\x07\xdf\x0c\x11\x17-$\x00\x00\x00'
tRp2664
sg17
Nsg18
Vmiradu
p2665
sa(dp2666
g3
(lp2667
V@justmadhu
p2668
aV@jzaslav
p2669
aVnot
p2670
aVshameful
p2671
aVat
p2672
aVall
p2673
aV.
aVand
p2674
aVyou
p2675
aVmissed
p2676
aVthe
p2677
aVimportant
p2678
aVones
p2679
aV:
asg14
g15
(S'\x07\xdf\x0c\x11\x16\x12-\x00\x00\x00'
tRp2680
sg17
Nsg18
Vmiradu
p2681
sa(dp2682
g3
(lp2683
V@__dave
p2684
aV@chartio
p2685
aVlooks
p2686
aVgreat
p2687
aV!
asg14
g15
(S'\x07\xdf\x0c\x11\x15-2\x00\x00\x00'
tRp2688
sg17
Nsg18
Vmiradu
p2689
sa(dp2690
g3
(lp2691
V@mdb
p2692
aV@itstalitime
p2693
aVmark
p2694
aV,
aVi'd
p2695
aVappreciate
p2696
aVif
p2697
aVyou
p2698
aVtweeted
p2699
aVin
p2700
aVlyric
p2701
aV,
aVnext
p2702
aVtime
p2703
aV.
asg14
g15
(S'\x07\xdf\x0c\x11\x02&%\x00\x00\x00'
tRp2704
sg17
Nsg18
Vmiradu
p2705
sa(dp2706
g3
(lp2707
Vplant
p2708
aVme
p2709
aV!
aVthanks
p2710
aV@blueapron
p2711
aVhttps://t.co/wcz3rrh4ci
p2712
asg14
g15
(S'\x07\xdf\x0c\x10\x0597\x00\x00\x00'
tRp2713
sg17
Nsg18
Vmiradu
p2714
sa(dp2715
g3
(lp2716
Vrt
p2717
aV@hillaryclinton
p2718
aV:
aVthe
p2719
aVcandidates
p2720
aVon
p2721
aVstage
p2722
aVtalk
p2723
aVtough
p2724
aV\u2014
aVbut
p2725
aVthey
p2726
aVwon't
p2727
aVeven
p2728
aVsupport
p2729
aVlegislation
p2730
aVpreventing
p2731
aVsuspected
p2732
aVterrorists
p2733
aVfrom
p2734
aVgetting
p2735
aV\u2026
asg14
g15
(S'\x07\xdf\x0c\x10\x047\x01\x00\x00\x00'
tRp2736
sg17
Nsg18
Vmiradu
p2737
sa(dp2738
g3
(lp2739
V@buster
p2740
aVthat's
p2741
aVawesome
p2742
aV,
aVcongratulations
p2743
aV!
asg14
g15
(S'\x07\xdf\x0c\x10\x0252\x00\x00\x00'
tRp2744
sg17
Nsg18
Vmiradu
p2745
sa(dp2746
g3
(lp2747
Vcongrats
p2748
aV@joannauk
p2749
aV@justmadhu
p2750
aV@magicandrew
p2751
aV\u26a1
aV\ufe0f
aV\u26a1
aV\ufe0f
aV\u26a1
aV\ufe0f
asg14
g15
(S'\x07\xdf\x0c\x0f\x0f\x1e/\x00\x00\x00'
tRp2752
sg17
Nsg18
Vmiradu
p2753
sa(dp2754
g3
(lp2755
V@erducker
p2756
aVi
aVinvited
p2757
aVyou
p2758
aVto
p2759
aV@producthunt
p2760
aV,
aVa
aVcommunity
p2761
aVof
p2762
aVproduct-loving
p2763
aVfolks
p2764
aV.
aVjoin
p2765
aVhere
p2766
aV:
aVhttps://t.co/bmgbngkazh
p2767
asg14
g15
(S'\x07\xdf\x0c\x0f\x01\x0e*\x00\x00\x00'
tRp2768
sg17
Nsg18
Vmiradu
p2769
sa(dp2770
g3
(lp2771
V@mikeindustries
p2772
aVcongrats
p2773
aV!
aV!
aV!
aVand
p2774
aVthank
p2775
aVyou
p2776
aV!
aVwe
p2777
aVhave
p2778
aVa
aVlot
p2779
aVto
p2780
aVlearn
p2781
aVfrom
p2782
aVyour
p2783
aVleadership
p2784
aV\U0001f60d
aV\U0001f60d
aV\U0001f60d
asg14
g15
(S'\x07\xdf\x0c\x0f\x00\x04\x02\x00\x00\x00'
tRp2785
sg17
Nsg18
Vmiradu
p2786
sa(dp2787
g3
(lp2788
V@tomcoates
p2789
aVswitch
p2790
aVto
p2791
aV@doorman
p2792
aV?
asg14
g15
(S'\x07\xdf\x0c\x0e\x15\x1b\x1c\x00\x00\x00'
tRp2793
sg17
Nsg18
Vmiradu
p2794
sa(dp2795
g3
(lp2796
V@andypiper
p2797
aVnone
p2798
aVof
p2799
aVthose
p2800
aVbricks
p2801
aVare
p2802
aVlisted
p2803
aVon
p2804
aVbrickset
p2805
aV,
aVare
p2806
aVyou
p2807
aVsure
p2808
aVthey're
p2809
aVreal
p2810
aV?
asg14
g15
(S'\x07\xdf\x0c\x0e\x13\r8\x00\x00\x00'
tRp2811
sg17
Nsg18
Vmiradu
p2812
sa(dp2813
g3
(lp2814
Vrt
p2815
aV@allendowney
p2816
aV:
aVan
p2817
aVexcellent
p2818
aVpost
p2819
aVfrom
p2820
aVrick
p2821
aVmiller
p2822
aV,
aVpresident
p2823
aVof
p2824
aVolin
p2825
aVcollege
p2826
aV:
aVhttps://t.co/baxmw09qoy
p2827
asg14
g15
(S'\x07\xdf\x0c\x0e\x10*\x08\x00\x00\x00'
tRp2828
sg17
Nsg18
Vmiradu
p2829
sa(dp2830
g3
(lp2831
Vpaging
p2832
aV@coolasspuppy
p2833
aVhttps://t.co/fyegkrzy9c
p2834
asg14
g15
(S'\x07\xdf\x0c\x0e\x10\x00\r\x00\x00\x00'
tRp2835
sg17
Nsg18
Vmiradu
p2836
sa(dp2837
g3
(lp2838
V@psyfe
p2839
aV@meat
p2840
aVthey
p2841
aVused
p2842
aVto
p2843
aVsell
p2844
aVit
p2845
aVstateside
p2846
aVat
p2847
aVsafeway
p2848
aV.
aV.
aVhaven't
p2849
aVseen
p2850
aVit
p2851
aVin
p2852
aVyears
p2853
aVthough
p2854
asg14
g15
(S'\x07\xdf\x0c\x0e\x0f06\x00\x00\x00'
tRp2855
sg17
Nsg18
Vmiradu
p2856
sa(dp2857
g3
(lp2858
V@tjlull
p2859
aVand
p2860
aVi'm
p2861
aVrose
p2862
aV!
aV!
aV!
aV\U0001f339
aV\U0001f339
aV\U0001f339
asg14
g15
(S'\x07\xdf\x0c\x0e\x04\x1f\x12\x00\x00\x00'
tRp2863
sg17
Nsg18
Vmiradu
p2864
sa(dp2865
g3
(lp2866
Va
aVsan
p2867
aVfrancisco
p2868
aVholiday
p2869
aVtradition
p2870
aV!
aVhttps://t.co/qtwocs8qhj
p2871
asg14
g15
(S'\x07\xdf\x0c\x0e\x025"\x00\x00\x00'
tRp2872
sg17
Nsg18
Vmiradu
p2873
sa.