(lp1
(dp2
S'text'
p3
(lp4
Vrt
p5
aV@henryevil
p6
aV:
aVthis
p7
aVis
p8
aVtoo
p9
aVbeautiful
p10
aVto
p11
aVexist
p12
aVhttps://t.co/4wthedfs8a
p13
asS'created_at'
p14
cdatetime
datetime
p15
(S'\x07\xe0\x01\x18\x02\x0f9\x00\x00\x00'
tRp16
sS'lat/long'
p17
Nsa(dp18
g3
(lp19
V@nealab
p20
aVgotta
p21
aVat
p22
aVleast
p23
aVwait
p24
aVuntil
p25
aVi'm
p26
aVnot
p27
aVsick
p28
asg14
g15
(S'\x07\xe0\x01\x17\x0f9:\x00\x00\x00'
tRp29
sg17
Nsa(dp30
g3
(lp31
V@vijayp
p32
aV@elbloombito
p33
aVyou
p34
aVdon't
p35
aVworry
p36
aVhe'd
p37
aVsplit
p38
aVthe
p39
aVleft
p40
aVvote
p41
aVand
p42
aVcause
p43
aVa
aVtrump
p44
aVwin
p45
aV?
asg14
g15
(S'\x07\xe0\x01\x17\x0f 5\x00\x00\x00'
tRp46
sg17
Nsa(dp47
g3
(lp48
Vrt
p49
aV@smithsonian
p50
aV:
aVtian
p51
aVtian
p52
aV,
aVgiant
p53
aVpanda
p54
aVat
p55
aVour
p56
aV@nationalzoo
p57
aV,
aVdoes
p58
aV#snowzilla
p59
aVbetter
p60
aVthan
p61
aVall
p62
aVof
p63
aVus
p64
aV#blizzard2016
p65
aVhttps://t.co/6lxhxqf9qx
p66
asg14
g15
(S'\x07\xe0\x01\x17\x0f\x1b\x10\x00\x00\x00'
tRp67
sg17
Nsa(dp68
g3
(lp69
Vi
aVcould
p70
aVeat
p71
aVa
aVsolid
p72
aVpint
p73
aVof
p74
aVice
p75
aVcream
p76
aVright
p77
aVnow
p78
asg14
g15
(S'\x07\xe0\x01\x17\x034\x16\x00\x00\x00'
tRp79
sg17
Nsa(dp80
g3
(lp81
Vthis
p82
aVwinter
p83
aVi
aVdidn't
p84
aVget
p85
aVa
aVflu
p86
aVshot
p87
aVand
p88
aVi'm
p89
aVwatching
p90
aVmyself
p91
aVget
p92
aVsick
p93
aVevery
p94
aVsingle
p95
aVtime
p96
aVi
aVtravel
p97
aV.
aVnext
p98
aVyear
p99
aV,
aVget
p100
aVa
aVflu
p101
aVshot
p102
aV!
asg14
g15
(S'\x07\xe0\x01\x17\x02,5\x00\x00\x00'
tRp103
sg17
Nsa(dp104
g3
(lp105
V@mollie
p106
aV@jstpierre
p107
aV@kogibbq
p108
aV@lacma
p109
aVhuge
p110
aVfan
p111
aVof
p112
aVmuseum
p113
aVof
p114
aVjurassic
p115
aVtechnology
p116
asg14
g15
(S'\x07\xe0\x01\x17\x00&\x04\x00\x00\x00'
tRp117
sg17
Nsa(dp118
g3
(lp119
Vus
p120
aVflight
p121
aVcancellations
p122
aVfor
p123
aVtomorrow
p124
aVare
p125
aVup
p126
aVto
p127
aV3,784
p128
aV(
aVtoday
p129
aVhad
p130
aV3,042
p131
aV)
aVhttps://t.co/rjrxjg3s7c
p132
asg14
g15
(S'\x07\xe0\x01\x17\x00$3\x00\x00\x00'
tRp133
sg17
Nsa(dp134
g3
(lp135
V@sashduck
p136
aV@gsducker
p137
aVreply
p138
aVto
p139
aVit
p140
aVor
p141
aVretweet
p142
aVwith
p143
aVcomment
p144
aV(
aVpress
p145
aVretweet
p146
aVand
p147
aVthen
p148
aVchoose
p149
aVcomment
p150
aV)
asg14
g15
(S'\x07\xe0\x01\x16\x177,\x00\x00\x00'
tRp151
sg17
Nsa(dp152
g3
(lp153
V@ravenize
p154
aVyou
p155
aVgotta
p156
aVjust
p157
aVswitch
p158
aVto
p159
aVusing
p160
aV@shyp
p161
asg14
g15
(S'\x07\xe0\x01\x16\x17(4\x00\x00\x00'
tRp162
sg17
Nsa(dp163
g3
(lp164
V@backlon
p165
aVdieter
p166
asg14
g15
(S'\x07\xe0\x01\x16\x15)\x1c\x00\x00\x00'
tRp167
sg17
Nsa(dp168
g3
(lp169
Vrt
p170
aV@kpk
p171
aV:
aVtwitter's
p172
aVhiring
p173
aVweb
p174
aVengineers
p175
aVin
p176
aVsf
p177
aV.
aVlooking
p178
aVfor
p179
aVall
p180
aVlevels
p181
aV,
aVbut
p182
aVweb
p183
aVexperience
p184
aVrequired
p185
aV.
aVhttps://t.co/rutuepdphk
p186
asg14
g15
(S'\x07\xe0\x01\x16\x14\x0e\x19\x00\x00\x00'
tRp187
sg17
Nsa(dp188
g3
(lp189
V@mdp
p190
aVpizza
p191
aVrolls
p192
aV.
aVcan
p193
aVwe
p194
aVhave
p195
aVpizza
p196
aVrolls
p197
aVon
p198
aVthe
p199
aVblock
p200
aVgain
p201
aV?
asg14
g15
(S'\x07\xe0\x01\x16\x13\x18\x17\x00\x00\x00'
tRp202
sg17
Nsa(dp203
g3
(lp204
V@coops
p205
aV@davidbellona
p206
aV\U0001f914
aV\U0001f917
asg14
g15
(S'\x07\xe0\x01\x16\x0e\x11.\x00\x00\x00'
tRp207
sg17
Nsa(dp208
g3
(lp209
Vrt
p210
aV@tashwong
p211
aV:
aVbuilding
p212
aV@coastermatic
p213
aVwas
p214
aVgreat
p215
aV,
aVnow
p216
aVit's
p217
aVtime
p218
aVfor
p219
aVa
aVnew
p220
aVadventure
p221
aV.
aVlooking
p222
aVfor
p223
aVa
aVdesigner
p224
aVor
p225
aVpm
p226
aV?
aVsay
p227
aVhi
p228
aV,
aVhttps://t.co/jbxjv
p229
aV\u2026
asg14
g15
(S'\x07\xe0\x01\x16\x04/\x13\x00\x00\x00'
tRp230
sg17
Nsa(dp231
g3
(lp232
V@mollie
p233
aVthe
p234
aVsax
p235
aVis
p236
aVback
p237
aV!
aV?
aV?
aV!
aV!
aVso
p238
aVjealous
p239
asg14
g15
(S'\x07\xe0\x01\x16\x04-\x0b\x00\x00\x00'
tRp240
sg17
Nsa(dp241
g3
(lp242
V@chrismpls
p243
aV@tpducker
p244
aV\U0001f64f
asg14
g15
(S'\x07\xe0\x01\x16\x04\x18)\x00\x00\x00'
tRp245
sg17
Nsa(dp246
g3
(lp247
V@chrismpls
p248
aVwhere
p249
aVdoes
p250
aV@tpducker
p251
aVget
p252
aVhis
p253
aVtickets
p254
aV?
asg14
g15
(S'\x07\xe0\x01\x16\x04\x17\x15\x00\x00\x00'
tRp255
sg17
Nsa(dp256
g3
(lp257
V@danjackson415
p258
aVyou
p259
aVforgot
p260
aVto
p261
aVmention
p262
aV@wingwingssf
p263
asg14
g15
(S'\x07\xe0\x01\x16\x04\x13\x17\x00\x00\x00'
tRp264
sg17
Nsa(dp265
g3
(lp266
V@chrismpls
p267
aVwhere
p268
aVis
p269
aVthis
p270
aVand
p271
aVhow
p272
aVdo
p273
aVi
aVgo
p274
aV?
asg14
g15
(S'\x07\xe0\x01\x16\x04\x126\x00\x00\x00'
tRp275
sg17
Nsa(dp276
g3
(lp277
V@ericfrohnhoefer
p278
aVugh
p279
asg14
g15
(S'\x07\xe0\x01\x16\x03\x184\x00\x00\x00'
tRp280
sg17
Nsa(dp281
g3
(lp282
Vlove
p283
aVmy
p284
aVhome
p285
aVstate
p286
aVmaking
p287
aVthe
p288
aVnews
p289
aVhttps://t.co/tmetzvpmuj
p290
asg14
g15
(S'\x07\xe0\x01\x15\x17\x17\x1a\x00\x00\x00'
tRp291
sg17
Nsa(dp292
g3
(lp293
V@jzazove
p294
aVand
p295
aVtwitter
p296
aV!
asg14
g15
(S'\x07\xe0\x01\x15\x163\x00\x00\x00\x00'
tRp297
sg17
Nsa(dp298
g3
(lp299
V@jzazove
p300
aVit'd
p301
aVsolve
p302
aVan
p303
aVinteresting
p304
aVproblem
p305
aVon
p306
aVios
p307
aVfor
p308
aVsure
p309
aV.
aV.
aV.
aVreplace
p310
aVthe
p311
aVweird
p312
aVstatus
p313
aVbar
p314
aVhalf
p315
aVbutton
p316
asg14
g15
(S'\x07\xe0\x01\x15\x16/\x0e\x00\x00\x00'
tRp317
sg17
Nsa(dp318
g3
(lp319
V@thisguy
p320
aVcan't
p321
aVwait
p322
aVto
p323
aVhear
p324
aVwhat
p325
aVyou
p326
aVlearned
p327
aV!
asg14
g15
(S'\x07\xe0\x01\x15\x15\x1b5\x00\x00\x00'
tRp328
sg17
Nsa(dp329
g3
(lp330
V@bring_me_cheese
p331
aVjjjjjjjjjiff
p332
asg14
g15
(S'\x07\xe0\x01\x15\x145\x1a\x00\x00\x00'
tRp333
sg17
Nsa(dp334
g3
(lp335
Vrt
p336
aV@theeconomist
p337
aV:
aVglobal
p338
aVmarkets
p339
aVtumble
p340
aV.
aVwe
p341
aVexplain
p342
aVhow
p343
aVit
p344
aVcould
p345
aVaffect
p346
aVyou
p347
aV@twittermoments
p348
aVhttps://t.co/qxph16epot
p349
asg14
g15
(S'\x07\xe0\x01\x15\x12(+\x00\x00\x00'
tRp350
sg17
Nsa(dp351
g3
(lp352
V@backlon
p353
aVnespresso
p354
aV+
aV@hilinecoffee
p355
aVpods
p356
aVis
p357
aVeven
p358
aVbetter
p359
asg14
g15
(S'\x07\xe0\x01\x15\x0e\x06\x06\x00\x00\x00'
tRp360
sg17
Nsa(dp361
g3
(lp362
V@r2r
p363
aVno
p364
aV,
aVit's
p365
aVin
p366
aVsf
p367
aV,
aVjust
p368
aVmanaging
p369
aVclosing
p370
aVfrom
p371
aVafar
p372
asg14
g15
(S'\x07\xe0\x01\x15\x01\x05\x06\x00\x00\x00'
tRp373
sg17
Nsa(dp374
g3
(lp375
V@mattlotusturbo
p376
aVi
aVleft
p377
aVmy
p378
aVtreo
p379
aV180
p380
aVat
p381
aVhome
p382
aV:(
p383
asg14
g15
(S'\x07\xe0\x01\x14\x17\x06\x12\x00\x00\x00'
tRp384
sg17
Nsa(dp385
g3
(lp386
V@jeremysf
p387
aV@teslamotors
p388
aV\U0001f633
aV\U0001f6a8
asg14
g15
(S'\x07\xe0\x01\x14\x163\x1f\x00\x00\x00'
tRp389
sg17
Nsa(dp390
g3
(lp391
V@jcasts
p392
aVnopa
p393
aV!
asg14
g15
(S'\x07\xe0\x01\x14\x15)\x1d\x00\x00\x00'
tRp394
sg17
Nsa(dp395
g3
(lp396
V@mcgowan_kevin
p397
aVsf
p398
asg14
g15
(S'\x07\xe0\x01\x14\x15)\r\x00\x00\x00'
tRp399
sg17
Nsa(dp400
g3
(lp401
Vmajor
p402
aV\U0001f511
aVhttps://t.co/ythjzhdmcj
p403
asg14
g15
(S'\x07\xe0\x01\x14\x15\x1f3\x00\x00\x00'
tRp404
sg17
Nsa(dp405
g3
(lp406
V@danibro
p407
aV@twitterdev
p408
aV\U0001f44b
asg14
g15
(S'\x07\xe0\x01\x14\x13&\x06\x00\x00\x00'
tRp409
sg17
Nsa(dp410
g3
(lp411
Vrt
p412
aV@twitterdev
p413
aV:
aVannouncing
p414
aVour
p415
aV#helloworld
p416
aVtour
p417
aV-
aV-
aVjoin
p418
aVus
p419
aV!
aVhttps://t.co/m8zjgu7kpg
p420
aVhttps://t.co/ondoesih1o
p421
asg14
g15
(S'\x07\xe0\x01\x14\x13\x16:\x00\x00\x00'
tRp422
sg17
Nsa(dp423
g3
(lp424
Vhbd
p425
aV@mkruz
p426
asg14
g15
(S'\x07\xe0\x01\x14\x13\x14*\x00\x00\x00'
tRp427
sg17
Nsa(dp428
g3
(lp429
V@terronk
p430
aVno
p431
asg14
g15
(S'\x07\xe0\x01\x14\x04;*\x00\x00\x00'
tRp432
sg17
Nsa(dp433
g3
(lp434
Vrt
p435
aV@pdovak
p436
aV:
aVrefreshing
p437
aVseveral
p438
aVof
p439
aVmy
p440
aVolder
p441
aVprojects
p442
aV,
aVstarting
p443
aVwith
p444
aVone
p445
aVof
p446
aVmy
p447
aVmost
p448
aVpopular
p449
aV:
aVsubway
p450
aVicons
p451
aVhttps://t.co/zxjhml0php
p452
aVhttps://t.c
p453
aV\u2026
asg14
g15
(S'\x07\xe0\x01\x13\x0e+0\x00\x00\x00'
tRp454
sg17
Nsa(dp455
g3
(lp456
Vthis
p457
aVcan't
p458
aVwait
p459
aV,
aV@dickc
p460
aV'
aVs
aVgonna
p461
aVmake
p462
aVme
p463
aVfit
p464
aV!
aVhttps://t.co/miywvzd8jm
p465
asg14
g15
(S'\x07\xe0\x01\x13\x0e\x1f\x1f\x00\x00\x00'
tRp466
sg17
Nsa(dp467
g3
(lp468
Vrt
p469
aV@plateiq
p470
aV:
aV@plateiq
p471
aVis
p472
aVexcited
p473
aVto
p474
aVbe
p475
aVfeatured
p476
aVin
p477
aVjanuary's
p478
aVissue
p479
aVof
p480
aV@entrepreneur
p481
aVmagazine
p482
aV!
aVcheck
p483
aVout
p484
aVthe
p485
aVawesome
p486
aVwrite-up
p487
aVhttps://t.co/m
p488
aV\u2026
asg14
g15
(S'\x07\xe0\x01\x13\x01\x19\x07\x00\x00\x00'
tRp489
sg17
Nsa(dp490
g3
(lp491
V@morganmcentire
p492
aV@diegobandito
p493
aV!
asg14
g15
(S'\x07\xe0\x01\x12\x11\x03(\x00\x00\x00'
tRp494
sg17
Nsa(dp495
g3
(lp496
Vhi
p497
aVhttps://t.co/7q6ybadztg
p498
asg14
g15
(S'\x07\xe0\x01\x12\x101,\x00\x00\x00'
tRp499
sg17
Nsa(dp500
g3
(lp501
V@robdaemon
p502
aVspacex
p503
asg14
g15
(S"\x07\xe0\x01\x11\x125'\x00\x00\x00"
tRp504
sg17
Nsa(dp505
g3
(lp506
V@robdaemon
p507
aVwayyyyyy
p508
aVbetter
p509
asg14
g15
(S'\x07\xe0\x01\x11\x121#\x00\x00\x00'
tRp510
sg17
Nsa(dp511
g3
(lp512
Vyoutube
p513
aVapp
p514
aVon
p515
aVappletv
p516
aVcan
p517
aVstream
p518
aVspacex
p519
aVlive
p520
aVwebcast
p521
aVin
p522
aVhd
p523
aV\U0001f680
aV\U0001f4fa
asg14
g15
(S'\x07\xe0\x01\x11\x12\x1c.\x00\x00\x00'
tRp524
sg17
Nsa(dp525
g3
(lp526
V@meat
p527
aV@singy
p528
aVi
aVlike
p529
aVbears
p530
asg14
g15
(S'\x07\xe0\x01\x10\x16-"\x00\x00\x00'
tRp531
sg17
Nsa(dp532
g3
(lp533
Vairplanes
p534
aVneed
p535
aVbetter
p536
aVsound
p537
aVdesign
p538
aV.
aVwhat
p539
aVif
p540
aVeach
p541
aVairline
p542
aVhad
p543
aVa
aVunique
p544
aVdeparture
p545
aVand
p546
aVlanding
p547
aVchime
p548
aVala
p549
aVtrains
p550
aV?
aVi'd
p551
aVfeel
p552
aVmore
p553
aVjoy
p554
asg14
g15
(S'\x07\xe0\x01\x10\x16$\x02\x00\x00\x00'
tRp555
sg17
Nsa(dp556
g3
(lp557
V@pmorelli
p558
aVif
p559
aVfacetime
p560
aVcould
p561
aVbroadcast
p562
aVto
p563
aVthe
p564
aVworld
p565
aVand
p566
aVnot
p567
aVjust
p568
aV1
aV:
aV1
aV.
aV.
aV.
aV.
aV.
asg14
g15
(S'\x07\xe0\x01\x0f\x12&\x0e\x00\x00\x00'
tRp569
sg17
Nsa(dp570
g3
(lp571
V@wayne
p572
aV@pmarca
p573
aVwhy
p574
aVcan't
p575
aVa
aVperiscope
p576
aVor
p577
aVa
aVbreaking
p578
aVtwitter
p579
aVmoment
p580
aVget
p581
aVto
p582
aVring
p583
aV?
asg14
g15
(S'\x07\xe0\x01\x0f\x12$#\x00\x00\x00'
tRp584
sg17
Nsa(dp585
g3
(lp586
V@roooooland
p587
aV@twitterjp
p588
aVcastle
p589
aVin
p590
aVthe
p591
aVsky
p592
aVhttps://t.co/uwkmhcspqf
p593
asg14
g15
(S'\x07\xe0\x01\x0f\x0f\x0b\n\x00\x00\x00'
tRp594
sg17
Nsa(dp595
g3
(lp596
Vmaybe
p597
aVone
p598
aVof
p599
aVthe
p600
aVmost
p601
aVunique
p602
aVtwitter
p603
aVtraditions
p604
aVworldwide
p605
aV-
aVhappening
p606
aVin
p607
aV30
p608
aVminutes
p609
aV!
aVhttps://t.co/p1vyislqxg
p610
asg14
g15
(S'\x07\xe0\x01\x0f\r9\x19\x00\x00\x00'
tRp611
sg17
Nsa(dp612
g3
(lp613
V@bijan
p614
aV@thiswildidea
p615
aVi
aVshould
p616
aVhave
p617
aVjust
p618
aVsaid
p619
aV"
aVbest
p620
aV"
aV\U0001f609
aV(
aVseriously
p621
aVthough
p622
aVit's
p623
aVmagic
p624
aV)
asg14
g15
(S'\x07\xe0\x01\x0f\x00\x1b\x01\x00\x00\x00'
tRp625
sg17
Nsa(dp626
g3
(lp627
V@thiswildidea
p628
aV@bijan
p629
aVabsolute
p630
aVbest
p631
aVway
p632
aVto
p633
aVfind
p634
aVthe
p635
aVtrendiest
p636
aVplaces
p637
aVin
p638
aVevery
p639
aVcity
p640
aVyou
p641
aVvisit
p642
aVaround
p643
aVthe
p644
aVworld
p645
asg14
g15
(S'\x07\xe0\x01\x0f\x00\x04!\x00\x00\x00'
tRp646
sg17
Nsa(dp647
g3
(lp648
Vcongrats
p649
aV@dens
p650
aVon
p651
aVkeeping
p652
aV4
aVsq
p653
aVfunded
p654
aVto
p655
aVkeep
p656
aVon
p657
aVbuilding
p658
aV.
aVit's
p659
aVimpossible
p660
aVto
p661
aVtravel
p662
aVwithout
p663
aVwhat
p664
aVyou've
p665
aVbuilt
p666
aV!
asg14
g15
(S'\x07\xe0\x01\x0e\x17 \x1b\x00\x00\x00'
tRp667
sg17
Nsa(dp668
g3
(lp669
Vrt
p670
aV@amyzima
p671
aV:
aVwhen
p672
aVthe
p673
aVproduct
p674
aVyou
p675
aVwork
p676
aVon
p677
aVgets
p678
aVused
p679
aVon
p680
aVthe
p681
aVinternational
p682
aVspace
p683
aVstation
p684
aV.
aVwow
p685
aV!
aV#lovewhereyouwork
p686
aVhttps://t.co/hmmrbzwxua
p687
asg14
g15
(S'\x07\xe0\x01\x0e\x0f$"\x00\x00\x00'
tRp688
sg17
Nsa(dp689
g3
(lp690
V@mad_typist
p691
aV@twitter
p692
aV@twitteruk
p693
aVwe're
p694
aVsuper
p695
aVexcited
p696
aVto
p697
aVhave
p698
aVyou
p699
aV!
asg14
g15
(S'\x07\xe0\x01\x0e\x0f\x19$\x00\x00\x00'
tRp700
sg17
Nsa(dp701
g3
(lp702
V@scosman
p703
aVhow
p704
aVdo
p705
aVi
aVget
p706
aVthis
p707
asg14
g15
(S'\x07\xe0\x01\r\x16%\x06\x00\x00\x00'
tRp708
sg17
Nsa(dp709
g3
(lp710
Vlife
p711
aVpro
p712
aVtip
p713
aV:
aVdon't
p714
aVget
p715
aVfood
p716
aVpoisoning
p717
aVwhile
p718
aVtraveling
p719
aV.
aV\U0001f628
aV\U0001f4a9
aV\U0001f631
asg14
g15
(S'\x07\xe0\x01\x0c\x12:2\x00\x00\x00'
tRp720
sg17
Nsa(dp721
g3
(lp722
Vrt
p723
aV@crashlytics
p724
aV:
aVintroducing
p725
aVthe
p726
aVability
p727
aVto
p728
aVlog
p729
aVnserrors
p730
aV,
aVnow
p731
aVon
p732
aVthe
p733
aV#
aV1
aVcrash
p734
aVreporting
p735
aVsolution
p736
aV!
aVhttps://t.co/noaywssxop
p737
aV#mobiledev
p738
aVhttps
p739
aV:
aV\u2026
asg14
g15
(S'\x07\xe0\x01\x0c\x12\r2\x00\x00\x00'
tRp740
sg17
Nsa(dp741
g3
(lp742
V@joyding
p743
aVooo
p744
aV!
aVa
aVcouple
p745
aVtips
p746
aV:
aVbuy
p747
aVa
aVmicroplane
p748
aVas
p749
aVthey
p750
aVlike
p751
aVto
p752
aVuse
p753
aVzest
p754
aV,
aVdouble
p755
aVthe
p756
aVamount
p757
aVof
p758
aVspice
p759
aV/
aVgarlic
p760
aV,
aVhalve
p761
aVsugary
p762
aVingredients
p763
aV.
asg14
g15
(S"\x07\xe0\x01\n\x14'\x08\x00\x00\x00"
tRp764
sg17
Nsa(dp765
g3
(lp766
Vrt
p767
aV@rollingstone
p768
aV:
aVsean
p769
aVpenn
p770
aVrecounts
p771
aVhis
p772
aVsecret
p773
aVvisit
p774
aVwith
p775
aVel
p776
aVchapo
p777
aV,
aVmonths
p778
aVbefore
p779
aVthe
p780
aVdrug
p781
aVlord's
p782
aVrecapture
p783
aVhttps://t.co/onarmvr1tv
p784
aVhttps
p785
aV:
aV\u2026
asg14
g15
(S"\x07\xe0\x01\n\x05#'\x00\x00\x00"
tRp786
sg17
Nsa(dp787
g3
(lp788
V@caseynewton
p789
aV@waltmossberg
p790
aVthis
p791
aVwas
p792
aVsuper
p793
aVcute
p794
aV,
aV@backlon
p795
asg14
g15
(S'\x07\xe0\x01\x08\x17%\x01\x00\x00\x00'
tRp796
sg17
Nsa(dp797
g3
(lp798
V@estern
p799
aVi
aVhave
p800
aVone
p801
aVbut
p802
aVi
aVleft
p803
aVall
p804
aVmy
p805
aVcables
p806
aVin
p807
aVanother
p808
aVbag
p809
aV:(
p810
aVluckily
p811
aVi
aVfound
p812
aVa
aVdixons
p813
aVand
p814
aVgot
p815
aVfixed
p816
asg14
g15
(S'\x07\xe0\x01\x08\x17\x19\x01\x00\x00\x00'
tRp817
sg17
Nsa(dp818
g3
(lp819
V@couch
p820
aV@averycodes
p821
aVthat's
p822
aVa
aVdream
p823
aVcome
p824
aVtrue
p825
aV!
aVcongrats
p826
aV!
aV!
aV!
asg14
g15
(S'\x07\xe0\x01\x08\x14\r\x01\x00\x00\x00'
tRp827
sg17
Nsa(dp828
g3
(lp829
Vi
aVdidn't
p830
aVknow
p831
aV@adambain
p832
aVmoonlighted
p833
aVas
p834
aVa
aV@deltaassist
p835
aVagent
p836
aV-
aVno
p837
aVwonder
p838
aVtheir
p839
aVtwitter
p840
aVdm
p841
aVcustomer
p842
aVservice
p843
aVis
p844
aVso
p845
aVgood
p846
aV!
aVhttps://t.co/fngdpklbrw
p847
asg14
g15
(S'\x07\xe0\x01\x08\x10.\x1e\x00\x00\x00'
tRp848
sg17
Nsa(dp849
g3
(lp850
V@tostie
p851
aVfirst
p852
aVairport
p853
aVstore
p854
aVi
aVsee
p855
aVis
p856
aVgonna
p857
aVget
p858
aVan
p859
aVamazing
p860
aVcustomer
p861
asg14
g15
(S'\x07\xe0\x01\x08\x07\x1a)\x00\x00\x00'
tRp862
sg17
Nsa(dp863
g3
(lp864
Vcurrent
p865
aVstatus
p866
aV:
aVscared
p867
aV.
aVthis
p868
aVis
p869
aVall
p870
aVi
aVhave
p871
aVleft
p872
aV:
aVhttps://t.co/2ad9o3mgyr
p873
asg14
g15
(S'\x07\xe0\x01\x08\x07\x190\x00\x00\x00'
tRp874
sg17
Nsa(dp875
g3
(lp876
Vwell
p877
aVit
p878
aVfinally
p879
aVhappened
p880
aV.
aV.
aV.
aVi
aVleft
p881
aVon
p882
aVan
p883
aVinternational
p884
aVtrip
p885
aVwithout
p886
aVany
p887
aVof
p888
aVmy
p889
aVchargers
p890
aV.
aV\U0001f633
aV\U0001f633
aV\U0001f633
asg14
g15
(S'\x07\xe0\x01\x08\x07\x17\x10\x00\x00\x00'
tRp891
sg17
Nsa(dp892
g3
(lp893
V@fishermp
p894
aV@twitter
p895
aV@jezforrester
p896
aV@thesubjective
p897
aV@billgodwin
p898
aVcan't
p899
aVbelieve
p900
aVi'm
p901
aVmissing
p902
aVout
p903
asg14
g15
(S'\x07\xe0\x01\x08\x06;\x18\x00\x00\x00'
tRp904
sg17
Nsa(dp905
g3
(lp906
V@thedon
p907
aV@hunterwalk
p908
aV@dilisnya
p909
aVwhat
p910
aVis
p911
aV"
aVtool
p912
aV"
aV?
asg14
g15
(S'\x07\xe0\x01\x08\x069\x05\x00\x00\x00'
tRp913
sg17
Nsa(dp914
g3
(lp915
V@gabor
p916
aVthe
p917
aVbest
p918
aV!
aVhave
p919
aVfun
p920
aV\U0001f354
aV\U0001f35f
aV\U0001f355
asg14
g15
(S'\x07\xe0\x01\x08\x03\x13\x00\x00\x00\x00'
tRp921
sg17
Nsa(dp922
g3
(lp923
V@justmadhu
p924
aV@jasontoff
p925
aV@tmobrien
p926
aV@tdd
p927
aV@feldman
p928
aVthanks
p929
aVfor
p930
aVruining
p931
aVthe
p932
aVgame
p933
asg14
g15
(S'\x07\xe0\x01\x08\x00\x0f\x08\x00\x00\x00'
tRp934
sg17
Nsa(dp935
g3
(lp936
V@pandemona
p937
aV@chanian
p938
aVbest
p939
aVpart
p940
aVis
p941
aVthat
p942
aVthey
p943
aVdeleted
p944
aVour
p945
aVaccounts
p946
aVonly
p947
aVweeks
p948
aVbefore
p949
aVq4
p950
aV2015
p951
aVtaxes
p952
aVwere
p953
aVdue
p954
aV.
aVmakes
p955
aVzero
p956
aVsense
p957
asg14
g15
(S"\x07\xe0\x01\x07\x07\x02'\x00\x00\x00"
tRp958
sg17
Nsa(dp959
g3
(lp960
V@pbaker
p961
aV@wired
p962
aVis
p963
aVthis
p964
aVyours
p965
aV?
asg14
g15
(S'\x07\xe0\x01\x07\x05\x17&\x00\x00\x00'
tRp966
sg17
Nsa(dp967
g3
(lp968
V@janamal
p969
aV@diegobandito
p970
aV@jordanyelinek
p971
aV\U0001f917
asg14
g15
(S'\x07\xe0\x01\x07\x01\x14)\x00\x00\x00'
tRp972
sg17
Nsa(dp973
g3
(lp974
V\u26a1
aV\ufe0f
aV\U0001f436
aVexcited
p975
aVto
p976
aVwelcome
p977
aV@diegobandito
p978
aVto
p979
aV@jordanyelinek
p980
aVand
p981
aVi's
p982
aVlife
p983
aV!
aVhttps://t.co/eaadabmyoj
p984
asg14
g15
(S'\x07\xe0\x01\x07\x01\x123\x00\x00\x00'
tRp985
sg17
Nsa(dp986
g3
(lp987
V@richparet
p988
aV@mollie
p989
aV@theliebowitz
p990
aVi
aVwonder
p991
aVif
p992
aVjosh
p993
aVis
p994
aVjust
p995
aVtrying
p996
aVto
p997
aVtroll
p998
aVus
p999
asg14
g15
(S'\x07\xe0\x01\x07\x01\x04\x02\x00\x00\x00'
tRp1000
sg17
Nsa(dp1001
g3
(lp1002
V@r2r
p1003
aVwtf
p1004
asg14
g15
(S'\x07\xe0\x01\x06\x16\x013\x00\x00\x00'
tRp1005
sg17
Nsa(dp1006
g3
(lp1007
Vrt
p1008
aV@thenextweb
p1009
aV:
aVtwitter's
p1010
aVnew
p1011
aV'
aVmobile
p1012
aVapp
p1013
aVplaybook
p1014
aV'
aVis
p1015
aVa
aVseries
p1016
aVof
p1017
aVblog
p1018
aVposts
p1019
aVon
p1020
aVhow
p1021
aVto
p1022
aVbuild
p1023
aVapps
p1024
aVhttps://t.co/helnlt03x8
p1025
aVhttps://t.co/qao
p1026
aV\u2026
asg14
g15
(S'\x07\xe0\x01\x06\x15\x17&\x00\x00\x00'
tRp1027
sg17
Nsa(dp1028
g3
(lp1029
V@onethinline
p1030
aV#
aV2
aVis
p1031
aVyour
p1032
aVbest
p1033
aVanswer
p1034
asg14
g15
(S'\x07\xe0\x01\x06\x133\x1c\x00\x00\x00'
tRp1035
sg17
Nsa(dp1036
g3
(lp1037
Vrt
p1038
aV@getstream_io
p1039
aV:
aV.
aV@getstream_io
p1040
aV+
aV@meteorjs
p1041
aVintegration
p1042
aVis
p1043
aVavailable
p1044
aVtoday
p1045
aV.
aVtry
p1046
aVthe
p1047
aVtutorial
p1048
aV!
aVhttps://t.co/ylwvc7xdyw
p1049
aV#meteor
p1050
aV@discoverme
p1051
aV\u2026
asg14
g15
(S'\x07\xe0\x01\x06\x13-7\x00\x00\x00'
tRp1052
sg17
Nsa(dp1053
g3
(lp1054
V@onethinline
p1055
aVwhy
p1056
aVwould
p1057
aVyou
p1058
aVshave
p1059
asg14
g15
(S'\x07\xe0\x01\x06\x13\x19\x18\x00\x00\x00'
tRp1060
sg17
Nsa(dp1061
g3
(lp1062
V@jack
p1063
aV45
p1064
aVyears
p1065
aVwasted
p1066
asg14
g15
(S'\x07\xe0\x01\x06\x12-\x16\x00\x00\x00'
tRp1067
sg17
Nsa(dp1068
g3
(lp1069
V@elizabeth
p1070
aV@ces
p1071
aVsame
p1072
aV!
asg14
g15
(S'\x07\xe0\x01\x06\x12\x19\x05\x00\x00\x00'
tRp1073
sg17
Nsa(dp1074
g3
(lp1075
V@justmadhu
p1076
aV@rallat
p1077
aV@oculus
p1078
aVit
p1079
aVrequires
p1080
aVowning
p1081
aVa
aVpc
p1082
aV?
aV/
aVconfused
p1083
asg14
g15
(S'\x07\xe0\x01\x06\x12\x185\x00\x00\x00'
tRp1084
sg17
Nsa(dp1085
g3
(lp1086
V@katies
p1087
aV#onlyontwitter
p1088
aV#lovethis
p1089
asg14
g15
(S'\x07\xe0\x01\x06\x10\x1c4\x00\x00\x00'
tRp1090
sg17
Nsa(dp1091
g3
(lp1092
V@joy__ebooks
p1093
aV@joyding
p1094
aVsame
p1095
asg14
g15
(S'\x07\xe0\x01\x06\x00+\x1d\x00\x00\x00'
tRp1096
sg17
Nsa(dp1097
g3
(lp1098
V@setosora
p1099
aV@doorman
p1100
aVlife
p1101
aVchanger
p1102
aV.
aVaccepts
p1103
aVall
p1104
aVour
p1105
aVpackages
p1106
aVand
p1107
aVdelivers
p1108
aVthem
p1109
aVon
p1110
aVdemand
p1111
aVwhen
p1112
aVi'm
p1113
aVhome-use
p1114
aVpromo
p1115
aVxrjst
p1116
aVto
p1117
aVget
p1118
aV$
aV10
p1119
aVcredit
p1120
asg14
g15
(S'\x07\xe0\x01\x05\x17$:\x00\x00\x00'
tRp1121
sg17
Nsa(dp1122
g3
(lp1123
V@ericshangle
p1124
aV@doorman
p1125
aVlife
p1126
aVchanger
p1127
aV.
aVaccepts
p1128
aVall
p1129
aVour
p1130
aVpackages
p1131
aVand
p1132
aVdelivers
p1133
aVthem
p1134
aVon
p1135
aVdemand
p1136
aVwhen
p1137
aVi'm
p1138
aVhome-use
p1139
aVpromo
p1140
aVxrjst
p1141
aVto
p1142
aVget
p1143
aV$
aV10
p1144
aVcredit
p1145
asg14
g15
(S'\x07\xe0\x01\x05\x17$-\x00\x00\x00'
tRp1146
sg17
Nsa(dp1147
g3
(lp1148
Vwhoa
p1149
aVnew
p1150
aV@doorman
p1151
aVapp
p1152
aVhttps://t.co/ai1hyoerc4
p1153
asg14
g15
(S'\x07\xe0\x01\x05\x17\x02\t\x00\x00\x00'
tRp1154
sg17
Nsa(dp1155
g3
(lp1156
V@jessimurray
p1157
aV@maiab
p1158
aVew
p1159
aVew
p1160
aVew
p1161
aVew
p1162
aVew
p1163
aVew
p1164
aVew
p1165
aVew
p1166
asg14
g15
(S'\x07\xe0\x01\x05\x16\x1b*\x00\x00\x00'
tRp1167
sg17
Nsa(dp1168
g3
(lp1169
Vrt
p1170
aV@jack
p1171
aV:
aVhttps://t.co/bc5rwqpcax
p1172
asg14
g15
(S'\x07\xe0\x01\x05\x16\t\x0c\x00\x00\x00'
tRp1173
sg17
Nsa(dp1174
g3
(lp1175
Vwhoa
p1176
aVcongrats
p1177
aV!
aV!
aV!
aVhttps://t.co/3drsjispue
p1178
asg14
g15
(S'\x07\xe0\x01\x05\x15:$\x00\x00\x00'
tRp1179
sg17
Nsa(dp1180
g3
(lp1181
Vi
aVlove
p1182
aVthe
p1183
aVlittle
p1184
aVblue
p1185
aVbird
p1186
aVat
p1187
aVthe
p1188
aVend
p1189
aVof
p1190
aVthis
p1191
aVtweet
p1192
aV#golive
p1193
asg14
g15
(S'\x07\xe0\x01\x05\x14\x11\x1e\x00\x00\x00'
tRp1194
sg17
Nsa(dp1195
g3
(lp1196
Vrt
p1197
aV@whitehouse
p1198
aV:
aV"
aVwe
p1199
aVdo
p1200
aVnot
p1201
aVhave
p1202
aVto
p1203
aVaccept
p1204
aVthis
p1205
aVcarnage
p1206
aVas
p1207
aVthe
p1208
aVprice
p1209
aVof
p1210
aVour
p1211
aVfreedom
p1212
aV.
aV"
aV\u2014
aV@potus
p1213
aVrt
p1214
aVif
p1215
aVyou
p1216
aVagree
p1217
aV:
aVit's
p1218
aVtime
p1219
aVto
p1220
aVact
p1221
aVto
p1222
aVhelp
p1223
aV#st
p1224
aV\u2026
asg14
g15
(S'\x07\xe0\x01\x05\x135;\x00\x00\x00'
tRp1225
sg17
Nsa(dp1226
g3
(lp1227
Vrt
p1228
aV@jeffseibert
p1229
aV:
aVready
p1230
aVfor
p1231
aVa
aVnew
p1232
aVchallenge
p1233
aV?
aVi
aV\u2019
aVm
aVseeking
p1234
aVa
aVworld-class
p1235
aVdirector
p1236
aVof
p1237
aVproduct
p1238
aVfor
p1239
aVa
aVkey
p1240
aVleadership
p1241
aVposition
p1242
aVon
p1243
aVmy
p1244
aVteam
p1245
aV:
aVhttps
p1246
aV:/
p1247
aV\u2026
asg14
g15
(S'\x07\xe0\x01\x05\x11\r\x18\x00\x00\x00'
tRp1248
sg17
Nsa(dp1249
g3
(lp1250
V@justmadhu
p1251
aV@tmobrien
p1252
aV@jasontoff
p1253
aV@tdd
p1254
aV@rafinhabastos
p1255
aVprotect
p1256
aVyourself
p1257
aVin
p1258
aVthe
p1259
aVfuture
p1260
aVhttps://t.co/8ap772xmj7
p1261
asg14
g15
(S'\x07\xe0\x01\x05\x104%\x00\x00\x00'
tRp1262
sg17
Nsa(dp1263
g3
(lp1264
V@nateswanner
p1265
aVwho
p1266
aVneeds
p1267
aVelectric
p1268
aVcars
p1269
aVwhen
p1270
aVyou
p1271
aVcan
p1272
aVhave
p1273
aVelectric
p1274
aVscooters
p1275
aVinstead
p1276
aV?
asg14
g15
(S'\x07\xe0\x01\x05\x103\x15\x00\x00\x00'
tRp1277
sg17
Nsa(dp1278
g3
(lp1279
V@nateswanner
p1280
aVoh
p1281
aVfor
p1282
aVme
p1283
aVit
p1284
aVwas
p1285
aVthat
p1286
aVgogoro
p1287
aVstill
p1288
aVhasn't
p1289
aVlaunched
p1290
aVin
p1291
aVsf
p1292
asg14
g15
(S'\x07\xe0\x01\x05\x10*\x01\x00\x00\x00'
tRp1293
sg17
Nsa(dp1294
g3
(lp1295
Vdidn't
p1296
aVsleep
p1297
aVwell
p1298
aVlast
p1299
aVnight
p1300
aV\U0001f623
asg14
g15
(S'\x07\xe0\x01\x05\x10(\x05\x00\x00\x00'
tRp1301
sg17
Nsa(dp1302
g3
(lp1303
V@alibee
p1304
aVcongrats
p1305
aV!
aV!
aV!
asg14
g15
(S'\x07\xe0\x01\x05\x02\x15\x13\x00\x00\x00'
tRp1306
sg17
Nsa(dp1307
g3
(lp1308
V@ericfrohnhoefer
p1309
aV@r2r
p1310
aVwhat
p1311
aVbubble
p1312
asg14
g15
(S'\x07\xe0\x01\x05\x02\x13+\x00\x00\x00'
tRp1313
sg17
Nsa(dp1314
g3
(lp1315
Vgo
p1316
aV@silvercar
p1317
aV!
aVhttps://t.co/foejhqgehk
p1318
asg14
g15
(S'\x07\xe0\x01\x05\x02\x05\x05\x00\x00\x00'
tRp1319
sg17
Nsa(dp1320
g3
(lp1321
V@mcrowther
p1322
aV\U0001f914
asg14
g15
(S'\x07\xe0\x01\x04\x16:&\x00\x00\x00'
tRp1323
sg17
Nsa(dp1324
g3
(lp1325
V@coops
p1326
aVdelta
p1327
aVhands
p1328
aVdown
p1329
aV.
aVthey
p1330
aVhave
p1331
aVthe
p1332
aVbest
p1333
aVservice
p1334
aVjfk-sfo
p1335
aV,
aVand
p1336
aVare
p1337
aVthe
p1338
aVonly
p1339
aVinternational
p1340
aVchoice
p1341
aVout
p1342
aVof
p1343
aVjfk
p1344
aVof
p1345
aVyour
p1346
aV3
aV.
asg14
g15
(S'\x07\xe0\x01\x04\x13\x14\x0b\x00\x00\x00'
tRp1347
sg17
Nsa(dp1348
g3
(lp1349
V@chrismessina
p1350
aV@uber
p1351
aVcongrats
p1352
aV!
asg14
g15
(S'\x07\xe0\x01\x04\x10,)\x00\x00\x00'
tRp1353
sg17
Nsa(dp1354
g3
(lp1355
V@emoore
p1356
aVgiven
p1357
aVthis
p1358
aVrec
p1359
aV,
aVi
aVsuggest
p1360
aVyou
p1361
aVdo
p1362
aVnot
p1363
aVcreate
p1364
aVan
p1365
aVaccount
p1366
aVon
p1367
aVhttps://t.co/cc2oaakqm1
p1368
aVor
p1369
aVspend
p1370
aVtime
p1371
aVon
p1372
aVhttps://t.co/ah37avityt
p1373
asg14
g15
(S'\x07\xe0\x01\x04\x05\x1f\x1e\x00\x00\x00'
tRp1374
sg17
Nsa(dp1375
g3
(lp1376
V@coolasspuppy
p1377
aVyou
p1378
aVknow
p1379
aVyou
p1380
aVcan
p1381
aVdo
p1382
aVboth
p1383
asg14
g15
(S'\x07\xe0\x01\x03\x159\x1b\x00\x00\x00'
tRp1384
sg17
Nsa(dp1385
g3
(lp1386
V@meat
p1387
aV\u2764
aV\ufe0f
aV\U0001f499
asg14
g15
(S'\x07\xe0\x01\x03\x154;\x00\x00\x00'
tRp1388
sg17
Nsa(dp1389
g3
(lp1390
Vi'm
p1391
aVso
p1392
aVready
p1393
aVfor
p1394
aVthis
p1395
aVbreak
p1396
aVto
p1397
aVbe
p1398
aVover
p1399
aV.
aVit's
p1400
aVtime
p1401
aVto
p1402
aVbuild
p1403
aVnew
p1404
aVthings
p1405
aV!
asg14
g15
(S'\x07\xe0\x01\x03\x13)\x17\x00\x00\x00'
tRp1406
sg17
Nsa(dp1407
g3
(lp1408
V@jasontoff
p1409
aV@feldman
p1410
aV@tmobrien
p1411
aV@justmadhu
p1412
aV@justmadhu
p1413
aV@feldman
p1414
aV@tmobrien
p1415
aV@jasontoff
p1416
aV@cristinatoff
p1417
aVneeds
p1418
aVa
aVdeeper
p1419
aVtwitter
p1420
aVintegration
p1421
aV.
asg14
g15
(S'\x07\xe0\x01\x03\x04\x04%\x00\x00\x00'
tRp1422
sg17
Nsa(dp1423
g3
(lp1424
V@tmobrien
p1425
aV@justmadhu
p1426
aV@numberfulgame
p1427
aVthis
p1428
aVis
p1429
aVgood
p1430
aVgame
p1431
aV.
aVjust
p1432
aVmade
p1433
aV33
p1434
aV!
asg14
g15
(S'\x07\xe0\x01\x03\x02)+\x00\x00\x00'
tRp1435
sg17
Nsa(dp1436
g3
(lp1437
Vwhat's
p1438
aVhappening
p1439
aV?
asg14
g15
(S'\x07\xe0\x01\x02\x12\x18+\x00\x00\x00'
tRp1440
sg17
Nsa(dp1441
g3
(lp1442
V@backlon
p1443
aVoh
p1444
aVgod
p1445
aVit
p1446
aVhas
p1447
aVstarted
p1448
aV?
aV!
asg14
g15
(S'\x07\xe0\x01\x02\x12\x14;\x00\x00\x00'
tRp1449
sg17
Nsa(dp1450
g3
(lp1451
V@shinypb
p1452
aVmy
p1453
aVnest
p1454
aVprotect
p1455
aVended
p1456
aVup
p1457
aVin
p1458
aVa
aVdrawer
p1459
asg14
g15
(S'\x07\xe0\x01\x02\x03-\x05\x00\x00\x00'
tRp1460
sg17
Nsa(dp1461
g3
(lp1462
V\U0001f37e
asg14
g15
(S'\x07\xe0\x01\x01\x05\x00\x05\x00\x00\x00'
tRp1463
sg17
Nsa(dp1464
g3
(lp1465
V@frogtwitt
p1466
aV@blueapron
p1467
aVdon't
p1468
aVworry
p1469
aVwe
p1470
aValways
p1471
aVdouble
p1472
aVthe
p1473
aVgarlic
p1474
asg14
g15
(S'\x07\xe0\x01\x01\x01\x00\x00\x00\x00\x00'
tRp1475
sg17
Nsa(dp1476
g3
(lp1477
V@reyner
p1478
aV\U0001f6a8
asg14
g15
(S'\x07\xdf\x0c\x1f\x17:.\x00\x00\x00'
tRp1479
sg17
Nsa(dp1480
g3
(lp1481
Vthis
p1482
aVplace
p1483
aVhas
p1484
aVto
p1485
aVbe
p1486
aVmy
p1487
aVnew
p1488
aVfavorite
p1489
aVplace
p1490
aVin
p1491
aVhealdsburg
p1492
aV-
aVhttps://t.co/kdogsruunb
p1493
aVhttps://t.co/5n49n3kjuy
p1494
aVhttps://t.co/egdvwqbgsq
p1495
asg14
g15
(S'\x07\xdf\x0c\x1f\x144\x18\x00\x00\x00'
tRp1496
sg17
Nsa(dp1497
g3
(lp1498
Vyesterday
p1499
aVi
aVneeded
p1500
aVa
aVcar
p1501
aVjumpstarted
p1502
aV.
aVtowing
p1503
aVservice
p1504
aVwanted
p1505
aVan
p1506
aVhour
p1507
aVand
p1508
aV$
aV100
p1509
aV.
aVamazon
p1510
aVprime
p1511
aVnow
p1512
aVgot
p1513
aVme
p1514
aVcables
p1515
aVin
p1516
aV20
p1517
aVmin
p1518
aVfor
p1519
aV$
aV40
p1520
aV.
asg14
g15
(S'\x07\xdf\x0c\x1f\x11/\x14\x00\x00\x00'
tRp1521
sg17
Nsa(dp1522
g3
(lp1523
Vmy
p1524
aVyear
p1525
aVin
p1526
aV@blueapron
p1527
aVhttps://t.co/ulrjycg7xp
p1528
asg14
g15
(S'\x07\xdf\x0c\x1f\x1014\x00\x00\x00'
tRp1529
sg17
Nsa(dp1530
g3
(lp1531
V@javi
p1532
aV@nachosoto
p1533
aVsure
p1534
aVbut
p1535
aVimagine
p1536
aVif
p1537
aVapps
p1538
aVcould
p1539
aVonly
p1540
aVbe
p1541
aVglances
p1542
aVhow
p1543
aVmuch
p1544
aVbetter
p1545
aVthey
p1546
aVcould
p1547
aVhave
p1548
aVbeen
p1549
aV.
asg14
g15
(S'\x07\xdf\x0c\x1f\x06\x00\x1a\x00\x00\x00'
tRp1550
sg17
Nsa(dp1551
g3
(lp1552
V@nachosoto
p1553
aV@javi
p1554
aVi
aVdon't
p1555
aVbother
p1556
aVwith
p1557
aVwatch
p1558
aVapps
p1559
aVanymore
p1560
aV,
aVthey're
p1561
aVall
p1562
aVgarbage
p1563
aV.
aVnotifications
p1564
aV,
aVglances
p1565
aV,
aVsending
p1566
aVhearts
p1567
aVis
p1568
aVwhat
p1569
aVit's
p1570
aVfor
p1571
asg14
g15
(S'\x07\xdf\x0c\x1f\x0553\x00\x00\x00'
tRp1572
sg17
Nsa(dp1573
g3
(lp1574
V.
aV@ltm
p1575
aVon
p1576
aV#periscope
p1577
aV:
aVtrivia
p1578
aVscope
p1579
aV:
aV2015
p1580
aVtrivia
p1581
aV!
aV#newyear
p1582
aV#yearinreview
p1583
aVhttps://t.co/bh1gdstexl
p1584
asg14
g15
(S'\x07\xdf\x0c\x1f\x05\x1e\x08\x00\x00\x00'
tRp1585
sg17
Nsa(dp1586
g3
(lp1587
Vrt
p1588
aV@macrumors
p1589
aV:
aVtwitter
p1590
aVfor
p1591
aVmac
p1592
aVgets
p1593
aVmajor
p1594
aVupdate
p1595
aVwith
p1596
aVrevamped
p1597
aVdesign
p1598
aV,
aVnew
p1599
aVfeatures
p1600
aVhttps://t.co/rjw1b92cqi
p1601
aVby
p1602
aV@julipuli
p1603
aVhttps://t.co/zebjj
p1604
aV\u2026
asg14
g15
(S'\x07\xdf\x0c\x1e\x12$\x02\x00\x00\x00'
tRp1605
sg17
Nsa(dp1606
g3
(lp1607
V@engineerboris
p1608
aV4.8
p1609
aVhttps://t.co/c5m3vbqdhn
p1610
asg14
g15
(S'\x07\xdf\x0c\x1e\x07-\x12\x00\x00\x00'
tRp1611
sg17
Nsa(dp1612
g3
(lp1613
V@engineerboris
p1614
aVall
p1615
aVthe
p1616
aVway
p1617
aVto
p1618
aVvancouver
p1619
aVtoo
p1620
aVaccording
p1621
aVto
p1622
aVpeople's
p1623
aVtweets
p1624
asg14
g15
(S'\x07\xdf\x0c\x1e\x07*\x0e\x00\x00\x00'
tRp1625
sg17
Nsa(dp1626
g3
(lp1627
V@rjcc
p1628
aVyeah
p1629
aVit
p1630
aVwas
p1631
aVmore
p1632
aVme
p1633
aVjust
p1634
aVplaying
p1635
aVaround
p1636
aV.
aVappletv
p1637
aVneeds
p1638
aVfull
p1639
aVroom
p1640
aVmics
p1641
aV.
aVamazon
p1642
aVecho
p1643
aVis
p1644
aVso
p1645
aVmuch
p1646
aVbetter
p1647
aVat
p1648
aVthis
p1649
asg14
g15
(S'\x07\xdf\x0c\x1e\x07\x11\x0e\x00\x00\x00'
tRp1650
sg17
Nsa(dp1651
g3
(lp1652
V@kpk
p1653
aV"
aVplay
p1654
aV"
aVand
p1655
aV"
aVunpause
p1656
aV"
asg14
g15
(S'\x07\xdf\x0c\x1e\x07\n\x08\x00\x00\x00'
tRp1657
sg17
Nsa(dp1658
g3
(lp1659
Vsiri
p1660
aVon
p1661
aVappletv
p1662
aVcan
p1663
aVpause
p1664
aVnetflix
p1665
aVbut
p1666
aVnot
p1667
aVplay
p1668
aVagain
p1669
aVafter
p1670
aVpausing
p1671
aV.
aVhuh
p1672
aV?
asg14
g15
(S'\x07\xdf\x0c\x1e\x07\x08&\x00\x00\x00'
tRp1673
sg17
Nsa(dp1674
g3
(lp1675
V@emoore
p1676
aVfor
p1677
aVreal
p1678
aV?
aV!
aV?
aVomg
p1679
asg14
g15
(S'\x07\xdf\x0c\x1e\x06\x053\x00\x00\x00'
tRp1680
sg17
Nsa(dp1681
g3
(lp1682
V@kris
p1683
aVi
aVdo
p1684
aVit
p1685
aVall
p1686
aVthe
p1687
aVtime
p1688
aVw
aVjordan
p1689
aV\u263a
aV\ufe0f
asg14
g15
(S'\x07\xdf\x0c\x1d\x17\x14\x15\x00\x00\x00'
tRp1690
sg17
Nsa(dp1691
g3
(lp1692
Va
aVsan
p1693
aVfrancisco
p1694
aVplay
p1695
aVcasts
p1696
aVtech
p1697
aVcompanies
p1698
aVas
p1699
aVvillains
p1700
aV\u2014
aVbut
p1701
aVthey're
p1702
aVnot
p1703
aVto
p1704
aVblame
p1705
aVfor
p1706
aVthe
p1707
aVcity's
p1708
aVsoaring
p1709
aVrents
p1710
aV:
aVhttps://t.co/uattlkjvfk
p1711
asg14
g15
(S'\x07\xdf\x0c\x1d\x130\r\x00\x00\x00'
tRp1712
sg17
Nsa(dp1713
g3
(lp1714
V@beadaschauer
p1715
aVseems
p1716
aVto
p1717
aVbe
p1718
aVthe
p1719
aVsame
p1720
asg14
g15
(S'\x07\xdf\x0c\x1d\x10\x13\x1a\x00\x00\x00'
tRp1721
sg17
Nsa(dp1722
g3
(lp1723
V@derosimona
p1724
aVbecause
p1725
aVi
aVstore
p1726
aVthe
p1727
aVbutton
p1728
aVnext
p1729
aVto
p1730
aVmy
p1731
aVtide
p1732
aV.
aVwhen
p1733
aVi
aVran
p1734
aVout
p1735
aV,
aVi
aVpressed
p1736
aVit
p1737
aVand
p1738
aVit
p1739
aVblinked
p1740
aVwhite
p1741
aVand
p1742
aVthen
p1743
aVturned
p1744
aVgreen
p1745
aV.
aVall
p1746
aVdone
p1747
aV!
asg14
g15
(S'\x07\xdf\x0c\x1d\x03\x11\x05\x00\x00\x00'
tRp1748
sg17
Nsa(dp1749
g3
(lp1750
V@sf_kevin
p1751
aVi
aVwas
p1752
aVabout
p1753
aVto
p1754
aVcorrect
p1755
aVmyself
p1756
aV.
asg14
g15
(S'\x07\xdf\x0c\x1d\x03\x0b)\x00\x00\x00'
tRp1757
sg17
Nsa(dp1758
g3
(lp1759
V@sf_kevin
p1760
aVlast
p1761
aVweek
p1762
aVi
aVsold
p1763
aVa
aV$
aV50
p1764
aVlego
p1765
aVset
p1766
aVfrom
p1767
aV2010
p1768
aVthat
p1769
aVi
aVhad
p1770
aVstored
p1771
aVfor
p1772
aV$
aV250
p1773
aV.
aV38
p1774
aV%
aVapr
p1775
aV.
asg14
g15
(S'\x07\xdf\x0c\x1d\x03\t\x00\x00\x00\x00'
tRp1776
sg17
Nsa(dp1777
g3
(lp1778
V@backlon
p1779
aVblazer
p1780
aVon
p1781
aVa
aVvisorphone
p1782
aVwas
p1783
aVa
aVproxy
p1784
aVbrowser
p1785
aVand
p1786
aVthe
p1787
aVproxy
p1788
aVis
p1789
aVshutdown
p1790
aV.
aVbut
p1791
aV,
aVhttps://t.co/kwp52yj7tx
p1792
aVwould
p1793
aVstill
p1794
aVrender
p1795
aVgreat
p1796
aV\u26a1
aV\ufe0f
aV\u270c
aV\ufe0f
asg14
g15
(S'\x07\xdf\x0c\x1d\x01,\x0b\x00\x00\x00'
tRp1797
sg17
Nsa(dp1798
g3
(lp1799
Vi
aVgot
p1800
aVto
p1801
aVuse
p1802
aVmy
p1803
aVamazon
p1804
aVdash
p1805
aVbutton
p1806
aVtoday
p1807
aVto
p1808
aVorder
p1809
aVa
aVnew
p1810
aVbox
p1811
aVof
p1812
aVtide
p1813
aVpods
p1814
aVafter
p1815
aVi
aVran
p1816
aVout
p1817
aV.
aVsuch
p1818
aVa
aVdelightful
p1819
aVexperience
p1820
aV.
asg14
g15
(S'\x07\xdf\x0c\x1d\x01)1\x00\x00\x00'
tRp1821
sg17
Nsa(dp1822
g3
(lp1823
V@joshelman
p1824
aVtweetdeck
p1825
aVhas
p1826
aVan
p1827
aVincredible
p1828
aVfeature
p1829
aVfor
p1830
aVthis
p1831
aV-
aVyou
p1832
aVcan
p1833
aVadd
p1834
aVa
aVhome
p1835
aVcolumn
p1836
aVto
p1837
aVview
p1838
aVtwitter
p1839
aVthe
p1840
aVway
p1841
aVthey
p1842
aVdo
p1843
aVhttps://t.co/ccvljjraxu
p1844
asg14
g15
(S'\x07\xdf\x0c\x1c\x05\x06\x03\x00\x00\x00'
tRp1845
sg17
Nsa(dp1846
g3
(lp1847
V@fmborghino
p1848
aVi
aVthought
p1849
aVseniors
p1850
aVwas
p1851
aVthe
p1852
aVone
p1853
aVuse
p1854
aVcase
p1855
aVthey
p1856
aVtargeted
p1857
aV\U0001f623
asg14
g15
(S'\x07\xdf\x0c\x1a\x0f\t-\x00\x00\x00'
tRp1858
sg17
Nsa(dp1859
g3
(lp1860
Vchristmas
p1861
aV#starwars
p1862
aVtickets
p1863
aVpurchased
p1864
asg14
g15
(S'\x07\xdf\x0c\x1a\x00\x11\x05\x00\x00\x00'
tRp1865
sg17
Nsa(dp1866
g3
(lp1867
Vwow
p1868
aV,
aVchrome
p1869
aVos
p1870
aVis
p1871
aVawful
p1872
aV.
aVimpossible
p1873
aVto
p1874
aVdisable
p1875
aVpassword
p1876
aVon
p1877
aVlogin
p1878
aV,
aVor
p1879
aVincrease
p1880
aVfont
p1881
aVsize
p1882
aVused
p1883
aVin
p1884
aVux
p1885
aV.
aVguest
p1886
aVaccess
p1887
aVcrashes
p1888
aVchanging
p1889
aVsettings
p1890
aV\U0001f621
asg14
g15
(S'\x07\xdf\x0c\x19\x158\x1c\x00\x00\x00'
tRp1891
sg17
Nsa(dp1892
g3
(lp1893
V@tmobrien
p1894
aV\U0001f61f
asg14
g15
(S'\x07\xdf\x0c\x18\x126\x10\x00\x00\x00'
tRp1895
sg17
Nsa(dp1896
g3
(lp1897
V@tmobrien
p1898
aVuse
p1899
aVamazon
p1900
aVprime
p1901
aVnow
p1902
aVnext
p1903
aVtime
p1904
aV?
aValready
p1905
aVsaved
p1906
aVme
p1907
aVtwice
p1908
aVfrom
p1909
aVhaving
p1910
aVto
p1911
aVgo
p1912
aVto
p1913
aVthe
p1914
aVstore
p1915
asg14
g15
(S'\x07\xdf\x0c\x18\x122:\x00\x00\x00'
tRp1916
sg17
Nsa(dp1917
g3
(lp1918
Vrt
p1919
aV@twitter
p1920
aV:
aV#happyholidays
p1921
aV\U0001f384
aVrace
p1922
aVyou
p1923
aVto
p1924
aVthe
p1925
aVtree
p1926
aV!
aVhttps://t.co/0pzzeqoumn
p1927
asg14
g15
(S'\x07\xdf\x0c\x18\x11\x15-\x00\x00\x00'
tRp1928
sg17
Nsa(dp1929
g3
(lp1930
V@mollie
p1931
aV@isaacvandor
p1932
aV\U0001f3af
asg14
g15
(S'\x07\xdf\x0c\x18\x059\x0c\x00\x00\x00'
tRp1933
sg17
Nsa(dp1934
g3
(lp1935
Vrt
p1936
aV@jordanyelinek
p1937
aV:
aV#xmasonesies
p1938
aVat
p1939
aVchateau
p1940
aVducker
p1941
aVhttps://t.co/zhwncnan3x
p1942
asg14
g15
(S'\x07\xdf\x0c\x18\x05\x05\x0e\x00\x00\x00'
tRp1943
sg17
Nsa(dp1944
g3
(lp1945
V@joyding
p1946
aV@kevinweil
p1947
aVthis
p1948
aVis
p1949
aVwhen
p1950
aVpaying
p1951
aV$
aV50
p1952
aVfor
p1953
aVlounge
p1954
aVaccess
p1955
aVin
p1956
aVthe
p1957
aVunited
p1958
aVapp
p1959
aVmakes
p1960
aVsense
p1961
asg14
g15
(S'\x07\xdf\x0c\x18\x046\x08\x00\x00\x00'
tRp1962
sg17
Nsa(dp1963
g3
(lp1964
V@jeffseibert
p1965
aVthe
p1966
aVbeginning
p1967
aVof
p1968
aVa
aVgreat
p1969
aVchristmas
p1970
aV!
aVhttps://t.co/lhzowkricz
p1971
asg14
g15
(S'\x07\xdf\x0c\x17\x15\x149\x00\x00\x00'
tRp1972
sg17
Nsa(dp1973
g3
(lp1974
Vrt
p1975
aV@gizmodo
p1976
aV:
aV.
aV@bostondynamics
p1977
aV'
aVrobo-dogs
p1978
aVpulling
p1979
aVsanta's
p1980
aVsleigh
p1981
aVis
p1982
aVa
aVterrifying
p1983
aVglimpse
p1984
aVof
p1985
aVthe
p1986
aVfuture
p1987
aVhttps://t.co/9n0exr5m8l
p1988
aVhttps://t.co/
p1989
aV\u2026
asg14
g15
(S'\x07\xdf\x0c\x16\x17;-\x00\x00\x00'
tRp1990
sg17
Nsa(dp1991
g3
(lp1992
Vthanks
p1993
aV#amexgift
p1994
asg14
g15
(S'\x07\xdf\x0c\x16\x13!\x18\x00\x00\x00'
tRp1995
sg17
Nsa(dp1996
g3
(lp1997
V@lessachu
p1998
aVyou're
p1999
aVin
p2000
aVchasing
p2001
aVmai
p2002
aV!
aV?
aV!
aVplease
p2003
aVmake
p2004
aVsure
p2005
aVto
p2006
aVgo
p2007
aVto
p2008
aVsp
p2009
aVchicken
p2010
aV.
aVequally
p2011
aVas
p2012
aVgood
p2013
aVas
p2014
aVkhao
p2015
aVsoi
p2016
aV:)
p2017
asg14
g15
(S'\x07\xdf\x0c\x16\x05\x002\x00\x00\x00'
tRp2018
sg17
Nsa(dp2019
g3
(lp2020
V@sayrer
p2021
aV@jco
p2022
aValternatively
p2023
aVthey
p2024
aVturn
p2025
aVinto
p2026
aVan
p2027
aVapartment
p2028
aVand
p2029
aVyou
p2030
aVare
p2031
aVmore
p2032
aVcomfortable
p2033
aVin
p2034
aVthem
p2035
aVthen
p2036
aVwherever
p2037
aVyou're
p2038
aVgoing
p2039
asg14
g15
(S'\x07\xdf\x0c\x16\x03:7\x00\x00\x00'
tRp2040
sg17
Nsa(dp2041
g3
(lp2042
V@sayrer
p2043
aV@jco
p2044
aVself
p2045
aVdriving
p2046
aVcars
p2047
aVmight
p2048
aVbegat
p2049
aVeven
p2050
aVworse
p2051
aVsuburbia
p2052
aV\U0001f630
asg14
g15
(S'\x07\xdf\x0c\x16\x0382\x00\x00\x00'
tRp2053
sg17
Nsa(dp2054
g3
(lp2055
V@sayrer
p2056
aV@jco
p2057
aVthat
p2058
aVis
p2059
aVtrue
p2060
aV.
aVi
aVjust
p2061
aVdon't
p2062
aVwant
p2063
aVto
p2064
aVreturn
p2065
aVto
p2066
aVa
aVworld
p2067
aVof
p2068
aVsurburban
p2069
aVoffice
p2070
aVcampuses
p2071
aV.
aVbuilding
p2072
aVnew
p2073
aVthings
p2074
aVbelongs
p2075
aVin
p2076
aVcity
p2077
aVcenters
p2078
asg14
g15
(S'\x07\xdf\x0c\x16\x036\x1a\x00\x00\x00'
tRp2079
sg17
Nsa(dp2080
g3
(lp2081
V@sayrer
p2082
aV@jco
p2083
aVthat's
p2084
aVsad
p2085
aVto
p2086
aVthink
p2087
aVabout
p2088
aV:(
p2089
aVsf
p2090
aVcould
p2091
aVbe
p2092
aVone
p2093
aVof
p2094
aVthe
p2095
aVworld's
p2096
aVgreat
p2097
aVcities
p2098
asg14
g15
(S'\x07\xdf\x0c\x16\x034\x1f\x00\x00\x00'
tRp2099
sg17
Nsa(dp2100
g3
(lp2101
V@jco
p2102
aV@sayrer
p2103
aVpretty
p2104
aVsure
p2105
aVit's
p2106
aVnot
p2107
aVed
p2108
aVlee
p2109
aVthat's
p2110
aVthe
p2111
aVproblems
p2112
aVbut
p2113
aVthe
p2114
aVnimby
p2115
aVneighborhood
p2116
aVgroups
p2117
aVand
p2118
aVtenants
p2119
aVunions
p2120
aV.
aV.
aV.
asg14
g15
(S'\x07\xdf\x0c\x16\x0325\x00\x00\x00'
tRp2121
sg17
Nsa(dp2122
g3
(lp2123
V@jco
p2124
aV@sayrer
p2125
aVserious
p2126
aV,
aVlet's
p2127
aVsolve
p2128
aVour
p2129
aVhousing
p2130
aVcrisis
p2131
aV.
aVbuild
p2132
aVdensity
p2133
aVnext
p2134
aVto
p2135
aVtransit
p2136
aV.
asg14
g15
(S'\x07\xdf\x0c\x16\x031\x1a\x00\x00\x00'
tRp2137
sg17
Nsa(dp2138
g3
(lp2139
V@jco
p2140
aV@sayrer
p2141
aVsure
p2142
aVif
p2143
aVwe
p2144
aVbuilt
p2145
aVmoar
p2146
aVhousing
p2147
aVand
p2148
aVmoar
p2149
aVpublic
p2150
aVtransit
p2151
aVand
p2152
aVmoar
p2153
aVskyscrapers
p2154
aV!
asg14
g15
(S'\x07\xdf\x0c\x16\x030\x0c\x00\x00\x00'
tRp2155
sg17
Nsa(dp2156
g3
(lp2157
Vrt
p2158
aV@elonmusk
p2159
aV:
aVlive
p2160
aVvideo
p2161
aVfrom
p2162
aVlz
p2163
aV-
aV1
aVhttps://t.co/ve6gexfodh
p2164
asg14
g15
(S'\x07\xdf\x0c\x16\x03.\x19\x00\x00\x00'
tRp2165
sg17
Nsa(dp2166
g3
(lp2167
V@backlon
p2168
aVno
p2169
aVspoilers
p2170
aVplease
p2171
asg14
g15
(S'\x07\xdf\x0c\x16\x01.\x11\x00\x00\x00'
tRp2172
sg17
Nsa(dp2173
g3
(lp2174
Vrt
p2175
aV@spacex
p2176
aV:
aVthe
p2177
aVfalcon
p2178
aV9
aVfirst
p2179
aVstage
p2180
aVlanding
p2181
aVis
p2182
aVconfirmed
p2183
aV.
aVsecond
p2184
aVstage
p2185
aVcontinuing
p2186
aVnominally
p2187
aV.
aVhttps://t.co/rx2qksl0z7
p2188
asg14
g15
(S'\x07\xdf\x0c\x16\x01)\x01\x00\x00\x00'
tRp2189
sg17
Nsa(dp2190
g3
(lp2191
Vto
p2192
aVwork
p2193
aVso
p2194
aVhard
p2195
aVon
p2196
aVa
aVdream
p2197
aVfor
p2198
aVso
p2199
aVmany
p2200
aVyears
p2201
aVand
p2202
aVfail
p2203
aVso
p2204
aVmany
p2205
aVtimes
p2206
aV,
aVpublicly
p2207
aV,
aVand
p2208
aVthen
p2209
aVfinally
p2210
aVsucceed
p2211
aV.
aV#spacex
p2212
asg14
g15
(S'\x07\xdf\x0c\x16\x01(\x19\x00\x00\x00'
tRp2213
sg17
Nsa(dp2214
g3
(lp2215
Vholy
p2216
aVwow
p2217
aV#spacex
p2218
asg14
g15
(S"\x07\xdf\x0c\x16\x01'+\x00\x00\x00"
tRp2219
sg17
Nsa(dp2220
g3
(lp2221
V@miradu
p2222
aVit's
p2223
aVso
p2224
aVcool
p2225
aVto
p2226
aVwatch
p2227
aVthis
p2228
aVlive
p2229
aV.
aVthank
p2230
aVyou
p2231
aV@elonmusk
p2232
aVand
p2233
aV@spacex
p2234
aV(
aV!
aV)
asg14
g15
(S'\x07\xdf\x0c\x16\x01!\x08\x00\x00\x00'
tRp2235
sg17
Nsa(dp2236
g3
(lp2237
Vt
aVminus
p2238
aV1
aVminute
p2239
aVfor
p2240
aVspacex
p2241
aVlaunch
p2242
aV#livenow
p2243
aVhttps://t.co/kwryzlbinq
p2244
asg14
g15
(S'\x07\xdf\x0c\x16\x01\x1c,\x00\x00\x00'
tRp2245
sg17
Nsa(dp2246
g3
(lp2247
Vi'm
p2248
aVlate
p2249
aVto
p2250
aVthis
p2251
aV,
aVbut
p2252
aV@kayvz
p2253
aVwas
p2254
aVabsolutely
p2255
aVawesome
p2256
aVon
p2257
aVstephen
p2258
aVcolbert
p2259
aV:
aVhttps://t.co/lq9o0ntyn1
p2260
asg14
g15
(S'\x07\xdf\x0c\x15\x13\x1d9\x00\x00\x00'
tRp2261
sg17
Nsa(dp2262
g3
(lp2263
Vrt
p2264
aV@mrcs
p2265
aV:
aVenjoying
p2266
aVsanta
p2267
aVmonica
p2268
aVwith
p2269
aVthis
p2270
aVguy
p2271
aV.
aVhttps://t.co/yswo8es5mu
p2272
asg14
g15
(S'\x07\xdf\x0c\x14\x17\x1a \x00\x00\x00'
tRp2273
sg17
Nsa(dp2274
g3
(lp2275
V@backlon
p2276
aV@wsj
p2277
aVthat's
p2278
aVit
p2279
aV,
aVwine
p2280
aVis
p2281
aVover
p2282
asg14
g15
(S'\x07\xdf\x0c\x14\x11\x14\x02\x00\x00\x00'
tRp2283
sg17
Nsa(dp2284
g3
(lp2285
Vhello
p2286
aVla
p2287
aV!
aVhttps://t.co/sfcpongote
p2288
asg14
g15
(S'\x07\xdf\x0c\x13\x12\x106\x00\x00\x00'
tRp2289
sg17
Nsa(dp2290
g3
(lp2291
Vso
p2292
aVif
p2293
aVyou
p2294
aVhaven't
p2295
aVseen
p2296
aV#disgraced
p2297
aVat
p2298
aV@berkeleyrep
p2299
aVyou
p2300
aVhave
p2301
aVanother
p2302
aVweek
p2303
aVto
p2304
aVsee
p2305
aVit
p2306
aV-
aV-
aVvery
p2307
aVgood
p2308
aVemotionally
p2309
aVintense
p2310
aV,
aVmodern
p2311
aVtheater
p2312
asg14
g15
(S'\x07\xdf\x0c\x13\x06\x19.\x00\x00\x00'
tRp2313
sg17
Nsa(dp2314
g3
(lp2315
Vrt
p2316
aV@carolinesinders
p2317
aV:
aVone
p2318
aVof
p2319
aVthe
p2320
aVmost
p2321
aVintense
p2322
aV,
aVtroubling
p2323
aV,
aVand
p2324
aVwell
p2325
aVdone
p2326
aVpieces
p2327
aVyou
p2328
aVwill
p2329
aVread
p2330
aVall
p2331
aVyear
p2332
aVabout
p2333
aVrape
p2334
aVand
p2335
aVrape
p2336
aVreportings
p2337
aV.
aVhttps
p2338
aV\u2026
asg14
g15
(S'\x07\xdf\x0c\x13\x03\x1d\x06\x00\x00\x00'
tRp2339
sg17
Nsa(dp2340
g3
(lp2341
Vrt
p2342
aV@twitteritalia
p2343
aV:
aVil
p2344
aVteam
p2345
aV@twitteritalia
p2346
aVcanta
p2347
aV(
aVmale
p2348
aVma
p2349
aVdi
p2350
aVcuore
p2351
aV)
aV#lastchristmas
p2352
aV.
aVper
p2353
aVogni
p2354
aVrt
p2355
aV,
aVdoneremo
p2356
aV\u20ac
aV1
aValla
p2357
aVonlus
p2358
aV@fllisfrancesco
p2359
aV.
aVhtt
p2360
aV\u2026
asg14
g15
(S'\x07\xdf\x0c\x13\x01\x13.\x00\x00\x00'
tRp2361
sg17
Nsa(dp2362
g3
(lp2363
Vrt
p2364
aV@trivia_scope
p2365
aV:
aVlive
p2366
aVon
p2367
aV#periscope
p2368
aV:
aVepisode
p2369
aViii
p2370
aVhttps://t.co/7onncysohi
p2371
asg14
g15
(S'\x07\xdf\x0c\x12\x15\x19-\x00\x00\x00'
tRp2372
sg17
Nsa(dp2373
g3
(lp2374
Vso
p2375
aVcool
p2376
aVto
p2377
aVsee
p2378
aVthe
p2379
aVpace
p2380
aVof
p2381
aVinnovation
p2382
aVat
p2383
aV#hackweek
p2384
aV!
asg14
g15
(S'\x07\xdf\x0c\x12\x14\x072\x00\x00\x00'
tRp2385
sg17
Nsa(dp2386
g3
(lp2387
Voh
p2388
aV:
aV"
aVdo
p2389
aVyou
p2390
aVhave
p2391
aVanything
p2392
aVbetter
p2393
aVto
p2394
aVdo
p2395
aV?
aV"
aV"
aVthen
p2396
aVtroll
p2397
aVyou
p2398
aV?
aVhaha
p2399
aV,
aVno
p2400
aV"
asg14
g15
(S'\x07\xdf\x0c\x12\x126.\x00\x00\x00'
tRp2401
sg17
Nsa(dp2402
g3
(lp2403
V@mikeyk
p2404
aVwhat
p2405
aVis
p2406
aV"
aVlove
p2407
aV"
asg14
g15
(S'\x07\xdf\x0c\x12\x11\x13"\x00\x00\x00'
tRp2408
sg17
Nsa(dp2409
g3
(lp2410
Vrt
p2411
aV@benrito
p2412
aV:
aVindictment
p2413
aVof
p2414
aV@mit
p2415
aVand
p2416
aVits
p2417
aVpersistent
p2418
aVfailure
p2419
aVto
p2420
aVprotect
p2421
aVstudents
p2422
aV\u2014
aV@starsandrobots
p2423
aVreflects
p2424
aVon
p2425
aV2007
p2426
aVgunpoint
p2427
aVarrest
p2428
aVhttps://t.
p2429
aV\u2026
asg14
g15
(S'\x07\xdf\x0c\x12\x08+\x0f\x00\x00\x00'
tRp2430
sg17
Nsa(dp2431
g3
(lp2432
Vrt
p2433
aV@twitterdev
p2434
aV:
aVnew
p2435
aVon
p2436
aVhttps://t.co/wd8tsexkwe,
p2437
aVcustomize
p2438
aVyour
p2439
aVembedded
p2440
aVgrid
p2441
aVto
p2442
aVdisplay
p2443
aVexactly
p2444
aVthe
p2445
aVright
p2446
aVnumber
p2447
aVof
p2448
aVtweets
p2449
aVfor
p2450
aVyour
p2451
aVsite
p2452
aV.
aVh
aV\u2026
asg14
g15
(S'\x07\xdf\x0c\x12\x003;\x00\x00\x00'
tRp2453
sg17
Nsa(dp2454
g3
(lp2455
V@ltm
p2456
aVwhat
p2457
aVabout
p2458
aVthe
p2459
aVnew
p2460
aVone
p2461
aV?
asg14
g15
(S'\x07\xdf\x0c\x11\x173\x08\x00\x00\x00'
tRp2462
sg17
Nsa(dp2463
g3
(lp2464
V@ryanoneill
p2465
aVwhat
p2466
aVabout
p2467
aVthe
p2468
aVnew
p2469
aVone
p2470
aV?
asg14
g15
(S'\x07\xdf\x0c\x11\x1728\x00\x00\x00'
tRp2471
sg17
Nsa(dp2472
g3
(lp2473
Vwhen
p2474
aVdoes
p2475
aVstar
p2476
aVwars
p2477
aVcome
p2478
aVout
p2479
aV?
asg14
g15
(S'\x07\xdf\x0c\x11\x17-$\x00\x00\x00'
tRp2480
sg17
Nsa(dp2481
g3
(lp2482
V@justmadhu
p2483
aV@jzaslav
p2484
aVnot
p2485
aVshameful
p2486
aVat
p2487
aVall
p2488
aV.
aVand
p2489
aVyou
p2490
aVmissed
p2491
aVthe
p2492
aVimportant
p2493
aVones
p2494
aV:
asg14
g15
(S'\x07\xdf\x0c\x11\x16\x12-\x00\x00\x00'
tRp2495
sg17
Nsa(dp2496
g3
(lp2497
V@__dave
p2498
aV@chartio
p2499
aVlooks
p2500
aVgreat
p2501
aV!
asg14
g15
(S'\x07\xdf\x0c\x11\x15-2\x00\x00\x00'
tRp2502
sg17
Nsa(dp2503
g3
(lp2504
V@mdb
p2505
aV@itstalitime
p2506
aVmark
p2507
aV,
aVi'd
p2508
aVappreciate
p2509
aVif
p2510
aVyou
p2511
aVtweeted
p2512
aVin
p2513
aVlyric
p2514
aV,
aVnext
p2515
aVtime
p2516
aV.
asg14
g15
(S'\x07\xdf\x0c\x11\x02&%\x00\x00\x00'
tRp2517
sg17
Nsa(dp2518
g3
(lp2519
Vplant
p2520
aVme
p2521
aV!
aVthanks
p2522
aV@blueapron
p2523
aVhttps://t.co/wcz3rrh4ci
p2524
asg14
g15
(S'\x07\xdf\x0c\x10\x0597\x00\x00\x00'
tRp2525
sg17
Nsa(dp2526
g3
(lp2527
Vrt
p2528
aV@hillaryclinton
p2529
aV:
aVthe
p2530
aVcandidates
p2531
aVon
p2532
aVstage
p2533
aVtalk
p2534
aVtough
p2535
aV\u2014
aVbut
p2536
aVthey
p2537
aVwon't
p2538
aVeven
p2539
aVsupport
p2540
aVlegislation
p2541
aVpreventing
p2542
aVsuspected
p2543
aVterrorists
p2544
aVfrom
p2545
aVgetting
p2546
aV\u2026
asg14
g15
(S'\x07\xdf\x0c\x10\x047\x01\x00\x00\x00'
tRp2547
sg17
Nsa(dp2548
g3
(lp2549
V@buster
p2550
aVthat's
p2551
aVawesome
p2552
aV,
aVcongratulations
p2553
aV!
asg14
g15
(S'\x07\xdf\x0c\x10\x0252\x00\x00\x00'
tRp2554
sg17
Nsa(dp2555
g3
(lp2556
Vcongrats
p2557
aV@joannauk
p2558
aV@justmadhu
p2559
aV@magicandrew
p2560
aV\u26a1
aV\ufe0f
aV\u26a1
aV\ufe0f
aV\u26a1
aV\ufe0f
asg14
g15
(S'\x07\xdf\x0c\x0f\x0f\x1e/\x00\x00\x00'
tRp2561
sg17
Nsa(dp2562
g3
(lp2563
V@erducker
p2564
aVi
aVinvited
p2565
aVyou
p2566
aVto
p2567
aV@producthunt
p2568
aV,
aVa
aVcommunity
p2569
aVof
p2570
aVproduct-loving
p2571
aVfolks
p2572
aV.
aVjoin
p2573
aVhere
p2574
aV:
aVhttps://t.co/bmgbngkazh
p2575
asg14
g15
(S'\x07\xdf\x0c\x0f\x01\x0e*\x00\x00\x00'
tRp2576
sg17
Nsa(dp2577
g3
(lp2578
V@mikeindustries
p2579
aVcongrats
p2580
aV!
aV!
aV!
aVand
p2581
aVthank
p2582
aVyou
p2583
aV!
aVwe
p2584
aVhave
p2585
aVa
aVlot
p2586
aVto
p2587
aVlearn
p2588
aVfrom
p2589
aVyour
p2590
aVleadership
p2591
aV\U0001f60d
aV\U0001f60d
aV\U0001f60d
asg14
g15
(S'\x07\xdf\x0c\x0f\x00\x04\x02\x00\x00\x00'
tRp2592
sg17
Nsa(dp2593
g3
(lp2594
V@tomcoates
p2595
aVswitch
p2596
aVto
p2597
aV@doorman
p2598
aV?
asg14
g15
(S'\x07\xdf\x0c\x0e\x15\x1b\x1c\x00\x00\x00'
tRp2599
sg17
Nsa(dp2600
g3
(lp2601
V@andypiper
p2602
aVnone
p2603
aVof
p2604
aVthose
p2605
aVbricks
p2606
aVare
p2607
aVlisted
p2608
aVon
p2609
aVbrickset
p2610
aV,
aVare
p2611
aVyou
p2612
aVsure
p2613
aVthey're
p2614
aVreal
p2615
aV?
asg14
g15
(S'\x07\xdf\x0c\x0e\x13\r8\x00\x00\x00'
tRp2616
sg17
Nsa(dp2617
g3
(lp2618
Vrt
p2619
aV@allendowney
p2620
aV:
aVan
p2621
aVexcellent
p2622
aVpost
p2623
aVfrom
p2624
aVrick
p2625
aVmiller
p2626
aV,
aVpresident
p2627
aVof
p2628
aVolin
p2629
aVcollege
p2630
aV:
aVhttps://t.co/baxmw09qoy
p2631
asg14
g15
(S'\x07\xdf\x0c\x0e\x10*\x08\x00\x00\x00'
tRp2632
sg17
Nsa(dp2633
g3
(lp2634
Vpaging
p2635
aV@coolasspuppy
p2636
aVhttps://t.co/fyegkrzy9c
p2637
asg14
g15
(S'\x07\xdf\x0c\x0e\x10\x00\r\x00\x00\x00'
tRp2638
sg17
Nsa(dp2639
g3
(lp2640
V@psyfe
p2641
aV@meat
p2642
aVthey
p2643
aVused
p2644
aVto
p2645
aVsell
p2646
aVit
p2647
aVstateside
p2648
aVat
p2649
aVsafeway
p2650
aV.
aV.
aVhaven't
p2651
aVseen
p2652
aVit
p2653
aVin
p2654
aVyears
p2655
aVthough
p2656
asg14
g15
(S'\x07\xdf\x0c\x0e\x0f06\x00\x00\x00'
tRp2657
sg17
Nsa(dp2658
g3
(lp2659
V@tjlull
p2660
aVand
p2661
aVi'm
p2662
aVrose
p2663
aV!
aV!
aV!
aV\U0001f339
aV\U0001f339
aV\U0001f339
asg14
g15
(S'\x07\xdf\x0c\x0e\x04\x1f\x12\x00\x00\x00'
tRp2664
sg17
Nsa(dp2665
g3
(lp2666
Va
aVsan
p2667
aVfrancisco
p2668
aVholiday
p2669
aVtradition
p2670
aV!
aVhttps://t.co/qtwocs8qhj
p2671
asg14
g15
(S'\x07\xdf\x0c\x0e\x025"\x00\x00\x00'
tRp2672
sg17
Nsa.