(lp1
(dp2
S'text'
p3
(lp4
Va
aVbeautiful
p5
aVmind
p6
aVand
p7
aVa
aVbeautiful
p8
aVheart
p9
asS'created_at'
p10
cdatetime
datetime
p11
(S'\x07\xe0\x01\x18\x0b\x02\x12\x00\x00\x00'
tRp12
sS'lat/long'
p13
NsS'name'
p14
VOddCheeto
p15
sa(dp16
g3
(lp17
Vrt
p18
aV@oldiesrule4ever
p19
aV:
aVvicente
p20
aVfernandez
p21
aV-
aVpor
p22
aVtu
p23
aVmaldito
p24
aVamor
p25
aVhttps://t.co/omjqrs0toa
p26
asg10
g11
(S'\x07\xe0\x01\x18\x0b\x01\x05\x00\x00\x00'
tRp27
sg13
Nsg14
VOddCheeto
p28
sa(dp29
g3
(lp30
Vrt
p31
aV@gunnersellwhite
p32
aV:
aVlong
p33
aVlive
p34
aV@asapyams
p35
aV.
aVhttps://t.co/qzqyzk4sys
p36
asg10
g11
(S'\x07\xe0\x01\x17\x13,\x10\x00\x00\x00'
tRp37
sg13
Nsg14
VOddCheeto
p38
sa(dp39
g3
(lp40
V@mermaidlocks
p41
aVfuuck
p42
aVi
aVcan't
p43
aVtake
p44
aVgrammar
p45
aVerrors
p46
asg10
g11
(S'\x07\xe0\x01\x17\x12 \x08\x00\x00\x00'
tRp47
sg13
Nsg14
VOddCheeto
p48
sa(dp49
g3
(lp50
Vrt
p51
aV@big_harg72
p52
aV:
aVcollege
p53
aVparties
p54
aVare
p55
aVgreat
p56
aV:
aVyou're
p57
aVtaking
p58
aVshots
p59
aVwith
p60
aVfuture
p61
aVdoctors
p62
aVand
p63
aVthe
p64
aVnext
p65
aVsupreme
p66
aVcourt
p67
aVjudge
p68
aVis
p69
aVthrowing
p70
aVup
p71
aVin
p72
aVthe
p73
aVb
aV\u2026
asg10
g11
(S'\x07\xe0\x01\x17\n(\x1b\x00\x00\x00'
tRp74
sg13
Nsg14
VOddCheeto
p75
sa(dp76
g3
(lp77
Vthe
p78
aVday
p79
aVi
aVfeel
p80
aVa
aVwomen
p81
aVunderstands
p82
aVme
p83
aVis
p84
aVthe
p85
aVday
p86
aVi
aVwill
p87
aVget
p88
aVdown
p89
aVon
p90
aVone
p91
aVknee
p92
aV.
asg10
g11
(S'\x07\xe0\x01\x17\n&\x01\x00\x00\x00'
tRp93
sg13
Nsg14
VOddCheeto
p94
sa(dp95
g3
(lp96
Vrt
p97
aV@ava_bellz
p98
aV:
aV9
aV.
aVthe
p99
aVsingle
p100
aVgreatest
p101
aVwedding
p102
aVin
p103
aVall
p104
aVof
p105
aVtelevision
p106
aVhistory
p107
aVhttps://t.co/qsr6spy86u
p108
asg10
g11
(S'\x07\xe0\x01\x16\x15\x06\x16\x00\x00\x00'
tRp109
sg13
Nsg14
VOddCheeto
p110
sa(dp111
g3
(lp112
Vrt
p113
aV@ava_bellz
p114
aV:
aV10
p115
aV.
aVjim's
p116
aVtoast
p117
aVto
p118
aVpam
p119
aVhttps://t.co/bhjmdhyfaz
p120
asg10
g11
(S'\x07\xe0\x01\x16\x15\x06\n\x00\x00\x00'
tRp121
sg13
Nsg14
VOddCheeto
p122
sa(dp123
g3
(lp124
Vrt
p125
aV@ava_bellz
p126
aV:
aV11
p127
aV.
aVjim
p128
aVcutting
p129
aVoff
p130
aVhis
p131
aVtie
p132
aVto
p133
aVmatch
p134
aVpam's
p135
aVveil
p136
aV:
aV'
aV)
aVhttps://t.co/rx195geied
p137
asg10
g11
(S'\x07\xe0\x01\x16\x15\x06\x06\x00\x00\x00'
tRp138
sg13
Nsg14
VOddCheeto
p139
sa(dp140
g3
(lp141
Vrt
p142
aV@daiiyrap
p143
aV:
aVa
aV$
aVap
p144
aVrocky
p145
aVfeat
p146
aV.
aVjuicy
p147
aVj
aV-
aVmultiply
p148
aVhttp://t.co/gyqnd5syvr
p149
asg10
g11
(S'\x07\xe0\x01\x16\x15\x05\x0b\x00\x00\x00'
tRp150
sg13
Nsg14
VOddCheeto
p151
sa(dp152
g3
(lp153
Vrt
p154
aV@drake
p155
aV:
aVjajajaja
p156
aVto
p157
aVall
p158
aVmy
p159
aVspanish
p160
aVgirls
p161
aVone
p162
aVtime
p163
aV.
asg10
g11
(S'\x07\xe0\x01\x16\x123-\x00\x00\x00'
tRp164
sg13
Nsg14
VOddCheeto
p165
sa(dp166
g3
(lp167
Vrt
p168
aV@thrvshx
p169
aV:
aVwhen
p170
aVyou
p171
aVfind
p172
aVthe
p173
aVguy
p174
aVthat
p175
aVput
p176
aV"
aVrawr
p177
aV"
aVon
p178
aVyour
p179
aVgirl
p180
aVpik
p181
aVhttps://t.co/9l3oibxuwf
p182
asg10
g11
(S'\x07\xe0\x01\x16\t\x1e\x1f\x00\x00\x00'
tRp183
sg13
Nsg14
VOddCheeto
p184
sa(dp185
g3
(lp186
Vrt
p187
aV@0regoon
p188
aV:
aV@yungbaseditachi
p189
aVmfdoom
p190
aVhttps://t.co/enetw4udzg
p191
asg10
g11
(S'\x07\xe0\x01\x16\t\x1d\x01\x00\x00\x00'
tRp192
sg13
Nsg14
VOddCheeto
p193
sa(dp194
g3
(lp195
Vrt
p196
aV@kevsdgaf
p197
aV:
aVme
p198
aV:
aVu
aVsmoke
p199
aV?
aVwhite
p200
aVkid
p201
aVin
p202
aVhuf
p203
aVsocks
p204
aV:
aVfuck
p205
aVyeah
p206
aVman
p207
aV420
p208
aVblaze
p209
aVit
p210
aVi
aVsmoke
p211
aVevery
p212
aVminute
p213
aVeveryday
p214
aVbro
p215
aVi
aVlove
p216
aVweed
p217
aVwbu
p218
aV?
asg10
g11
(S'\x07\xe0\x01\x16\x02 8\x00\x00\x00'
tRp219
sg13
Nsg14
VOddCheeto
p220
sa(dp221
g3
(lp222
Vrt
p223
aV@amoebamusic
p224
aV:
aVjust
p225
aVadded
p226
aV:
aVmc
p227
aV,
aVmusician
p228
aV&
aVamp
p229
aV;
aVwriter
p230
aV@homeboysandman
p231
aVplays
p232
aVa
aVfree
p233
aVshow
p234
aV@amoebaberkeley
p235
aVthursday
p236
aV,
aVfeb
p237
aV4
aVth
p238
aVat
p239
aV4
aVpm
p240
aV!
aVhttps://t.co
p241
aV\u2026
asg10
g11
(S'\x07\xe0\x01\x16\x02\x08\x1a\x00\x00\x00'
tRp242
sg13
Nsg14
VOddCheeto
p243
sa(dp244
g3
(lp245
Vwhen
p246
aVyour
p247
aVpre
p248
aVworkout
p249
aVmakes
p250
aVyou
p251
aVfeel
p252
aVlike
p253
aVyou
p254
aVdid
p255
aVa
aVline
p256
aVof
p257
aVcoke
p258
asg10
g11
(S'\x07\xe0\x01\x16\x02\x01"\x00\x00\x00'
tRp259
sg13
Nsg14
VOddCheeto
p260
sa(dp261
g3
(lp262
V@blooranges
p263
aVaww
p264
aVi'm
p265
aVpeewees
p266
aVdad
p267
asg10
g11
(S'\x07\xe0\x01\x16\x00\x0e\x17\x00\x00\x00'
tRp268
sg13
Nsg14
VOddCheeto
p269
sa(dp270
g3
(lp271
Vwatching
p272
aVthe
p273
aVoffice
p274
aVtaught
p275
aVme
p276
aVa
aVlot
p277
aVon
p278
aVpassion
p279
aVand
p280
aVcompanionship
p281
aV,
aVwill
p282
aValways
p283
aVbe
p284
aVone
p285
aVof
p286
aVmy
p287
aVfav
p288
aVshows
p289
aV.
asg10
g11
(S'\x07\xe0\x01\x15\t)\x08\x00\x00\x00'
tRp290
sg13
Nsg14
VOddCheeto
p291
sa(dp292
g3
(lp293
Vit's
p294
aVnice
p295
aVknowing
p296
aVi'll
p297
aVbe
p298
aVback
p299
aVin
p300
aVla
p301
aVpuente
p302
aVin
p303
aVfebruary
p304
aVfor
p305
aVa
aVbit
p306
asg10
g11
(S"\x07\xe0\x01\x15\t'\x0b\x00\x00\x00"
tRp307
sg13
Nsg14
VOddCheeto
p308
sa(dp309
g3
(lp310
Vall
p311
aVmy
p312
aVprofessors
p313
aVhave
p314
aVtheir
p315
aVown
p316
aVwikipedia
p317
aVpages
p318
aVswag
p319
asg10
g11
(S'\x07\xe0\x01\x15\x01\x1c\x00\x00\x00\x00'
tRp320
sg13
Nsg14
VOddCheeto
p321
sa(dp322
g3
(lp323
Vrt
p324
aV@ucberkeley
p325
aV:
aVwelcome
p326
aVback
p327
aVto
p328
aVberkeley
p329
aV\u2014
aVand
p330
aV"
aVhappy
p331
aV#nationalpopcornday
p332
aV"
aV!
aVhttps://t.co/czl3khxwy8
p333
asg10
g11
(S'\x07\xe0\x01\x14\x08\x02\t\x00\x00\x00'
tRp334
sg13
Nsg14
VOddCheeto
p335
sa(dp336
g3
(lp337
Vyo
p338
aVricardo's
p339
aVcat
p340
aVis
p341
aVfucking
p342
aVlegit
p343
aV.
asg10
g11
(S'\x07\xe0\x01\x14\x07::\x00\x00\x00'
tRp344
sg13
Nsg14
VOddCheeto
p345
sa(dp346
g3
(lp347
Vstuck
p348
aVin
p349
aVnintendo
p350
asg10
g11
(S'\x07\xe0\x01\x14\x0769\x00\x00\x00'
tRp351
sg13
Nsg14
VOddCheeto
p352
sa(dp353
g3
(lp354
Vrt
p355
aV@worldstarfunny
p356
aV:
aVlebron
p357
aV\u2019
aVs
aVface
p358
aVafter
p359
aVsteph
p360
aVcurry
p361
aVripped
p362
aVhim
p363
aVlast
p364
aVnight
p365
aV\U0001f602
aVhttps://t.co/dqou9apjge
p366
asg10
g11
(S'\x07\xe0\x01\x13\x17\t6\x00\x00\x00'
tRp367
sg13
Nsg14
VOddCheeto
p368
sa(dp369
g3
(lp370
Veither
p371
aVtaking
p372
aVintroduction
p373
aVto
p374
aVeconomics
p375
aVor
p376
aVthe
p377
aVnext
p378
aVseries
p379
aVof
p380
aVcalculus
p381
aVhmmmm
p382
asg10
g11
(S'\x07\xe0\x01\x13\n\x12\x1a\x00\x00\x00'
tRp383
sg13
Nsg14
VOddCheeto
p384
sa(dp385
g3
(lp386
Vtime
p387
aVfor
p388
aVa
aVsober
p389
aVsemester
p390
aV.
asg10
g11
(S'\x07\xe0\x01\x13\x07\x1f\x16\x00\x00\x00'
tRp391
sg13
Nsg14
VOddCheeto
p392
sa(dp393
g3
(lp394
Vthx
p395
aVto
p396
aVweed
p397
aVi
aVlost
p398
aV5
aVpounds
p399
aV\U0001f610
asg10
g11
(S'\x07\xe0\x01\x13\x07\x1a5\x00\x00\x00'
tRp400
sg13
Nsg14
VOddCheeto
p401
sa(dp402
g3
(lp403
Vrt
p404
aV@nbcnewsbreaks
p405
aV:
aVwinner
p406
aVof
p407
aV1.5
p408
aVb
aVpowerball
p409
aVjackpot
p410
aVdies
p411
aVof
p412
aVcocaine
p413
aVoverdose
p414
aVwhile
p415
aVpartying
p416
aVwith
p417
aVprostitutes
p418
aV.
aVhttps://t.co/v6vbtivllb
p419
aVhttps
p420
aV\u2026
asg10
g11
(S'\x07\xe0\x01\x13\x07\x05\x1f\x00\x00\x00'
tRp421
sg13
Nsg14
VOddCheeto
p422
sa(dp423
g3
(lp424
Vyou
p425
aVain't
p426
aVgot
p427
aVno
p428
aVflacko
p429
aVin
p430
aVyour
p431
aVserato
p432
aV?
aVmuthafucka
p433
aVbetter
p434
aVblast
p435
aVthat
p436
aVshit
p437
asg10
g11
(S'\x07\xe0\x01\x13\x05\x05\x0f\x00\x00\x00'
tRp438
sg13
Nsg14
VOddCheeto
p439
sa(dp440
g3
(lp441
Vrt
p442
aV@mattiasink
p443
aV:
aVa
aVsqueaky
p444
aVgang
p445
aVhttps://t.co/rq3kp18xd0
p446
asg10
g11
(S'\x07\xe0\x01\x12\x0f6 \x00\x00\x00'
tRp447
sg13
Nsg14
VOddCheeto
p448
sa(dp449
g3
(lp450
Vrt
p451
aV@govballnyc
p452
aV:
aVretweet
p453
aVfor
p454
aVa
aVchance
p455
aVto
p456
aVwin
p457
aVa
aVpair
p458
aVof
p459
aVvip
p460
aVtickets
p461
aVto
p462
aV#govballnyc
p463
aV.
aVhttps://t.co/ba9axxepnm
p464
asg10
g11
(S'\x07\xe0\x01\x12\x0f6\x18\x00\x00\x00'
tRp465
sg13
Nsg14
VOddCheeto
p466
sa(dp467
g3
(lp468
Vit's
p469
aVsad
p470
aVloving
p471
aVthe
p472
aVidea
p473
aVof
p474
aVa
aVperson
p475
aVbut
p476
aVnot
p477
aVwhat's
p478
aVbetween
p479
aVyourself
p480
aVand
p481
aVthem
p482
asg10
g11
(S'\x07\xe0\x01\x12\x08#\x03\x00\x00\x00'
tRp483
sg13
Nsg14
VOddCheeto
p484
sa(dp485
g3
(lp486
Vnice
p487
aVedible
p488
aVto
p489
aVset
p490
aVthe
p491
aVmood
p492
aVfor
p493
aVthe
p494
aVbus
p495
aVtrip
p496
asg10
g11
(S'\x07\xe0\x01\x12\x08"\x05\x00\x00\x00'
tRp497
sg13
Nsg14
VOddCheeto
p498
sa(dp499
g3
(lp500
Vlife
p501
aVis
p502
aValright
p503
asg10
g11
(S'\x07\xe0\x01\x12\x08"\x05\x00\x00\x00'
tRp504
sg13
Nsg14
VOddCheeto
p505
sa(dp506
g3
(lp507
Vi'm
p508
aValways
p509
aVtoo
p510
aVsad
p511
aVto
p512
aVdo
p513
aVanything
p514
aVon
p515
aVmy
p516
aVlast
p517
aVdays
p518
aVbefore
p519
aVi
aVleave
p520
aV.
asg10
g11
(S'\x07\xe0\x01\x12\x04\x0b3\x00\x00\x00'
tRp521
sg13
Nsg14
VOddCheeto
p522
sa(dp523
g3
(lp524
Vgot
p525
aVinvited
p526
aVto
p527
aVa
aVfrat
p528
aVparty
p529
aVin
p530
aVberkeley
p531
aVbut
p532
aVi'm
p533
aVstill
p534
aVhere
p535
aVrip
p536
asg10
g11
(S'\x07\xe0\x01\x12\x034\x01\x00\x00\x00'
tRp537
sg13
Nsg14
VOddCheeto
p538
sa(dp539
g3
(lp540
Vi
aVremember
p541
aVlp
p542
aVhigh
p543
aVgave
p544
aVa
aVpaper
p545
aVtelling
p546
aVall
p547
aVstudents
p548
aVabout
p549
aVwhooping
p550
aVcough
p551
aVcase
p552
aVbecause
p553
aVi
aVhad
p554
aVit
p555
aVand
p556
aVi
aVkept
p557
aVgoing
p558
aVto
p559
aVschool
p560
aVlmao
p561
asg10
g11
(S'\x07\xe0\x01\x11\x067\x01\x00\x00\x00'
tRp562
sg13
Nsg14
VOddCheeto
p563
sa(dp564
g3
(lp565
Vrt
p566
aV@babyanimalpics
p567
aV:
aVme
p568
aVwith
p569
aVevery
p570
aVdog
p571
aVhttps://t.co/v5eovmitl4
p572
asg10
g11
(S'\x07\xe0\x01\x11\x04\x08\x00\x00\x00\x00'
tRp573
sg13
Nsg14
VOddCheeto
p574
sa(dp575
g3
(lp576
Vrt
p577
aV@highkeyhiphop
p578
aV:
aVbrand
p579
aVnew
p580
aV*
aVdrake
p581
aVfeat
p582
aVasap
p583
aVrocky
p584
aV-
aVwu
p585
aVtang
p586
aVforever
p587
aVremix
p588
aVhttps://t.co/rna1z59xtr
p589
asg10
g11
(S'\x07\xe0\x01\x11\x0369\x00\x00\x00'
tRp590
sg13
Nsg14
VOddCheeto
p591
sa(dp592
g3
(lp593
Vrt
p594
aV@torzkilz
p595
aV:
aVthat
p596
aVone
p597
aVmeal
p598
aVa
aVday
p599
aVgrind
p600
aVso
p601
aVi
aVget
p602
aVdrunk
p603
aVfaster
p604
asg10
g11
(S'\x07\xe0\x01\x11\x00+9\x00\x00\x00'
tRp605
sg13
Nsg14
VOddCheeto
p606
sa(dp607
g3
(lp608
Vrt
p609
aV@villainize
p610
aV:
aVplay
p611
aVperfect
p612
aVcell's
p613
aVtheme
p614
aVsong
p615
aVat
p616
aVmy
p617
aVfuneral
p618
asg10
g11
(S'\x07\xe0\x01\x10\x06\x04*\x00\x00\x00'
tRp619
sg13
Nsg14
VOddCheeto
p620
sa(dp621
g3
(lp622
Vrt
p623
aV@rron_
p624
aV:
aVwhen
p625
aVher
p626
aVtwitter
p627
aVbio
p628
aVis
p629
aV"
aVi
aVprobably
p630
aVhate
p631
aVyou
p632
aV"
aVhttp://t.co/dshfa5zlxm
p633
asg10
g11
(S'\x07\xe0\x01\x10\x05\x1d\x0c\x00\x00\x00'
tRp634
sg13
Nsg14
VOddCheeto
p635
sa(dp636
g3
(lp637
V2
aVam
p638
aVdrugs
p639
aVon
p640
aVa
aVbeach
p641
asg10
g11
(S'\x07\xe0\x01\x0f\n\x14\x05\x00\x00\x00'
tRp642
sg13
Nsg14
VOddCheeto
p643
sa(dp644
g3
(lp645
Vrt
p646
aV@theciassicjams
p647
aV:
aVbryson
p648
aVtiller
p649
aVx
aVdon't
p650
aVhttp://t.co/hk05ht7pya
p651
asg10
g11
(S'\x07\xe0\x01\x0f\x06\x19\x0b\x00\x00\x00'
tRp652
sg13
Nsg14
VOddCheeto
p653
sa(dp654
g3
(lp655
Vrt
p656
aV@tribecalledgod
p657
aV:
aVisaiah
p658
aVrashad
p659
aVdrops
p660
aVa
aVbanger
p661
aVtitled
p662
aV'
aVsmile
p663
aV'
aVhttps://t.co/xmmmznxw2q
p664
asg10
g11
(S'\x07\xe0\x01\x0f\x01\x1b\x1b\x00\x00\x00'
tRp665
sg13
Nsg14
VOddCheeto
p666
sa(dp667
g3
(lp668
Vrt
p669
aV@abc7
p670
aV:
aVformer
p671
aV"
aVpower
p672
aVrangers
p673
aV"
aVactor
p674
aVcharged
p675
aVwith
p676
aVmurder
p677
aVin
p678
aVroommate's
p679
aVstabbing
p680
aVdeath
p681
aVhttps://t.co/niinwoknvr
p682
aVhttps://t.co/4efumnloct
p683
asg10
g11
(S'\x07\xe0\x01\x0f\x01\n,\x00\x00\x00'
tRp684
sg13
Nsg14
VOddCheeto
p685
sa(dp686
g3
(lp687
Vrt
p688
aV@thepowerballguy
p689
aV:
aVnot
p690
aVselfish
p691
aV!
aVgiving
p692
aVaway
p693
aV1,000
p694
aVto
p695
aVeveryone
p696
aVwho
p697
aVretweets
p698
aVthis
p699
aVand
p700
aVfollows
p701
aVme
p702
aVwithin
p703
aV24
p704
aVhours
p705
aV!
aV#powerball
p706
aV#giveback
p707
aVhttp
p708
aV\u2026
asg10
g11
(S'\x07\xe0\x01\x0e\x13\x08\x15\x00\x00\x00'
tRp709
sg13
Nsg14
VOddCheeto
p710
sa(dp711
g3
(lp712
Vrt
p713
aV@nastyhiphop
p714
aV:
aVa
aV$
aVap
p715
aVrocky
p716
aV-
aVexcuse
p717
aVme
p718
aVhttps://t.co/abucystltf
p719
asg10
g11
(S'\x07\xe0\x01\x0e\x043*\x00\x00\x00'
tRp720
sg13
Nsg14
VOddCheeto
p721
sa(dp722
g3
(lp723
Vrt
p724
aV@blooranges
p725
aV:
aVfuuuuuckkk
p726
aVhahahahahahahaha
p727
aVhttps://t.co/vapakinl43
p728
asg10
g11
(S'\x07\xe0\x01\r\x170\r\x00\x00\x00'
tRp729
sg13
Nsg14
VOddCheeto
p730
sa(dp731
g3
(lp732
Vrt
p733
aV@themasenkobeast
p734
aV:
aVwhen
p735
aVyou
p736
aVnut
p737
aVafter
p738
aV30
p739
aVseconds
p740
aVbut
p741
aVbae
p742
aVhas
p743
aVfaith
p744
aVin
p745
aVyou
p746
aVto
p747
aVredeem
p748
aVyourself
p749
aVhttp://t.co/jinbbd9ngh
p750
asg10
g11
(S'\x07\xe0\x01\r\x15;;\x00\x00\x00'
tRp751
sg13
Nsg14
VOddCheeto
p752
sa(dp753
g3
(lp754
Vi
aVprefer
p755
aVthe
p756
aVcomfort
p757
aVof
p758
aVmy
p759
aVown
p760
aVhome
p761
aVover
p762
aVmany
p763
aVthings
p764
asg10
g11
(S'\x07\xe0\x01\r\x03$\x0f\x00\x00\x00'
tRp765
sg13
Nsg14
VOddCheeto
p766
sa(dp767
g3
(lp768
Vrt
p769
aV@brysontliier
p770
aV:
aVe
aVx
aVc
aVh
aVa
aVn
aVg
aVe
aVhttps://t.co/py9phr13pr
p771
asg10
g11
(S'\x07\xe0\x01\r\x03\x1e\x18\x00\x00\x00'
tRp772
sg13
Nsg14
VOddCheeto
p773
sa(dp774
g3
(lp775
Vrt
p776
aV@berlinvious
p777
aV:
aVhella
p778
aVhoes
p779
aVhttps://t.co/f1mub75xpo
p780
asg10
g11
(S'\x07\xe0\x01\x0c\t\r\x01\x00\x00\x00'
tRp781
sg13
Nsg14
VOddCheeto
p782
sa(dp783
g3
(lp784
Vrt
p785
aV@jlaskk_51
p786
aV:
aVthe
p787
aVbiggest
p788
aVhttps://t.co/yxclndyugd
p789
asg10
g11
(S'\x07\xe0\x01\x0c\t\x0c"\x00\x00\x00'
tRp790
sg13
Nsg14
VOddCheeto
p791
sa(dp792
g3
(lp793
Vrt
p794
aV@jlaskk_51
p795
aV:
aVbooty
p796
aVcall
p797
aVhours
p798
aVhttps://t.co/fpcrpxczkx
p799
asg10
g11
(S'\x07\xe0\x01\x0c\t\x0c\x14\x00\x00\x00'
tRp800
sg13
Nsg14
VOddCheeto
p801
sa(dp802
g3
(lp803
Vi
aVlook
p804
aVso
p805
aVfaded
p806
aVin
p807
aVricardo's
p808
aVphhhoto
p809
aV*
aVlol
p810
asg10
g11
(S'\x07\xe0\x01\x0c\x06\x014\x00\x00\x00'
tRp811
sg13
Nsg14
VOddCheeto
p812
sa(dp813
g3
(lp814
Vgood
p815
aVtimes
p816
asg10
g11
(S'\x07\xe0\x01\x0c\x06\x01\x0f\x00\x00\x00'
tRp817
sg13
Nsg14
VOddCheeto
p818
sa(dp819
g3
(lp820
Vrt
p821
aV@trapyeezus
p822
aV:
aVhttps://t.co/bruovoilq5
p823
asg10
g11
(S'\x07\xe0\x01\x0c\x05\x11\x03\x00\x00\x00'
tRp824
sg13
Nsg14
VOddCheeto
p825
sa(dp826
g3
(lp827
Vrt
p828
aV@coliegestudent
p829
aV:
aVme
p830
aVwith
p831
aVevery
p832
aVdog
p833
aVhttps://t.co/rrarfhkfjt
p834
asg10
g11
(S'\x07\xe0\x01\x0c\x039$\x00\x00\x00'
tRp835
sg13
Nsg14
VOddCheeto
p836
sa(dp837
g3
(lp838
Vrt
p839
aV@torzkilz
p840
aV:
aVlaughing
p841
aVbc
p842
aVlife
p843
aVis
p844
aVa
aVshit
p845
aVshow
p846
asg10
g11
(S'\x07\xe0\x01\x0b\x170\x00\x00\x00\x00'
tRp847
sg13
Nsg14
VOddCheeto
p848
sa(dp849
g3
(lp850
Vrt
p851
aV@splderw0man
p852
aV:
aVdundies
p853
aV2016
p854
aVhttps://t.co/k2gbhii7jj
p855
asg10
g11
(S'\x07\xe0\x01\x0b\x07\x111\x00\x00\x00'
tRp856
sg13
Nsg14
VOddCheeto
p857
sa(dp858
g3
(lp859
V@fabsteryo
p860
aVlmfao
p861
aVwtfff
p862
asg10
g11
(S'\x07\xe0\x01\x0b\x07\x074\x00\x00\x00'
tRp863
sg13
Nsg14
VOddCheeto
p864
sa(dp865
g3
(lp866
Vrt
p867
aV@30secondindie
p868
aV:
aVthe
p869
aVkillers
p870
aV-
aV"
aVwhen
p871
aVyou
p872
aVwere
p873
aVyoung
p874
aV"
aVhttps://t.co/ur9nju8dx8
p875
asg10
g11
(S'\x07\xe0\x01\x0b\x06\x146\x00\x00\x00'
tRp876
sg13
Nsg14
VOddCheeto
p877
sa(dp878
g3
(lp879
Vrt
p880
aV@kanyewest
p881
aV:
aVhttp://t.co/cj3qbuubli
p882
asg10
g11
(S'\x07\xe0\x01\x0b\x04*#\x00\x00\x00'
tRp883
sg13
Nsg14
VOddCheeto
p884
sa(dp885
g3
(lp886
Vrt
p887
aV@goldenglobes
p888
aV:
aV.
aV@leodicaprio
p889
aVwins
p890
aVbest
p891
aVactor
p892
aV-
aVmotion
p893
aVpicture
p894
aV,
aVdrama
p895
aVfor
p896
aV@revenantmovie
p897
aV.
aV#goldenglobes
p898
aVhttps://t.co/odfwvhrdfg
p899
asg10
g11
(S'\x07\xe0\x01\x0b\x04(.\x00\x00\x00'
tRp900
sg13
Nsg14
VOddCheeto
p901
sa(dp902
g3
(lp903
Vrt
p904
aV@goddddamnnn
p905
aV:
aVmalcolm
p906
aVin
p907
aVthe
p908
aVmiddle
p909
aVn
aVchill
p910
aV?
asg10
g11
(S'\x07\xe0\x01\n\x12!\x10\x00\x00\x00'
tRp911
sg13
Nsg14
VOddCheeto
p912
sa(dp913
g3
(lp914
Vrt
p915
aV@kanyewest
p916
aV:
aVswish
p917
aVfebruary
p918
aV11
p919
aV16
p920
asg10
g11
(S'\x07\xe0\x01\t\x032\x1c\x00\x00\x00'
tRp921
sg13
Nsg14
VOddCheeto
p922
sa(dp923
g3
(lp924
Vrt
p925
aV@sideninja
p926
aV:
aVspirited
p927
aVaway
p928
aVhttps://t.co/hqwixawglf
p929
asg10
g11
(S'\x07\xe0\x01\x07\x12\x19\x0f\x00\x00\x00'
tRp930
sg13
Nsg14
VOddCheeto
p931
sa(dp932
g3
(lp933
Vjust
p934
aVlike
p935
aVtheir
p936
aVdad
p937
aV,
aVhopefully
p938
aV.
asg10
g11
(S'\x07\xe0\x01\x07\n\x19-\x00\x00\x00'
tRp939
sg13
Nsg14
VOddCheeto
p940
sa(dp941
g3
(lp942
Vthey
p943
aVare
p944
aVgoing
p945
aVto
p946
aVbe
p947
aVrich
p948
aVin
p949
aVknowledge
p950
aVand
p951
aVcompassion
p952
aV.
aVbut
p953
aVnever
p954
aVtoo
p955
aVsoft
p956
aVto
p957
aVbe
p958
aVcheated
p959
aVby
p960
aVthe
p961
aVsystem
p962
aV.
asg10
g11
(S'\x07\xe0\x01\x07\n\x19\r\x00\x00\x00'
tRp963
sg13
Nsg14
VOddCheeto
p964
sa(dp965
g3
(lp966
Vi'm
p967
aVgoing
p968
aVto
p969
aVbe
p970
aVthe
p971
aVbest
p972
aVpossible
p973
aVdad
p974
aVto
p975
aVmy
p976
aVchildren
p977
aV.
aVgive
p978
aVthem
p979
aVanything
p980
aVthey
p981
aVneed
p982
aVto
p983
aVsucceed
p984
aVin
p985
aVthis
p986
aVunbalanced
p987
aVworld
p988
aV.
asg10
g11
(S'\x07\xe0\x01\x07\n\x17\x1b\x00\x00\x00'
tRp989
sg13
Nsg14
VOddCheeto
p990
sa(dp991
g3
(lp992
Vsike
p993
aV,
aValways
p994
aVchilling
p995
asg10
g11
(S'\x07\xe0\x01\x07\n\x0e)\x00\x00\x00'
tRp996
sg13
Nsg14
VOddCheeto
p997
sa(dp998
g3
(lp999
Vif
p1000
aVi
aVwas
p1001
aVa
aVchest
p1002
aVpiece
p1003
aVi'd
p1004
aVbe
p1005
aVa
aVknight
p1006
aVbecause
p1007
aVi'm
p1008
aValways
p1009
aVtaking
p1010
aVl's
p1011
asg10
g11
(S'\x07\xe0\x01\x07\n\r4\x00\x00\x00'
tRp1012
sg13
Nsg14
VOddCheeto
p1013
sa(dp1014
g3
(lp1015
V@jlaskk_51
p1016
aVthe
p1017
aVnotebook
p1018
asg10
g11
(S'\x07\xe0\x01\x07\x07\x12\x17\x00\x00\x00'
tRp1019
sg13
Nsg14
VOddCheeto
p1020
sa(dp1021
g3
(lp1022
Vrt
p1023
aV@brysontliier
p1024
aV:
aVbad
p1025
aVrelationships
p1026
aVchange
p1027
aVgood
p1028
aVpeople
p1029
asg10
g11
(S'\x07\xe0\x01\x07\x06\x03\x10\x00\x00\x00'
tRp1030
sg13
Nsg14
VOddCheeto
p1031
sa(dp1032
g3
(lp1033
Vrt
p1034
aV@raphubus
p1035
aV:
aVodd
p1036
aVfuture
p1037
aV-
aVoldie
p1038
aVhttps://t.co/ykkpkbkxqs
p1039
asg10
g11
(S'\x07\xe0\x01\x06\t)\x0b\x00\x00\x00'
tRp1040
sg13
Nsg14
VOddCheeto
p1041
sa(dp1042
g3
(lp1043
Vrt
p1044
aV@daintymelly_
p1045
aV:
aVjust
p1046
aVdo
p1047
aVyou
p1048
aV,
aVfocus
p1049
aVon
p1050
aVyou
p1051
aV.
asg10
g11
(S'\x07\xe0\x01\x06\x08:3\x00\x00\x00'
tRp1052
sg13
Nsg14
VOddCheeto
p1053
sa(dp1054
g3
(lp1055
Vit's
p1056
aVnice
p1057
aVwhen
p1058
aVyour
p1059
aVday
p1060
aVturns
p1061
aVaround
p1062
aV.
asg10
g11
(S'\x07\xe0\x01\x06\x07)1\x00\x00\x00'
tRp1063
sg13
Nsg14
VOddCheeto
p1064
sa(dp1065
g3
(lp1066
Vrt
p1067
aV@nohoesnextdoor
p1068
aV:
aVfemales
p1069
aVwho
p1070
aVare
p1071
aVbad
p1072
aVaf
p1073
aVbut
p1074
aVgot
p1075
aVa
aVshitty
p1076
aVpersonality
p1077
aVare
p1078
aVlike
p1079
aVniggas
p1080
aVwho
p1081
aVare
p1082
aV6
aV'
aV4
aVand
p1083
aVcan't
p1084
aVdunk
p1085
aVthey
p1086
aVboth
p1087
aVuseless
p1088
aVin
p1089
aVso
p1090
aV\u2026
asg10
g11
(S'\x07\xe0\x01\x06\x05("\x00\x00\x00'
tRp1091
sg13
Nsg14
VOddCheeto
p1092
sa(dp1093
g3
(lp1094
Vrt
p1095
aV@asapactivities
p1096
aV:
aVi'm
p1097
aVa
aVjiggy
p1098
aVnigga
p1099
aVhttps://t.co/oyn61wa4t4
p1100
asg10
g11
(S"\x07\xe0\x01\x06\x05'\x15\x00\x00\x00"
tRp1101
sg13
Nsg14
VOddCheeto
p1102
sa(dp1103
g3
(lp1104
Vrt
p1105
aV@nastyhiphop
p1106
aV:
aVmac
p1107
aVmiller
p1108
aV-
aVbrand
p1109
aVname
p1110
aV\U0001f480
aVhttps://t.co/ws6nx9w7sd
p1111
asg10
g11
(S'\x07\xe0\x01\x06\x02\x1b\x19\x00\x00\x00'
tRp1112
sg13
Nsg14
VOddCheeto
p1113
sa(dp1114
g3
(lp1115
Vrt
p1116
aV@nastyhiphop
p1117
aV:
aVa
aV$
aVap
p1118
aVrocky
p1119
aV-
aVlsd
p1120
aV\U0001f608
aVhttps://t.co/wlbhtao1ew
p1121
asg10
g11
(S'\x07\xe0\x01\x06\x02\x1b\x13\x00\x00\x00'
tRp1122
sg13
Nsg14
VOddCheeto
p1123
sa(dp1124
g3
(lp1125
Vrt
p1126
aV@travisscottwith
p1127
aV:
aVtravis
p1128
aVscott
p1129
aVwith
p1130
aVbryson
p1131
aVtiller
p1132
aVhttps://t.co/jofbzeopx7
p1133
asg10
g11
(S'\x07\xe0\x01\x05\t/&\x00\x00\x00'
tRp1134
sg13
Nsg14
VOddCheeto
p1135
sa(dp1136
g3
(lp1137
Vrt
p1138
aV@30secondrock
p1139
aV:
aVblink
p1140
aV182
p1141
aV-
aV"
aVwhat's
p1142
aVmy
p1143
aVage
p1144
aVagain
p1145
aV?
aV"
aVhttps://t.co/2mqqkqrrp2
p1146
asg10
g11
(S'\x07\xe0\x01\x05\t.\x12\x00\x00\x00'
tRp1147
sg13
Nsg14
VOddCheeto
p1148
sa(dp1149
g3
(lp1150
Vthey
p1151
aVlove
p1152
aVyou
p1153
aVor
p1154
aVthey
p1155
aVhate
p1156
aVyou
p1157
aV,
aVbut
p1158
aVthey
p1159
aVwill
p1160
aVnever
p1161
aVlet
p1162
aVyou
p1163
aVbe
p1164
asg10
g11
(S'\x07\xe0\x01\x05\t+\x1d\x00\x00\x00'
tRp1165
sg13
Nsg14
VOddCheeto
p1166
sa(dp1167
g3
(lp1168
Vrt
p1169
aV@jennnnni_
p1170
aV:
aVthe
p1171
aVoffice
p1172
aVseems
p1173
aVlike
p1174
aVa
aVgreat
p1175
aVshow
p1176
aVi'm
p1177
aVgoing
p1178
aVto
p1179
aVstart
p1180
aVwatching
p1181
aVit
p1182
aV.
asg10
g11
(S'\x07\xe0\x01\x05\t&\x1a\x00\x00\x00'
tRp1183
sg13
Nsg14
VOddCheeto
p1184
sa(dp1185
g3
(lp1186
Vthe
p1187
aVone
p1188
aVgirl
p1189
aVthat
p1190
aVgot
p1191
aVaway
p1192
aV.
asg10
g11
(S'\x07\xe0\x01\x05\t!\x0e\x00\x00\x00'
tRp1193
sg13
Nsg14
VOddCheeto
p1194
sa(dp1195
g3
(lp1196
Vrt
p1197
aV@funnyvideogame
p1198
aV:
aVi
aVlove
p1199
aVto
p1200
aVsmash
p1201
aV\U0001f3ae
aV\U0001f4af
aVhttps://t.co/rrn87tfpb5
p1202
asg10
g11
(S'\x07\xe0\x01\x05\x04.\x0c\x00\x00\x00'
tRp1203
sg13
Nsg14
VOddCheeto
p1204
sa(dp1205
g3
(lp1206
Vrt
p1207
aV@30secondindie
p1208
aV:
aVthe
p1209
aVstrokes
p1210
aV-
aV"
aVthe
p1211
aVmodern
p1212
aVage
p1213
aV"
aVhttps://t.co/ij2cmrjxal
p1214
asg10
g11
(S'\x07\xe0\x01\x04\x140 \x00\x00\x00'
tRp1215
sg13
Nsg14
VOddCheeto
p1216
sa(dp1217
g3
(lp1218
Vrt
p1219
aV@vsvpisvc
p1220
aV:
aVwhen
p1221
aVyou
p1222
aVplay
p1223
aVdrake
p1224
aVover
p1225
aVthe
p1226
aVphone
p1227
aVhttp://t.co/oqgz9o0jsx
p1228
asg10
g11
(S'\x07\xe0\x01\x04\t\x12-\x00\x00\x00'
tRp1229
sg13
Nsg14
VOddCheeto
p1230
sa(dp1231
g3
(lp1232
Vrt
p1233
aV@30secondindie
p1234
aV:
aVweezer
p1235
aV-
aV"
aVisland
p1236
aVin
p1237
aVthe
p1238
aVsun
p1239
aV"
aVhttps://t.co/izqw4cajdg
p1240
asg10
g11
(S'\x07\xe0\x01\x04\t\x12\x16\x00\x00\x00'
tRp1241
sg13
Nsg14
VOddCheeto
p1242
sa(dp1243
g3
(lp1244
Vrt
p1245
aV@allcapsoffice
p1246
aV:
aVme
p1247
aVwith
p1248
aVevery
p1249
aVfiber
p1250
aVof
p1251
aVmy
p1252
aVbeing
p1253
aV:
aVhttps://t.co/cbuumtjgqn
p1254
asg10
g11
(S'\x07\xe0\x01\x04\t\x12\x03\x00\x00\x00'
tRp1255
sg13
Nsg14
VOddCheeto
p1256
sa(dp1257
g3
(lp1258
Vrt
p1259
aV@ryanst3ezus
p1260
aV:
aVi
aVhonestly
p1261
aVhave
p1262
aVno
p1263
aVclue
p1264
aVwhat
p1265
aVye
p1266
aVsaid
p1267
aV.
aVstill
p1268
aVone
p1269
aVof
p1270
aVthe
p1271
aVmost
p1272
aVpowerful
p1273
aVthings
p1274
aVever
p1275
aVto
p1276
aVbe
p1277
aVsaid
p1278
aVin
p1279
aVhistory
p1280
aVof
p1281
aVman
p1282
aVkind
p1283
aV.
aVhttps
p1284
aV\u2026
asg10
g11
(S'\x07\xe0\x01\x04\t\x10\x0f\x00\x00\x00'
tRp1285
sg13
Nsg14
VOddCheeto
p1286
sa(dp1287
g3
(lp1288
Vrt
p1289
aV@raphubus
p1290
aV:
aVvince
p1291
aVstaples
p1292
aV-
aVnorf
p1293
aVnorf
p1294
aVhttps://t.co/fodffrx8bk
p1295
asg10
g11
(S'\x07\xe0\x01\x04\t\x0f/\x00\x00\x00'
tRp1296
sg13
Nsg14
VOddCheeto
p1297
sa(dp1298
g3
(lp1299
Vrt
p1300
aV@thespanishvines
p1301
aV:
aVthe
p1302
aVturn
p1303
aVup
p1304
aVis
p1305
aVreal
p1306
aVhttps://t.co/iqddnyl2bi
p1307
asg10
g11
(S'\x07\xe0\x01\x04\t\x0e7\x00\x00\x00'
tRp1308
sg13
Nsg14
VOddCheeto
p1309
sa(dp1310
g3
(lp1311
Vrt
p1312
aV@pictureslyrics
p1313
aV:
aVcoldplay
p1314
aV/
aV/
aVthe
p1315
aVscientist
p1316
aVhttp://t.co/ri6lg4zjd3
p1317
asg10
g11
(S'\x07\xe0\x01\x04\t\x0e\x1f\x00\x00\x00'
tRp1318
sg13
Nsg14
VOddCheeto
p1319
sa(dp1320
g3
(lp1321
Vrt
p1322
aV@postmalone
p1323
aV:
aVim
p1324
aVnot
p1325
aVworried
p1326
aVabout
p1327
aVyall
p1328
aVdoodoo
p1329
aVheads
p1330
aVhttp://t.co/2wgopnfu3b
p1331
asg10
g11
(S'\x07\xe0\x01\x03\x08!%\x00\x00\x00'
tRp1332
sg13
Nsg14
VOddCheeto
p1333
sa(dp1334
g3
(lp1335
Vlove
p1336
aVthe
p1337
aVnights
p1338
aVwere
p1339
aVi
aVcan
p1340
aVjust
p1341
aVrelax
p1342
aVin
p1343
aVmy
p1344
aVroom
p1345
aV.
aVjust
p1346
aVkick
p1347
aVback
p1348
aVand
p1349
aVwait
p1350
aVfor
p1351
aVtomorrow
p1352
aV.
asg10
g11
(S'\x07\xe0\x01\x03\x08\x0b\x19\x00\x00\x00'
tRp1353
sg13
Nsg14
VOddCheeto
p1354
sa(dp1355
g3
(lp1356
V@jlaskk_51
p1357
aVfo
p1358
aVsho
p1359
aVyou
p1360
aVknow
p1361
aVit
p1362
asg10
g11
(S'\x07\xe0\x01\x03\x04\x15\x06\x00\x00\x00'
tRp1363
sg13
Nsg14
VOddCheeto
p1364
sa(dp1365
g3
(lp1366
V@jlaskk_51
p1367
aVwork
p1368
aVstudy
p1369
aVdoesn't
p1370
aVcount
p1371
aVtowards
p1372
aVyour
p1373
aVincome
p1374
aVunless
p1375
aVyou
p1376
aVwant
p1377
aVit
p1378
aVto
p1379
asg10
g11
(S'\x07\xe0\x01\x03\x032\x11\x00\x00\x00'
tRp1380
sg13
Nsg14
VOddCheeto
p1381
sa(dp1382
g3
(lp1383
Vrt
p1384
aV@luisszaragozaa
p1385
aV:
aVdate
p1386
aVsomeone
p1387
aVyou
p1388
aVcan
p1389
aVgive
p1390
aVthe
p1391
aVaux
p1392
aVchord
p1393
aVto
p1394
asg10
g11
(S'\x07\xe0\x01\x03\x008(\x00\x00\x00'
tRp1395
sg13
Nsg14
VOddCheeto
p1396
sa(dp1397
g3
(lp1398
Vrt
p1399
aV@blooranges
p1400
aV:
aVonly
p1401
aVtrue
p1402
aVemo
p1403
aVkids
p1404
aVremember
p1405
aVsilverstein
p1406
asg10
g11
(S'\x07\xe0\x01\x02\x16\x0f\x1b\x00\x00\x00'
tRp1407
sg13
Nsg14
VOddCheeto
p1408
sa(dp1409
g3
(lp1410
Vrt
p1411
aV@a_geechi
p1412
aV:
aVwhen
p1413
aVyou
p1414
aVgo
p1415
aVto
p1416
aVthe
p1417
aVbathroom
p1418
aVand
p1419
aVyou
p1420
aValready
p1421
aVlit
p1422
aVhttps://t.co/4krxadllu8
p1423
asg10
g11
(S'\x07\xe0\x01\x02\x074\x17\x00\x00\x00'
tRp1424
sg13
Nsg14
VOddCheeto
p1425
sa(dp1426
g3
(lp1427
Vrt
p1428
aV@searchcontlnues
p1429
aV:
aVhttps://t.co/fqol70mmbx
p1430
asg10
g11
(S'\x07\xe0\x01\x02\x07.\x13\x00\x00\x00'
tRp1431
sg13
Nsg14
VOddCheeto
p1432
sa(dp1433
g3
(lp1434
Vlife
p1435
aVis
p1436
aVgood
p1437
aV.
asg10
g11
(S'\x07\xe0\x01\x02\x07+\x14\x00\x00\x00'
tRp1438
sg13
Nsg14
VOddCheeto
p1439
sa(dp1440
g3
(lp1441
Vrt
p1442
aV@calathletics
p1443
aV:
aVhave
p1444
aVa
aVgolden
p1445
aV2016,
p1446
aV#calfamily
p1447
aV!
aVhttps://t.co/k6zhq7y2zl
p1448
asg10
g11
(S'\x07\xe0\x01\x01\x08\x0f\x08\x00\x00\x00'
tRp1449
sg13
Nsg14
VOddCheeto
p1450
sa(dp1451
g3
(lp1452
Vrt
p1453
aV@thirtyseccomedy
p1454
aV:
aVwhen
p1455
aVyou're
p1456
aVsquad
p1457
aVaf
p1458
aVhttps://t.co/bvl8yeuzor
p1459
asg10
g11
(S'\x07\xe0\x01\x01\x06\x119\x00\x00\x00'
tRp1460
sg13
Nsg14
VOddCheeto
p1461
sa(dp1462
g3
(lp1463
Vrt
p1464
aV@daiiyrap
p1465
aV:
aVtravis
p1466
aVscott
p1467
aV-
aVthe
p1468
aVprayer
p1469
aVhttps://t.co/tf8pma7crk
p1470
asg10
g11
(S'\x07\xe0\x01\x01\x06\x08\t\x00\x00\x00'
tRp1471
sg13
Nsg14
VOddCheeto
p1472
sa(dp1473
g3
(lp1474
Vrt
p1475
aV@veil_sincerity
p1476
aV:
aVhaving
p1477
aVsex
p1478
aVwith
p1479
aVyour
p1480
aVex
p1481
aVon
p1482
aVa
aVthursday
p1483
aVain't
p1484
aVcheating
p1485
aVbruh
p1486
aV,
aVit's
p1487
aVa
aVthrowback
p1488
aV.
asg10
g11
(S'\x07\xe0\x01\x01\x04;+\x00\x00\x00'
tRp1489
sg13
Nsg14
VOddCheeto
p1490
sa(dp1491
g3
(lp1492
Vrt
p1493
aV@complexmag
p1494
aV:
aVnew
p1495
aVyeezy
p1496
aV.
aVlisten
p1497
aVto
p1498
aV@kanyewest
p1499
aV'
aVs
aV"
aVfacts
p1500
aV"
aV:
aVhttps://t.co/8blcrr5rrk
p1501
asg10
g11
(S'\x07\xe0\x01\x01\x021%\x00\x00\x00'
tRp1502
sg13
Nsg14
VOddCheeto
p1503
sa(dp1504
g3
(lp1505
Vrt
p1506
aV@30secondrock
p1507
aV:
aVguns
p1508
aVn
aV'
aVroses
p1509
aV-
aV"
aVsweet
p1510
aVchild
p1511
aVo
aV'
aVmine
p1512
aV"
aVhttps://t.co/g43unu7fye
p1513
asg10
g11
(S'\x07\xdf\x0c\x1f\x04\x0e\x14\x00\x00\x00'
tRp1514
sg13
Nsg14
VOddCheeto
p1515
sa(dp1516
g3
(lp1517
Vlove
p1518
aVit
p1519
aVwhen
p1520
aVmy
p1521
aVhair
p1522
aVis
p1523
aVshort
p1524
asg10
g11
(S'\x07\xdf\x0c\x1e\t\x0f\x0f\x00\x00\x00'
tRp1525
sg13
Nsg14
VOddCheeto
p1526
sa(dp1527
g3
(lp1528
V@jlaskk_51
p1529
aV@funnyvines
p1530
aVlmaoo
p1531
asg10
g11
(S'\x07\xdf\x0c\x1e\x05\x13\x06\x00\x00\x00'
tRp1532
sg13
Nsg14
VOddCheeto
p1533
sa(dp1534
g3
(lp1535
Vrt
p1536
aV@jlaskk_51
p1537
aV:
aV@oddcheeto
p1538
aVhttps://t.co/ddf02lfppu
p1539
asg10
g11
(S'\x07\xdf\x0c\x1e\x05\x128\x00\x00\x00'
tRp1540
sg13
Nsg14
VOddCheeto
p1541
sa(dp1542
g3
(lp1543
Vrt
p1544
aV@trojancondoms
p1545
aV:
aVit
p1546
aV\u2019
aVs
aVnot
p1547
aVa
aVparty
p1548
aVwithout
p1549
aVparty
p1550
aVhats
p1551
aV.
aV#trojancondoms
p1552
aV#newyearseve
p1553
aVhttps://t.co/wleytxruju
p1554
asg10
g11
(S'\x07\xdf\x0c\x1d\x166\x04\x00\x00\x00'
tRp1555
sg13
Nsg14
VOddCheeto
p1556
sa(dp1557
g3
(lp1558
V@jlaskk_51
p1559
aVhttps://t.co/calqfieedl
p1560
asg10
g11
(S'\x07\xdf\x0c\x1c\x16\x15%\x00\x00\x00'
tRp1561
sg13
Nsg14
VOddCheeto
p1562
sa(dp1563
g3
(lp1564
Vyou
p1565
aVknow
p1566
aVi'm
p1567
aVnot
p1568
aVas
p1569
aVfar
p1570
aVgone
p1571
aVas
p1572
aVpeople
p1573
aVthink
p1574
aVi
aVam
p1575
aV.
asg10
g11
(S'\x07\xdf\x0c\x1c\n\r4\x00\x00\x00'
tRp1576
sg13
Nsg14
VOddCheeto
p1577
sa(dp1578
g3
(lp1579
Vrt
p1580
aV@chattsss
p1581
aV:
aV@oddcheeto
p1582
aVbecause
p1583
aVof
p1584
aVyou
p1585
aVmy
p1586
aVparents
p1587
aVare
p1588
aVhave
p1589
aVdoubts
p1590
aVwith
p1591
aVme
p1592
aVtheir
p1593
aVinnocent
p1594
aVson
p1595
asg10
g11
(S'\x07\xdf\x0c\x1c\x08\x14\x19\x00\x00\x00'
tRp1596
sg13
Nsg14
VOddCheeto
p1597
sa(dp1598
g3
(lp1599
V@chattsss
p1600
aVthey
p1601
aVonto
p1602
aVus
p1603
asg10
g11
(S'\x07\xdf\x0c\x1c\x078\x02\x00\x00\x00'
tRp1604
sg13
Nsg14
VOddCheeto
p1605
sa(dp1606
g3
(lp1607
Vrt
p1608
aV@uberfacts
p1609
aV:
aVhttps://t.co/koqxpnbayq
p1610
aVhttps://t.co/rifb5pcno8
p1611
asg10
g11
(S'\x07\xdf\x0c\x1c\x077.\x00\x00\x00'
tRp1612
sg13
Nsg14
VOddCheeto
p1613
sa(dp1614
g3
(lp1615
V@mermaidlocks
p1616
aVtruee
p1617
asg10
g11
(S"\x07\xdf\x0c\x1c\x05\x02'\x00\x00\x00"
tRp1618
sg13
Nsg14
VOddCheeto
p1619
sa(dp1620
g3
(lp1621
Vlucy
p1622
aVin
p1623
aVthe
p1624
aVsky
p1625
aVwith
p1626
aVdiamonds
p1627
aVis
p1628
aVabout
p1629
aVlsd
p1630
asg10
g11
(S'\x07\xdf\x0c\x1c\x01\t/\x00\x00\x00'
tRp1631
sg13
Nsg14
VOddCheeto
p1632
sa(dp1633
g3
(lp1634
V@jlaskk_51
p1635
aVrip
p1636
aVhttps://t.co/vs3vj9vccl
p1637
asg10
g11
(S'\x07\xdf\x0c\x1b\x17*4\x00\x00\x00'
tRp1638
sg13
Nsg14
VOddCheeto
p1639
sa(dp1640
g3
(lp1641
Vrt
p1642
aV@fabsteryo
p1643
aV:
aVit's
p1644
aVbeen
p1645
aVa
aVlong
p1646
aVnight
p1647
aV:/
p1648
asg10
g11
(S'\x07\xdf\x0c\x1b\x0b\x12\x0b\x00\x00\x00'
tRp1649
sg13
Nsg14
VOddCheeto
p1650
sa(dp1651
g3
(lp1652
Vrt
p1653
aV@_landonmoss
p1654
aV:
aVwhen
p1655
aVyour
p1656
aVgirl
p1657
aVbeen
p1658
aVlistening
p1659
aVto
p1660
aVtoo
p1661
aVmuch
p1662
aVbryson
p1663
aVtiller
p1664
aV.
aVhttps://t.co/pw01c0kjpe
p1665
asg10
g11
(S'\x07\xdf\x0c\x1b\x0b\x11\x19\x00\x00\x00'
tRp1666
sg13
Nsg14
VOddCheeto
p1667
sa(dp1668
g3
(lp1669
Vrt
p1670
aV@_landonmoss
p1671
aV:
aVif
p1672
aVbryson
p1673
aVtiller
p1674
aVwas
p1675
aVwhite
p1676
aVhttps://t.co/etb8c5c39b
p1677
asg10
g11
(S'\x07\xdf\x0c\x1b\x0b\x06.\x00\x00\x00'
tRp1678
sg13
Nsg14
VOddCheeto
p1679
sa(dp1680
g3
(lp1681
Vrt
p1682
aV@00michael6
p1683
aV:
aV@oddcheeto
p1684
aV@fabsteryo
p1685
aVwe
p1686
aVgoing
p1687
aVto
p1688
aVparty
p1689
aVall
p1690
aVnight
p1691
aV.
aV#squad
p1692
asg10
g11
(S'\x07\xdf\x0c\x1b\x0b\x04\x12\x00\x00\x00'
tRp1693
sg13
Nsg14
VOddCheeto
p1694
sa(dp1695
g3
(lp1696
V@fabsteryo
p1697
aVwe
p1698
aVnever
p1699
aVsleeping
p1700
aVdawg
p1701
asg10
g11
(S'\x07\xdf\x0c\x1b\x0b\x00\x06\x00\x00\x00'
tRp1702
sg13
Nsg14
VOddCheeto
p1703
sa(dp1704
g3
(lp1705
Vrt
p1706
aV@depresseddarth
p1707
aV:
aVhan
p1708
aVyolo
p1709
aVhttps://t.co/v5kjkz0gbq
p1710
asg10
g11
(S'\x07\xdf\x0c\x1b\x021\x03\x00\x00\x00'
tRp1711
sg13
Nsg14
VOddCheeto
p1712
sa(dp1713
g3
(lp1714
Vrt
p1715
aV@itshimympics
p1716
aV:
aV#bestfriendgoals
p1717
aVhttps://t.co/w3sryqrl2i
p1718
asg10
g11
(S'\x07\xdf\x0c\x1a\x15)9\x00\x00\x00'
tRp1719
sg13
Nsg14
VOddCheeto
p1720
sa(dp1721
g3
(lp1722
Vrt
p1723
aV@nastyhiphop
p1724
aV:
aVa
aV$
aVap
p1725
aVrocky
p1726
aV|
aVpeso
p1727
aVhttps://t.co/btesfjmlty
p1728
asg10
g11
(S'\x07\xdf\x0c\x1a\t3\x03\x00\x00\x00'
tRp1729
sg13
Nsg14
VOddCheeto
p1730
sa(dp1731
g3
(lp1732
V"
aVlet's
p1733
aVjust
p1734
aVdrive
p1735
aVto
p1736
aVla
p1737
aVand
p1738
aVcome
p1739
aVback
p1740
aV"
aV@thagpartida
p1741
aV\U0001f44d
aV\U0001f3fc
asg10
g11
(S'\x07\xdf\x0c\x1a\x03\x105\x00\x00\x00'
tRp1742
sg13
Nsg14
VOddCheeto
p1743
sa(dp1744
g3
(lp1745
Vgot
p1746
aVso
p1747
aVmuch
p1748
aVnice
p1749
aVclothing
p1750
aV.
asg10
g11
(S'\x07\xdf\x0c\x19\x135/\x00\x00\x00'
tRp1751
sg13
Nsg14
VOddCheeto
p1752
sa(dp1753
g3
(lp1754
Vrt
p1755
aV@assistss
p1756
aV:
aVporn
p1757
aVhub
p1758
aVgot
p1759
aVthem
p1760
aVholiday
p1761
aVspecials
p1762
asg10
g11
(S'\x07\xdf\x0c\x19\x05\x0b\x18\x00\x00\x00'
tRp1763
sg13
Nsg14
VOddCheeto
p1764
sa(dp1765
g3
(lp1766
Vrt
p1767
aV@pataguccl
p1768
aV:
aVhow
p1769
aVto
p1770
aVget
p1771
aVwhite
p1772
aVgirl
p1773
aVwasted
p1774
aVon
p1775
aVchristmas
p1776
aVhttps://t.co/de9slwbyea
p1777
asg10
g11
(S'\x07\xdf\x0c\x19\x0030\x00\x00\x00'
tRp1778
sg13
Nsg14
VOddCheeto
p1779
sa(dp1780
g3
(lp1781
Vi
aVmiss
p1782
aVyou
p1783
aVby
p1784
aVblink
p1785
aV182
p1786
aVhas
p1787
aVa
aVhistory
p1788
aVfor
p1789
aVeveryone
p1790
asg10
g11
(S"\x07\xdf\x0c\x18\t'8\x00\x00\x00"
tRp1791
sg13
Nsg14
VOddCheeto
p1792
sa(dp1793
g3
(lp1794
Vthe
p1795
aVbeatles
p1796
aVon
p1797
aVspotify
p1798
aVhas
p1799
aVjust
p1800
aVmade
p1801
aVmy
p1802
aVlife
p1803
aVso
p1804
aVmuch
p1805
aVbetter
p1806
aV.
asg10
g11
(S"\x07\xdf\x0c\x18\t\x03'\x00\x00\x00"
tRp1807
sg13
Nsg14
VOddCheeto
p1808
sa(dp1809
g3
(lp1810
V@jlaskk_51
p1811
aVjustice
p1812
aVtackle
p1813
aV!
asg10
g11
(S'\x07\xdf\x0c\x18\x06\x05\x1e\x00\x00\x00'
tRp1814
sg13
Nsg14
VOddCheeto
p1815
sa(dp1816
g3
(lp1817
Vrt
p1818
aV@_tarynitup
p1819
aV:
aVwe
p1820
aVappreciate
p1821
aVthis
p1822
aVnw
p1823
aVbt
p1824
aVi
aVdont
p1825
aVthink
p1826
aVwe
p1827
aVreally
p1828
aVunderstand
p1829
aVhow
p1830
aVbig
p1831
aVthis'll
p1832
aVstill
p1833
aVb
aVin
p1834
aV10
p1835
aV+
aVyrs
p1836
aV#bestblackalbumcovers
p1837
aVhttps
p1838
aV:/
p1839
aV\u2026
asg10
g11
(S'\x07\xdf\x0c\x18\x05\x002\x00\x00\x00'
tRp1840
sg13
Nsg14
VOddCheeto
p1841
sa(dp1842
g3
(lp1843
Vmarry
p1844
aVthe
p1845
aVgirl
p1846
aVwhom
p1847
aVyou
p1848
aVhave
p1849
aVparallel
p1850
aVlife
p1851
aVgoals
p1852
aVwith
p1853
aV.
asg10
g11
(S'\x07\xdf\x0c\x17\x08\x1e)\x00\x00\x00'
tRp1854
sg13
Nsg14
VOddCheeto
p1855
sa(dp1856
g3
(lp1857
Vand
p1858
aVonly
p1859
aVgod
p1860
aVcan
p1861
aVjudge
p1862
aVme
p1863
aVand
p1864
aVhe
p1865
aVdon't
p1866
aVlike
p1867
aVno
p1868
aVugly
p1869
asg10
g11
(S'\x07\xdf\x0c\x17\x00!0\x00\x00\x00'
tRp1870
sg13
Nsg14
VOddCheeto
p1871
sa(dp1872
g3
(lp1873
Vrt
p1874
aV@kingroidy
p1875
aV:
aVi
aVgot
p1876
aVhella
p1877
aVhoeees
p1878
aVhttps://t.co/fglerfrqaa
p1879
asg10
g11
(S'\x07\xdf\x0c\x16\x17.\x1b\x00\x00\x00'
tRp1880
sg13
Nsg14
VOddCheeto
p1881
sa(dp1882
g3
(lp1883
Vrt
p1884
aV@worldstarfunny
p1885
aV:
aVi
aVwould
p1886
aVmake
p1887
aVthat
p1888
aVthing
p1889
aVpay
p1890
aVrent
p1891
aV,
aVthat
p1892
aVaint
p1893
aVno
p1894
aVdamn
p1895
aVdog
p1896
aVhttps://t.co/hvs2gbmwxy
p1897
asg10
g11
(S'\x07\xdf\x0c\x16\x10\x0c\x1e\x00\x00\x00'
tRp1898
sg13
Nsg14
VOddCheeto
p1899
sa(dp1900
g3
(lp1901
Vchewed
p1902
aVup
p1903
aVthen
p1904
aVspit
p1905
aVback
p1906
aVout
p1907
asg10
g11
(S'\x07\xdf\x0c\x16\n-\t\x00\x00\x00'
tRp1908
sg13
Nsg14
VOddCheeto
p1909
sa(dp1910
g3
(lp1911
Vrt
p1912
aV@father
p1913
aV:
aVdrake
p1914
aVa
aVsith
p1915
aVlord
p1916
aVlol
p1917
asg10
g11
(S'\x07\xdf\x0c\x15\x0b)1\x00\x00\x00'
tRp1918
sg13
Nsg14
VOddCheeto
p1919
sa(dp1920
g3
(lp1921
Vstar
p1922
aVwars
p1923
aVmade
p1924
aVme
p1925
aVfeel
p1926
aVlike
p1927
aVa
aVkid
p1928
aVagain
p1929
aV.
asg10
g11
(S'\x07\xdf\x0c\x14\x16\x11&\x00\x00\x00'
tRp1930
sg13
Nsg14
VOddCheeto
p1931
sa(dp1932
g3
(lp1933
Vgot
p1934
aVup
p1935
aVearly
p1936
aVto
p1937
aVsee
p1938
aVstar
p1939
aVwars
p1940
aVfor
p1941
aV6
aVbucks
p1942
asg10
g11
(S'\x07\xdf\x0c\x14\x12\x12)\x00\x00\x00'
tRp1943
sg13
Nsg14
VOddCheeto
p1944
sa(dp1945
g3
(lp1946
Vrest
p1947
aVin
p1948
aVpeace
p1949
aVuncle
p1950
aVphil
p1951
aVand
p1952
aVmy
p1953
aVliver
p1954
asg10
g11
(S'\x07\xdf\x0c\x13\x17/9\x00\x00\x00'
tRp1955
sg13
Nsg14
VOddCheeto
p1956
sa(dp1957
g3
(lp1958
Voh
p1959
aVgod
p1960
aVlast
p1961
aVnight
p1962
asg10
g11
(S'\x07\xdf\x0c\x13\x17\t\x1b\x00\x00\x00'
tRp1963
sg13
Nsg14
VOddCheeto
p1964
sa(dp1965
g3
(lp1966
Vrt
p1967
aV@torzkilz
p1968
aV:
aVwhen
p1969
aVyour
p1970
aVfoo
p1971
aVpays
p1972
aV$
aV3
aVa
aVmonth
p1973
aVfor
p1974
aV2
aVyears
p1975
aVto
p1976
aVpay
p1977
aVoff
p1978
aVhis
p1979
aVspeaker
p1980
aV.
aV.
aV.
aVcmon
p1981
aV\U0001f602
aV\U0001f602
aV\U0001f602
asg10
g11
(S'\x07\xdf\x0c\x13\x17\x06+\x00\x00\x00'
tRp1982
sg13
Nsg14
VOddCheeto
p1983
sa(dp1984
g3
(lp1985
Vrt
p1986
aV@torzkilz
p1987
aV:
aVi
aVwish
p1988
aVeveryone
p1989
aVcould
p1990
aVhave
p1991
aVexperienced
p1992
aVfabian
p1993
aVlast
p1994
aVnight
p1995
aV\U0001f602
asg10
g11
(S'\x07\xdf\x0c\x13\x17\x06\x1c\x00\x00\x00'
tRp1996
sg13
Nsg14
VOddCheeto
p1997
sa(dp1998
g3
(lp1999
Vrt
p2000
aV@friendlyassh0le
p2001
aV:
aVwhen
p2002
aVy'all
p2003
aVconstantly
p2004
aVfighting
p2005
aVbut
p2006
aVy'all
p2007
aVlove
p2008
aVeach
p2009
aVother
p2010
aVhttps://t.co/5y5exb4cty
p2011
asg10
g11
(S'\x07\xdf\x0c\x13\x13\x1d\x12\x00\x00\x00'
tRp2012
sg13
Nsg14
VOddCheeto
p2013
sa(dp2014
g3
(lp2015
Vtime
p2016
aVto
p2017
aVget
p2018
aVthe
p2019
aVfuck
p2020
aVoutta
p2021
aVhere
p2022
asg10
g11
(S"\x07\xdf\x0c\x12\x11'1\x00\x00\x00"
tRp2023
sg13
Nsg14
VOddCheeto
p2024
sa(dp2025
g3
(lp2026
Vthe
p2027
aVcurrent
p2028
aVplan
p2029
aVis
p2030
aVto
p2031
aVblaze
p2032
aVout
p2033
aV@fabsteryo
p2034
aVthen
p2035
aVgo
p2036
aVwatch
p2037
aVstar
p2038
aVwars
p2039
aVtogether
p2040
asg10
g11
(S'\x07\xdf\x0c\x12\x044#\x00\x00\x00'
tRp2041
sg13
Nsg14
VOddCheeto
p2042
sa(dp2043
g3
(lp2044
Vi'll
p2045
aVnever
p2046
aVwear
p2047
aVmy
p2048
aVsigned
p2049
aVband
p2050
aVt
aVshirts
p2051
aVlol
p2052
asg10
g11
(S'\x07\xdf\x0c\x12\x04#\r\x00\x00\x00'
tRp2053
sg13
Nsg14
VOddCheeto
p2054
sa(dp2055
g3
(lp2056
Vsmells
p2057
aVlike
p2058
aVteen
p2059
aVspirit
p2060
asg10
g11
(S'\x07\xdf\x0c\x12\x04\x1d2\x00\x00\x00'
tRp2061
sg13
Nsg14
VOddCheeto
p2062
sa(dp2063
g3
(lp2064
Vrt
p2065
aV@trvxrbs
p2066
aV:
aVdrake
p2067
aVpartynextdoor
p2068
aVthe
p2069
aVweeknd
p2070
aVbryson
p2071
aVtiller
p2072
aVtravis
p2073
aVscott
p2074
aVpost
p2075
aVmalone
p2076
aVkanye
p2077
aVtory
p2078
aVlanez
p2079
aVtyus
p2080
aVramriddlz
p2081
aVmajid
p2082
aVjordan
p2083
aVfetty
p2084
aVwap
p2085
aVf
aV\u2026
asg10
g11
(S'\x07\xdf\x0c\x12\x04\x1d\x03\x00\x00\x00'
tRp2086
sg13
Nsg14
VOddCheeto
p2087
sa(dp2088
g3
(lp2089
Vrt
p2090
aV@30secondindie
p2091
aV:
aVdeath
p2092
aVcab
p2093
aVfor
p2094
aVcutie
p2095
aV-
aV"
aVi
aVwill
p2096
aVfollow
p2097
aVyou
p2098
aVinto
p2099
aVthe
p2100
aVdark
p2101
aV"
aVhttps://t.co/fk5wqnoitk
p2102
asg10
g11
(S'\x07\xdf\x0c\x12\x02\x18\x1b\x00\x00\x00'
tRp2103
sg13
Nsg14
VOddCheeto
p2104
sa(dp2105
g3
(lp2106
V@rosieposie_woo
p2107
aVyeah
p2108
aV!
aVhe's
p2109
aVgreat
p2110
aV.
aVi
aVdidn't
p2111
aVhave
p2112
aVhim
p2113
aV,
aVbut
p2114
aVhe
p2115
aVwas
p2116
aVmy
p2117
aVclub
p2118
aVadvisor
p2119
aVfor
p2120
aVcsf
p2121
aV.
aVdidn't
p2122
aVhe
p2123
aVleave
p2124
aVhawthrone
p2125
aVbecause
p2126
aVof
p2127
aVa
aVgang
p2128
aVthreat
p2129
aV?
asg10
g11
(S'\x07\xdf\x0c\x11\x01"+\x00\x00\x00'
tRp2130
sg13
Nsg14
VOddCheeto
p2131
sa(dp2132
g3
(lp2133
V@rosieposie_woo
p2134
aVhe's
p2135
aVat
p2136
aVla
p2137
aVpuente
p2138
aV,
aVi
aVforgot
p2139
aVwhat
p2140
aVwas
p2141
aVhis
p2142
aVold
p2143
aVschool
p2144
aV?
asg10
g11
(S'\x07\xdf\x0c\x11\x01 \x18\x00\x00\x00'
tRp2145
sg13
Nsg14
VOddCheeto
p2146
sa(dp2147
g3
(lp2148
V@rosieposie_woo
p2149
aVhe's
p2150
aVat
p2151
aVmy
p2152
aVhigh
p2153
aVschool
p2154
aVnow
p2155
aV!
aVlol
p2156
asg10
g11
(S'\x07\xdf\x0c\x11\x01\x13\x18\x00\x00\x00'
tRp2157
sg13
Nsg14
VOddCheeto
p2158
sa(dp2159
g3
(lp2160
Vrt
p2161
aV@worldstarfunny
p2162
aV:
aVeverybody's
p2163
aVattitude
p2164
aVnext
p2165
aVsemester
p2166
aV\U0001f602
aVhttps://t.co/k9u8dgext1
p2167
asg10
g11
(S'\x07\xdf\x0c\x11\x01\x040\x00\x00\x00'
tRp2168
sg13
Nsg14
VOddCheeto
p2169
sa(dp2170
g3
(lp2171
Vi
aVneed
p2172
aVyou
p2173
aVto
p2174
aVtake
p2175
aVmy
p2176
aVmind
p2177
aVoff
p2178
aVbeing
p2179
aVin
p2180
aVmy
p2181
aVprime
p2182
aV\U0001f3a7
asg10
g11
(S'\x07\xdf\x0c\x11\x0060\x00\x00\x00'
tRp2183
sg13
Nsg14
VOddCheeto
p2184
sa(dp2185
g3
(lp2186
V@rosieposie_woo
p2187
aVthe
p2188
aVap
p2189
aVu
aV.
aVs
aV.
aVhistory
p2190
aVteacher
p2191
aV?
asg10
g11
(S'\x07\xdf\x0c\x11\x00+\n\x00\x00\x00'
tRp2192
sg13
Nsg14
VOddCheeto
p2193
sa(dp2194
g3
(lp2195
Vdestroying
p2196
aVmy
p2197
aVliver
p2198
aVon
p2199
aVfriday
p2200
aV.
asg10
g11
(S'\x07\xdf\x0c\x11\x00\x19$\x00\x00\x00'
tRp2201
sg13
Nsg14
VOddCheeto
p2202
sa(dp2203
g3
(lp2204
Vfinals
p2205
aVweek
p2206
aVin
p2207
aVa
aVpic
p2208
aVhttps://t.co/aueuipx3le
p2209
asg10
g11
(S'\x07\xdf\x0c\x0f\x14\x008\x00\x00\x00'
tRp2210
sg13
Nsg14
VOddCheeto
p2211
sa(dp2212
g3
(lp2213
Vrt
p2214
aV@itsandradee
p2215
aV:
aVreally
p2216
aVneed
p2217
aVto
p2218
aVcatch
p2219
aVup
p2220
aVon
p2221
aVmy
p2222
aVsleep
p2223
aVi
aVneed
p2224
aVto
p2225
aVbecome
p2226
aVa
aVmorning
p2227
aVperson
p2228
aVagain
p2229
asg10
g11
(S'\x07\xdf\x0c\x0f\n0\x1a\x00\x00\x00'
tRp2230
sg13
Nsg14
VOddCheeto
p2231
sa(dp2232
g3
(lp2233
Vsorry
p2234
aVbaby
p2235
aVi
aVdon't
p2236
aVplay
p2237
aV.
asg10
g11
(S'\x07\xdf\x0c\x0f\n\x10\x08\x00\x00\x00'
tRp2238
sg13
Nsg14
VOddCheeto
p2239
sa(dp2240
g3
(lp2241
Vthis
p2242
aVvacation
p2243
aVis
p2244
aVprobably
p2245
aVgoing
p2246
aVto
p2247
aVbe
p2248
aVthe
p2249
aVbest
p2250
aVever
p2251
aV.
asg10
g11
(S'\x07\xdf\x0c\x0f\x08\x1d%\x00\x00\x00'
tRp2252
sg13
Nsg14
VOddCheeto
p2253
sa(dp2254
g3
(lp2255
Vrt
p2256
aV@skrongmeat_
p2257
aV:
aVhttps://t.co/fxctjavjuf
p2258
asg10
g11
(S'\x07\xdf\x0c\x0f\x08\x1b+\x00\x00\x00'
tRp2259
sg13
Nsg14
VOddCheeto
p2260
sa(dp2261
g3
(lp2262
V@kavocadho
p2263
aVthat's
p2264
aVthe
p2265
aVbeauty
p2266
aVof
p2267
aVit
p2268
aV.
asg10
g11
(S'\x07\xdf\x0c\x0f\x05\x00\x16\x00\x00\x00'
tRp2269
sg13
Nsg14
VOddCheeto
p2270
sa(dp2271
g3
(lp2272
Vlol
p2273
aVi
aVtalk
p2274
aVto
p2275
aVpeople
p2276
aVin
p2277
aVlyrics
p2278
aVtoo
p2279
aVmuch
p2280
aV.
asg10
g11
(S'\x07\xdf\x0c\x0f\x049\x0f\x00\x00\x00'
tRp2281
sg13
Nsg14
VOddCheeto
p2282
sa(dp2283
g3
(lp2284
Vi've
p2285
aVbeen
p2286
aVlistening
p2287
aVto
p2288
aVrodeo
p2289
aVevery
p2290
aVday
p2291
aVsince
p2292
aVit
p2293
aVcame
p2294
aVout
p2295
aV.
asg10
g11
(S'\x07\xdf\x0c\x0f\x04,\x15\x00\x00\x00'
tRp2296
sg13
Nsg14
VOddCheeto
p2297
sa(dp2298
g3
(lp2299
Vrt
p2300
aV@raphubus
p2301
aV:
aVtravis
p2302
aVscott
p2303
aV-
aVmamacita
p2304
aVft
p2305
aV.
aVyoung
p2306
aVthug
p2307
aV&
aVamp
p2308
aV;
aVrich
p2309
aVhomie
p2310
aVquan
p2311
aVhttps://t.co/rzexafa4mk
p2312
asg10
g11
(S'\x07\xdf\x0c\x0f\x01\x08\x00\x00\x00\x00'
tRp2313
sg13
Nsg14
VOddCheeto
p2314
sa(dp2315
g3
(lp2316
Vrt
p2317
aV@tribecalledgod
p2318
aV:
aVisaiah
p2319
aVrashad
p2320
aV-
aVwebbie
p2321
aVflow
p2322
aVhttps://t.co/h2epnp6exv
p2323
asg10
g11
(S'\x07\xdf\x0c\x0e\x16#\n\x00\x00\x00'
tRp2324
sg13
Nsg14
VOddCheeto
p2325
sa(dp2326
g3
(lp2327
Vhappy
p2328
aVbirthday
p2329
aVbruh
p2330
aV!
aV\U0001f4aa
aV\U0001f3fc
aV\U0001f389
aV\U0001f38a
aV\U0001f618
aV@chattsss
p2331
asg10
g11
(S'\x07\xdf\x0c\x0e\x16"&\x00\x00\x00'
tRp2332
sg13
Nsg14
VOddCheeto
p2333
sa(dp2334
g3
(lp2335
Vthis
p2336
aVwoman
p2337
aVis
p2338
aVtoo
p2339
aVgood
p2340
aVto
p2341
aVme
p2342
aV.
asg10
g11
(S'\x07\xdf\x0c\x0e\x0b)9\x00\x00\x00'
tRp2343
sg13
Nsg14
VOddCheeto
p2344
sa(dp2345
g3
(lp2346
V@torzkilz
p2347
aVmiss
p2348
aVyou
p2349
aVtoo
p2350
aVtorz
p2351
aV\U0001f495
asg10
g11
(S'\x07\xdf\x0c\x0e\x02\x07#\x00\x00\x00'
tRp2352
sg13
Nsg14
VOddCheeto
p2353
sa(dp2354
g3
(lp2355
Vrt
p2356
aV@torzkilz
p2357
aV:
aVi
aVactually
p2358
aVmiss
p2359
aV@oddcheeto
p2360
aV\U0001f622
aV\U0001f49c
asg10
g11
(S'\x07\xdf\x0c\x0e\x02\x07\x15\x00\x00\x00'
tRp2361
sg13
Nsg14
VOddCheeto
p2362
sa(dp2363
g3
(lp2364
Vrt
p2365
aV@wordstionary
p2366
aV:
aVhttps://t.co/m7ipakxjto
p2367
asg10
g11
(S'\x07\xdf\x0c\r\n4+\x00\x00\x00'
tRp2368
sg13
Nsg14
VOddCheeto
p2369
sa(dp2370
g3
(lp2371
Vbed
p2372
aVpeace
p2373
aVhas
p2374
aVdiana
p2375
aVwritten
p2376
aVall
p2377
aVover
p2378
aVit
p2379
aV.
asg10
g11
(S'\x07\xdf\x0c\r\t\x1b\x05\x00\x00\x00'
tRp2380
sg13
Nsg14
VOddCheeto
p2381
sa(dp2382
g3
(lp2383
Vlmao
p2384
aVso
p2385
aVsad
p2386
aVhttps://t.co/7pwmp0aal7
p2387
asg10
g11
(S"\x07\xdf\x0c\r\x06\x1b'\x00\x00\x00"
tRp2388
sg13
Nsg14
VOddCheeto
p2389
sa(dp2390
g3
(lp2391
Vmy
p2392
aVnature
p2393
aVis
p2394
aVtoo
p2395
aVrelaxed
p2396
asg10
g11
(S'\x07\xdf\x0c\r\x03\x1a6\x00\x00\x00'
tRp2397
sg13
Nsg14
VOddCheeto
p2398
sa(dp2399
g3
(lp2400
Vi
aVshould
p2401
aVbe
p2402
aVstressing
p2403
aVa
aVlot
p2404
aVmore
p2405
aVfor
p2406
aVmy
p2407
aVfinals
p2408
asg10
g11
(S"\x07\xdf\x0c\r\x03\x1a'\x00\x00\x00"
tRp2409
sg13
Nsg14
VOddCheeto
p2410
sa(dp2411
g3
(lp2412
Vrt
p2413
aV@myxdrug
p2414
aV:
aVi
aVwant
p2415
aVto
p2416
aVbe
p2417
aVbad
p2418
aVfor
p2419
aVyou
p2420
aV.
aVhttps://t.co/byi9jkkk4f
p2421
asg10
g11
(S'\x07\xdf\x0c\x0c\t3\x0c\x00\x00\x00'
tRp2422
sg13
Nsg14
VOddCheeto
p2423
sa(dp2424
g3
(lp2425
Vi'm
p2426
aVbarely
p2427
aV18
p2428
aVmah
p2429
aVand
p2430
aVi
aVgot
p2431
aVa
aVhate
p2432
aVclub
p2433
aV.
asg10
g11
(S'\x07\xdf\x0c\x0c\t0&\x00\x00\x00'
tRp2434
sg13
Nsg14
VOddCheeto
p2435
sa(dp2436
g3
(lp2437
Vgotta
p2438
aVgo
p2439
aVsee
p2440
aVla
p2441
aVvirgen
p2442
aVtomorrow
p2443
aVso
p2444
aVshe
p2445
aVcan
p2446
aVforgive
p2447
aVmy
p2448
aVsins
p2449
aV.
asg10
g11
(S'\x07\xdf\x0c\x0c\t/\x18\x00\x00\x00'
tRp2450
sg13
Nsg14
VOddCheeto
p2451
sa(dp2452
g3
(lp2453
Vcoldplay's
p2454
aVnew
p2455
aValbum
p2456
aVis
p2457
aVsmooth
p2458
aV.
asg10
g11
(S"\x07\xdf\x0c\x0c\x01'\x12\x00\x00\x00"
tRp2459
sg13
Nsg14
VOddCheeto
p2460
sa(dp2461
g3
(lp2462
Vlove
p2463
aVit
p2464
aVwhen
p2465
aVa
aVgirl
p2466
aVuses
p2467
aVmy
p2468
aVvocabulary
p2469
aV.
asg10
g11
(S"\x07\xdf\x0c\x0b\x15'\x04\x00\x00\x00"
tRp2470
sg13
Nsg14
VOddCheeto
p2471
sa(dp2472
g3
(lp2473
Vrt
p2474
aV@30secondrock
p2475
aV:
aVsublime
p2476
aV-
aV"
aVdate
p2477
aVrape
p2478
aV"
aVhttps://t.co/pte9jibtjk
p2479
asg10
g11
(S'\x07\xdf\x0c\x0b\t)(\x00\x00\x00'
tRp2480
sg13
Nsg14
VOddCheeto
p2481
sa(dp2482
g3
(lp2483
Vrt
p2484
aV@30secondindie
p2485
aV:
aVjimmy
p2486
aVeat
p2487
aVworld
p2488
aV-
aV"
aVthe
p2489
aVmiddle
p2490
aV"
aVhttps://t.co/ipa0ejbpbp
p2491
asg10
g11
(S'\x07\xdf\x0c\x0b\t(\x0b\x00\x00\x00'
tRp2492
sg13
Nsg14
VOddCheeto
p2493
sa(dp2494
g3
(lp2495
Vespecially
p2496
aVduring
p2497
aVfucking
p2498
aVfinals
p2499
aVlol
p2500
asg10
g11
(S"\x07\xdf\x0c\x0b\t'\x05\x00\x00\x00"
tRp2501
sg13
Nsg14
VOddCheeto
p2502
sa(dp2503
g3
(lp2504
Vwhen
p2505
aVi
aVcome
p2506
aVto
p2507
aVberkeley
p2508
aV,
aVi
aVdon't
p2509
aVwant
p2510
aVto
p2511
aVbe
p2512
aVbothered
p2513
aVby
p2514
aVthings
p2515
aVi
aVleft
p2516
aVbehind
p2517
aVin
p2518
aVla
p2519
aVpuente
p2520
aV.
asg10
g11
(S'\x07\xdf\x0c\x0b\t%\t\x00\x00\x00'
tRp2521
sg13
Nsg14
VOddCheeto
p2522
sa(dp2523
g3
(lp2524
Vlol
p2525
aVi
aVjust
p2526
aVmet
p2527
aVclg
p2528
aVlink
p2529
aVin
p2530
aVline
p2531
aVwhile
p2532
aVat
p2533
aVchipotle
p2534
aVomfg
p2535
asg10
g11
(S'\x07\xdf\x0c\x0b\x04\x1d\x18\x00\x00\x00'
tRp2536
sg13
Nsg14
VOddCheeto
p2537
sa(dp2538
g3
(lp2539
Vrt
p2540
aV@30secthrowbacks
p2541
aV:
aVdrake
p2542
aVft
p2543
aV.
aVrihanna
p2544
aV-
aVtake
p2545
aVcare
p2546
aVhttps://t.co/mqvybtrwjy
p2547
asg10
g11
(S'\x07\xdf\x0c\n\x17\x1a\x05\x00\x00\x00'
tRp2548
sg13
Nsg14
VOddCheeto
p2549
sa(dp2550
g3
(lp2551
Vrt
p2552
aV@onlyhiphopfacts
p2553
aV:
aVkanye
p2554
aVwest
p2555
aV&
aVamp
p2556
aV;
aVkim
p2557
aVkardashian
p2558
aVhave
p2559
aVdecided
p2560
aVto
p2561
aVname
p2562
aVtheir
p2563
aVson
p2564
aV"
aVsaint
p2565
aVwest
p2566
aV"
aVhttps://t.co/t2wn3hcbce
p2567
asg10
g11
(S'\x07\xdf\x0c\n\x17\x17!\x00\x00\x00'
tRp2568
sg13
Nsg14
VOddCheeto
p2569
sa(dp2570
g3
(lp2571
Vrt
p2572
aV@thotfulvisions
p2573
aV:
aV"
aVi
aVthink
p2574
aVi
aVlove
p2575
aVyou
p2576
aV"
aVhttps://t.co/fzfevnyqsc
p2577
asg10
g11
(S'\x07\xdf\x0c\n\x17\x17\x10\x00\x00\x00'
tRp2578
sg13
Nsg14
VOddCheeto
p2579
sa(dp2580
g3
(lp2581
Vlol
p2582
aVsome
p2583
aVwomen
p2584
aVcan
p2585
aVbe
p2586
aVso
p2587
aVchildish
p2588
aV.
asg10
g11
(S'\x07\xdf\x0c\n\x17\x13\x12\x00\x00\x00'
tRp2589
sg13
Nsg14
VOddCheeto
p2590
sa(dp2591
g3
(lp2592
Vtight
p2593
aVjeans
p2594
aVon
p2595
aVso
p2596
aVshe
p2597
aVfeels
p2598
aVmy
p2599
aVshit
p2600
asg10
g11
(S'\x07\xdf\x0c\n\x16,\x13\x00\x00\x00'
tRp2601
sg13
Nsg14
VOddCheeto
p2602
sa(dp2603
g3
(lp2604
Vrt
p2605
aV@amoebaberkeley
p2606
aV:
aVfollow
p2607
aVus
p2608
aV&
aVamp
p2609
aV;
aVrt
p2610
aVfor
p2611
aVchance
p2612
aVto
p2613
aVwin
p2614
aVpair
p2615
aVof
p2616
aVtix
p2617
aVto
p2618
aVsee
p2619
aVsold
p2620
aVout
p2621
aV@the1975
p2622
aV@foxoakland
p2623
aVon
p2624
aVthurs
p2625
aV12
p2626
aV/
aV17
p2627
aV!
aVwinner
p2628
aVchosen
p2629
aV12
p2630
aV/
aV14
p2631
aV.
aV\u2026
asg10
g11
(S'\x07\xdf\x0c\n\x16(\x1d\x00\x00\x00'
tRp2632
sg13
Nsg14
VOddCheeto
p2633
sa.