(lp1
(dp2
S'text'
p3
(lp4
Vcan't
p5
aVget
p6
aVover
p7
aVher
p8
aVcute
p9
aVfaces
p10
aV\U0001f60d
aVhttps://t.co/2fkwsxan9x
p11
asS'created_at'
p12
cdatetime
datetime
p13
(S'\x07\xe0\x01\x18\x03;+\x00\x00\x00'
tRp14
sS'lat/long'
p15
NsS'name'
p16
Vqabyy_
p17
sa(dp18
g3
(lp19
Vi
aVmean
p20
aVi
aVcould
p21
aV,
aVbut
p22
aVhe'll
p23
aVbe
p24
aVhere
p25
aVin
p26
aVmarch
p27
aVand
p28
aVwho
p29
aVknows
p30
aVhow
p31
aVme
p32
aVand
p33
aVabby
p34
aVwill
p35
aVbe
p36
asg12
g13
(S'\x07\xe0\x01\x17\x14+!\x00\x00\x00'
tRp37
sg15
Nsg16
Vqabyy_
p38
sa(dp39
g3
(lp40
Vmakes
p41
aVme
p42
aVreally
p43
aVsad
p44
aVi
aVwon't
p45
aVbe
p46
aVable
p47
aVto
p48
aVsee
p49
aVsammy
p50
aVj
aVwhen
p51
aVhe
p52
aVcomes
p53
aVto
p54
aVsf
p55
aV\U0001f62b
asg12
g13
(S'\x07\xe0\x01\x17\x14*\x1b\x00\x00\x00'
tRp56
sg15
Nsg16
Vqabyy_
p57
sa(dp58
g3
(lp59
Vi
aVthink
p60
aVabby
p61
aVwas
p62
aVgetting
p63
aVtired
p64
aVof
p65
aVbeing
p66
aVat
p67
aVthe
p68
aVhospital
p69
aVtoo
p70
asg12
g13
(S'\x07\xe0\x01\x14\x10\x1d\x15\x00\x00\x00'
tRp71
sg15
Nsg16
Vqabyy_
p72
sa(dp73
g3
(lp74
Vfirst
p75
aVnight
p76
aVback
p77
aVat
p78
aVhome
p79
aVwas
p80
aVa
aVsuccess
p81
asg12
g13
(S'\x07\xe0\x01\x14\x10\x1d\x02\x00\x00\x00'
tRp82
sg15
Nsg16
Vqabyy_
p83
sa(dp84
g3
(lp85
Vrt
p86
aV@celestefilth
p87
aV:
aVevery
p88
aVsingle
p89
aVfucking
p90
aVnight
p91
aV.
aVshut
p92
aVup
p93
aV.
aVshut
p94
aVup
p95
aV.
aVshut
p96
aVup
p97
aV.
aVhttps://t.co/gawohuxv1e
p98
asg12
g13
(S'\x07\xe0\x01\x14\x10\x1c#\x00\x00\x00'
tRp99
sg15
Nsg16
Vqabyy_
p100
sa(dp101
g3
(lp102
Vthis
p103
aVwas
p104
aVthe
p105
aVresult
p106
aV.
aVmy
p107
aVbeautiful
p108
aVdaughter
p109
aVhttps://t.co/yjs8julutj
p110
asg12
g13
(S'\x07\xe0\x01\x14\x01\x1d5\x00\x00\x00'
tRp111
sg15
Nsg16
Vqabyy_
p112
sa(dp113
g3
(lp114
Vit
p115
aVall
p116
aVsounds
p117
aVtmi
p118
aVbut
p119
aVi
aVhad
p120
aVto
p121
aVget
p122
aVit
p123
aVout
p124
aVof
p125
aVmy
p126
aVsystem
p127
aVlol
p128
asg12
g13
(S'\x07\xe0\x01\x14\x01\x1c\x08\x00\x00\x00'
tRp129
sg15
Nsg16
Vqabyy_
p130
sa(dp131
g3
(lp132
Vthis
p133
aVwas
p134
aVall
p135
aVso
p136
aVstressful
p137
aVbut
p138
aVso
p139
aVworth
p140
aVit
p141
asg12
g13
(S'\x07\xe0\x01\x14\x01\x1b\x08\x00\x00\x00'
tRp142
sg15
Nsg16
Vqabyy_
p143
sa(dp144
g3
(lp145
Vthen
p146
aVthere's
p147
aVthe
p148
aVwhole
p149
aVbefore
p150
aVbirth
p151
aVwhere
p152
aVthey
p153
aVinduced
p154
aVme
p155
aVfor
p156
aVthree
p157
aVdays
p158
aVwith
p159
aVno
p160
aVprogress
p161
aVon
p162
aVthe
p163
aVfirst
p164
aVtwo
p165
aV.
asg12
g13
(S'\x07\xe0\x01\x14\x00:\x1b\x00\x00\x00'
tRp166
sg15
Nsg16
Vqabyy_
p167
sa(dp168
g3
(lp169
Vi
aVlost
p170
aVmore
p171
aVeven
p172
aVmore
p173
aVblood
p174
aVthan
p175
aVthey
p176
aVoriginally
p177
aVthought
p178
aV,
aVwhich
p179
aVis
p180
aVone
p181
aVof
p182
aVthe
p183
aVreasons
p184
aVi
aVhad
p185
aVto
p186
aVstay
p187
aVso
p188
aVlong
p189
aVat
p190
aVthe
p191
aVhospital
p192
aV.
asg12
g13
(S'\x07\xe0\x01\x14\x0090\x00\x00\x00'
tRp193
sg15
Nsg16
Vqabyy_
p194
sa(dp195
g3
(lp196
Vthis
p197
aVcreated
p198
aVthe
p199
aVnurses
p200
aVto
p201
aVbe
p202
aVbaffled
p203
aVby
p204
aVwhy
p205
aVi
aVwas
p206
aVso
p207
aVpale
p208
aVand
p209
aVwhy
p210
aVmy
p211
aVblood
p212
aVcount
p213
aVreduced
p214
aVto
p215
aValmost
p216
aV1
aV/
aV3
aVof
p217
aVwhat
p218
aVi
aVoriginally
p219
aVcame
p220
aVin
p221
aVwith
p222
asg12
g13
(S'\x07\xe0\x01\x14\x009\r\x00\x00\x00'
tRp223
sg15
Nsg16
Vqabyy_
p224
sa(dp225
g3
(lp226
Vso
p227
aVi
aVknow
p228
aVyou
p229
aVloose
p230
aVblood
p231
aVduring
p232
aVa
aVsurgery
p233
aVlike
p234
aVthis
p235
aVbut
p236
aVthe
p237
aVdoctors
p238
aVdidn't
p239
aVthink
p240
aVi
aVhad
p241
aVlost
p242
aVthat
p243
aVmuch
p244
aV.
asg12
g13
(S'\x07\xe0\x01\x14\x008\x11\x00\x00\x00'
tRp245
sg15
Nsg16
Vqabyy_
p246
sa(dp247
g3
(lp248
Vi
aVhad
p249
aVan
p250
aVemergency
p251
aVc
aVsection
p252
aVdue
p253
aVto
p254
aVboth
p255
aVme
p256
aVand
p257
aVbaby
p258
aVbeing
p259
aVlow
p260
aVon
p261
aVoxygen
p262
aVand
p263
aVblood
p264
aVcount
p265
aV.
aVsomething
p266
aVi
aVnever
p267
aVever
p268
aVwant
p269
aVto
p270
aVgo
p271
aVthrough
p272
aVagain
p273
asg12
g13
(S'\x07\xe0\x01\x14\x007-\x00\x00\x00'
tRp274
sg15
Nsg16
Vqabyy_
p275
sa(dp276
g3
(lp277
Vfirst
p278
aVwith
p279
aVmy
p280
aVasthma
p281
aVthen
p282
aVwith
p283
aVmy
p284
aVblood
p285
aVcount
p286
aV.
aV.
asg12
g13
(S'\x07\xe0\x01\x14\x006)\x00\x00\x00'
tRp287
sg15
Nsg16
Vqabyy_
p288
sa(dp289
g3
(lp290
Vthis
p291
aVis
p292
aVwhy
p293
aVi
aVhate
p294
aVgoing
p295
aVto
p296
aVdoctors
p297
aVin
p298
aVgeneral
p299
aV.
aV.
aVthey
p300
aVlie
p301
aV!
asg12
g13
(S'\x07\xe0\x01\x14\x006\x1d\x00\x00\x00'
tRp302
sg15
Nsg16
Vqabyy_
p303
sa(dp304
g3
(lp305
Vbut
p306
aVlike
p307
aVany
p308
aVmother
p309
aV,
aVor
p310
aVeven
p311
aVperson
p312
aV,
aVwould
p313
aVsay
p314
aV"
aVi
aVwould
p315
aVrather
p316
aVbe
p317
aVsick
p318
aVthan
p319
aVhave
p320
aVa
aVbaby
p321
aVgo
p322
aVthrough
p323
aVthis
p324
aVmuch
p325
aVpain
p326
aV"
asg12
g13
(S'\x07\xe0\x01\x14\x003\x1a\x00\x00\x00'
tRp327
sg15
Nsg16
Vqabyy_
p328
sa(dp329
g3
(lp330
Vi
aVtook
p331
aVa
aVrisk
p332
aVthat
p333
aVsaved
p334
aVboth
p335
aVour
p336
aVlives
p337
aVand
p338
aVi
aVtook
p339
aVthe
p340
aVshort
p341
aVend
p342
aVof
p343
aVthe
p344
aVstick
p345
aV.
asg12
g13
(S'\x07\xe0\x01\x14\x002-\x00\x00\x00'
tRp346
sg15
Nsg16
Vqabyy_
p347
sa(dp348
g3
(lp349
Vlet's
p350
aVjust
p351
aVsay
p352
aVthanks
p353
aVto
p354
aVgod
p355
aVma
p356
aVand
p357
aVabby
p358
aVare
p359
aVboth
p360
aVhere
p361
aV.
asg12
g13
(S'\x07\xe0\x01\x14\x002\x0f\x00\x00\x00'
tRp362
sg15
Nsg16
Vqabyy_
p363
sa(dp364
g3
(lp365
Vanyways
p366
aV,
aVthe
p367
aVbirth
p368
aVof
p369
aVbaby
p370
aVgirl
p371
aVwas
p372
aVthe
p373
aVscariest
p374
aVand
p375
aVlongest
p376
aVmoment
p377
aVof
p378
aVmy
p379
aVlife
p380
aV.
aV.
asg12
g13
(S'\x07\xe0\x01\x14\x001$\x00\x00\x00'
tRp381
sg15
Nsg16
Vqabyy_
p382
sa(dp383
g3
(lp384
Vi
aVrarely
p385
aVtook
p386
aVany
p387
aVbelly
p388
aVpictures
p389
aV,
aVwhich
p390
aVat
p391
aVtimes
p392
aVi
aVdo
p393
aVregret
p394
aV,
aVbut
p395
aVthis
p396
aVwas
p397
aVprobably
p398
aVtaken
p399
aVthe
p400
aVweekend
p401
aVright
p402
aVbefore
p403
aVhttps://t.co/rlcykie74t
p404
asg12
g13
(S'\x07\xe0\x01\x14\x00+\x00\x00\x00\x00'
tRp405
sg15
Nsg16
Vqabyy_
p406
sa(dp407
g3
(lp408
Vi'll
p409
aVprobably
p410
aVrant
p411
aVa
aVlittle
p412
aVabout
p413
aVmy
p414
aVwhole
p415
aVstay
p416
aVin
p417
aVa
aVbit
p418
asg12
g13
(S'\x07\xe0\x01\x14\x00%\x14\x00\x00\x00'
tRp419
sg15
Nsg16
Vqabyy_
p420
sa(dp421
g3
(lp422
Vafter
p423
aVbeing
p424
aVat
p425
aVthe
p426
aVhospital
p427
aVfor
p428
aVa
aVweek
p429
aVi
aVget
p430
aVto
p431
aVcome
p432
aVhome
p433
aVwith
p434
aVbaby
p435
aVand
p436
aVto
p437
aVa
aVreal
p438
aVbed
p439
asg12
g13
(S'\x07\xe0\x01\x14\x00$6\x00\x00\x00'
tRp440
sg15
Nsg16
Vqabyy_
p441
sa(dp442
g3
(lp443
Vfinally
p444
aVhome
p445
aV!
aV!
aV!
asg12
g13
(S'\x07\xe0\x01\x14\x00$\x1d\x00\x00\x00'
tRp446
sg15
Nsg16
Vqabyy_
p447
sa(dp448
g3
(lp449
Vabby
p450
aVsleeping
p451
aVin
p452
aVmy
p453
aVarms
p454
aVis
p455
aVthe
p456
aVbest
p457
aVfeeling
p458
aVever
p459
aV,
aVeven
p460
aVif
p461
aVi
aVcan't
p462
aVfeel
p463
aVthem
p464
aV.
asg12
g13
(S'\x07\xe0\x01\x12\x02\x11\x18\x00\x00\x00'
tRp465
sg15
Nsg16
Vqabyy_
p466
sa(dp467
g3
(lp468
Vabigail
p469
aVis
p470
aVjust
p471
aVtoo
p472
aVadorable
p473
aVfor
p474
aVwords
p475
aV.
asg12
g13
(S'\x07\xe0\x01\x10\x10$$\x00\x00\x00'
tRp476
sg15
Nsg16
Vqabyy_
p477
sa(dp478
g3
(lp479
V@cloudsixx1
p480
aVthanks
p481
aVedwin
p482
aV!
asg12
g13
(S'\x07\xe0\x01\x10\x06\x11:\x00\x00\x00'
tRp483
sg15
Nsg16
Vqabyy_
p484
sa(dp485
g3
(lp486
Vthese
p487
aVhormones
p488
aVman
p489
aV,
aVi'm
p490
aVsweating
p491
aVlike
p492
aVcrazy
p493
aV!
aV\U0001f631
asg12
g13
(S'\x07\xe0\x01\x10\x03+*\x00\x00\x00'
tRp494
sg15
Nsg16
Vqabyy_
p495
sa(dp496
g3
(lp497
V@ericurry
p498
aVthanks
p499
aVcutie
p500
aV,
aVonce
p501
aVshe's
p502
aVout
p503
aVof
p504
aVthe
p505
aVnicu
p506
aVi'll
p507
aVbe
p508
aVbombarding
p509
aVeveryone
p510
aVwith
p511
aVpictures
p512
aV\U0001f60a
asg12
g13
(S'\x07\xe0\x01\x10\x03+\x01\x00\x00\x00'
tRp513
sg15
Nsg16
Vqabyy_
p514
sa(dp515
g3
(lp516
V@mindyaownn
p517
aVlol
p518
aVthanks
p519
aV\U0001f60a
asg12
g13
(S'\x07\xe0\x01\x10\x03)6\x00\x00\x00'
tRp520
sg15
Nsg16
Vqabyy_
p521
sa(dp522
g3
(lp523
Vafter
p524
aValmost
p525
aVfour
p526
aVdays
p527
aVof
p528
aVlabor
p529
aV,
aVbaby
p530
aVabigail
p531
aVolivia
p532
aVis
p533
aVfinally
p534
aVhere
p535
aV\U0001f60d
asg12
g13
(S'\x07\xe0\x01\x10\x00\x14\x0b\x00\x00\x00'
tRp536
sg15
Nsg16
Vqabyy_
p537
sa(dp538
g3
(lp539
Vi
aVhate
p540
aVbeing
p541
aVconnected
p542
aVto
p543
aVhella
p544
aVshit
p545
asg12
g13
(S'\x07\xe0\x01\r\x16\x046\x00\x00\x00'
tRp546
sg15
Nsg16
Vqabyy_
p547
sa(dp548
g3
(lp549
Vboth
p550
aVgood
p551
aVand
p552
aVbad
p553
aVsince
p554
aVi'm
p555
aVa
aVweek
p556
aVearly
p557
aV.
asg12
g13
(S'\x07\xe0\x01\r\x12\x178\x00\x00\x00'
tRp558
sg15
Nsg16
Vqabyy_
p559
sa(dp560
g3
(lp561
Vi'm
p562
aVnot
p563
aVallowed
p564
aVto
p565
aVleave
p566
aVwithout
p567
aVhaving
p568
aVher
p569
aVbe
p570
aVborn
p571
aV\U0001f476
aV\U0001f3fc
asg12
g13
(S'\x07\xe0\x01\r\x12\x17%\x00\x00\x00'
tRp572
sg15
Nsg16
Vqabyy_
p573
sa(dp574
g3
(lp575
Vthe
p576
aVbest
p577
aVpart
p578
aVis
p579
aVi'll
p580
aVfinally
p581
aVhave
p582
aVbaby
p583
aVgirl
p584
aVwith
p585
aVme
p586
asg12
g13
(S'\x07\xe0\x01\r\x12\x17\x04\x00\x00\x00'
tRp587
sg15
Nsg16
Vqabyy_
p588
sa(dp589
g3
(lp590
Vi
aVjust
p591
aVwant
p592
aVto
p593
aVlay
p594
aVin
p595
aVmy
p596
aVown
p597
aVbed
p598
aVwith
p599
aVmy
p600
aVown
p601
aVpillows
p602
asg12
g13
(S'\x07\xe0\x01\r\x12\x16"\x00\x00\x00'
tRp603
sg15
Nsg16
Vqabyy_
p604
sa(dp605
g3
(lp606
Vthat
p607
aVmoment
p608
aVyou
p609
aVcome
p610
aVfor
p611
aVa
aVcheck
p612
aVup
p613
aVand
p614
aVthey
p615
aVdecide
p616
aVthat
p617
aVthey
p618
aVwant
p619
aVyou
p620
aVto
p621
aVgo
p622
aVinto
p623
aVlabor
p624
aVthe
p625
aVsame
p626
aVday
p627
aV.
asg12
g13
(S'\x07\xe0\x01\r\x01&\x1d\x00\x00\x00'
tRp628
sg15
Nsg16
Vqabyy_
p629
sa(dp630
g3
(lp631
Vsoo
p632
aVuncomfortable
p633
aVand
p634
aVtired
p635
aV\U0001f616
asg12
g13
(S'\x07\xe0\x01\x0c\x10.\x1d\x00\x00\x00'
tRp636
sg15
Nsg16
Vqabyy_
p637
sa(dp638
g3
(lp639
Vso
p640
aVmad
p641
aVi
aVdidn't
p642
aVwear
p643
aVmy
p644
aVfitbit
p645
aVtoday
p646
aV\U0001f62b
asg12
g13
(S'\x07\xe0\x01\x0c\x01\x01#\x00\x00\x00'
tRp647
sg15
Nsg16
Vqabyy_
p648
sa(dp649
g3
(lp650
Vrt
p651
aV@woridstarhiphop
p652
aV:
aVthis
p653
aVis
p654
aVtoo
p655
aVgood
p656
aVhttps://t.co/qzzanewtdb
p657
asg12
g13
(S'\x07\xe0\x01\x0b\x13%6\x00\x00\x00'
tRp658
sg15
Nsg16
Vqabyy_
p659
sa(dp660
g3
(lp661
Vrt
p662
aV@wearegiricodes
p663
aV:
aVyes
p664
aVhttps://t.co/yuhz63zeaw
p665
asg12
g13
(S'\x07\xe0\x01\n\x10\x1c\x00\x00\x00\x00'
tRp666
sg15
Nsg16
Vqabyy_
p667
sa(dp668
g3
(lp669
Vwhen
p670
aVyou
p671
aVwant
p672
aVto
p673
aVsleep
p674
aVbut
p675
aVyou
p676
aVcan't
p677
aVkuz
p678
aVyou're
p679
aVcold
p680
aV,
aVkuz
p681
aVsomeone
p682
aVlikes
p683
aVto
p684
aVhog
p685
aVthe
p686
aVblanket
p687
aV\U0001f612
asg12
g13
(S'\x07\xe0\x01\n\x07\x02\x15\x00\x00\x00'
tRp688
sg15
Nsg16
Vqabyy_
p689
sa(dp690
g3
(lp691
Vi
aVneed
p692
aVto
p693
aVbake
p694
aVthis
p695
aVbanana
p696
aVnut
p697
aVbread
p698
aVnow
p699
aV!
aV!
aV!
asg12
g13
(S'\x07\xe0\x01\t\x16.\x17\x00\x00\x00'
tRp700
sg15
Nsg16
Vqabyy_
p701
sa(dp702
g3
(lp703
Vi
aVneed
p704
aVan
p705
aVoven
p706
aV!
aV!
aV!
asg12
g13
(S'\x07\xe0\x01\t\x16.\x05\x00\x00\x00'
tRp707
sg15
Nsg16
Vqabyy_
p708
sa(dp709
g3
(lp710
Vrt
p711
aV@femaletexts
p712
aV:
aVif
p713
aV\U0001f44f
aV\U0001f3fc
aVit
p714
aV\U0001f44f
aV\U0001f3fc
aVis
p715
aV\U0001f44f
aV\U0001f3fc
aVout
p716
aV\U0001f44f
aV\U0001f3fc
aVof
p717
aV\U0001f44f
aV\U0001f3fc
aVstock
p718
aV\U0001f44f
aV\U0001f3fc
aVremove
p719
aV\U0001f44f
aV\U0001f3fc
aVit
p720
aV\U0001f44f
aV\U0001f3fc
aVfrom
p721
aV\U0001f44f
aV\U0001f3fc
aVthe
p722
aV\U0001f44f
aV\U0001f3fc
aVsite
p723
aV\U0001f44f
aV\U0001f3fc
asg12
g13
(S'\x07\xe0\x01\t\x02\x0f*\x00\x00\x00'
tRp724
sg15
Nsg16
Vqabyy_
p725
sa(dp726
g3
(lp727
Vbrendan
p728
aV,
aVyou
p729
aVare
p730
aVstupid
p731
aV.
asg12
g13
(S'\x07\xe0\x01\x08\x16\t\r\x00\x00\x00'
tRp732
sg15
Nsg16
Vqabyy_
p733
sa(dp734
g3
(lp735
Vnot
p736
aVhaving
p737
aVa
aVcar
p738
aVwon't
p739
aVstop
p740
aVme
p741
asg12
g13
(S'\x07\xe0\x01\x08\r,!\x00\x00\x00'
tRp742
sg15
Nsg16
Vqabyy_
p743
sa(dp744
g3
(lp745
Vsince
p746
aVmy
p747
aVnetflix
p748
aVhas
p749
aVbeen
p750
aVacting
p751
aVup
p752
aVi
aVguess
p753
aVi'll
p754
aVhave
p755
aVto
p756
aVgo
p757
aVout
p758
aVin
p759
aVto
p760
aVthe
p761
aVworld
p762
aVyet
p763
aVagain
p764
aV\U0001f61e
asg12
g13
(S'\x07\xe0\x01\x08\r+,\x00\x00\x00'
tRp765
sg15
Nsg16
Vqabyy_
p766
sa(dp767
g3
(lp768
Vin
p769
aVneed
p770
aVof
p771
aVa
aVhaircut
p772
aVand
p773
aVnew
p774
aVcolor
p775
aV\U0001f629
aV\U0001f629
asg12
g13
(S'\x07\xe0\x01\x08\r+\r\x00\x00\x00'
tRp776
sg15
Nsg16
Vqabyy_
p777
sa(dp778
g3
(lp779
Vrt
p780
aV@hotfreestyle
p781
aV:
aV#wasteeverybodystime2016
p782
aVhttps://t.co/4awii1cwc6
p783
asg12
g13
(S'\x07\xe0\x01\x08\x06,+\x00\x00\x00'
tRp784
sg15
Nsg16
Vqabyy_
p785
sa(dp786
g3
(lp787
Vrt
p788
aV@woridstarhiphop
p789
aV:
aVit
p790
aVonly
p791
aVtook
p792
aVher
p793
aV15
p794
aVseconds
p795
aVto
p796
aVsay
p797
aVthe
p798
aVtruth
p799
aV\U0001f44f
aV\U0001f44f
aV\U0001f44f
aV\U0001f44f
aV\U0001f44f
aV\U0001f44f
aVhttps://t.co/9fwujpbzf9
p800
asg12
g13
(S'\x07\xe0\x01\x08\x06+\x1c\x00\x00\x00'
tRp801
sg15
Nsg16
Vqabyy_
p802
sa(dp803
g3
(lp804
Vthat
p805
aVmoment
p806
aVwhere
p807
aVmy
p808
aVbelly
p809
aVbutton
p810
aVcompletely
p811
aVdissapears
p812
aV\U0001f628
asg12
g13
(S'\x07\xe0\x01\x08\x04\x07\x01\x00\x00\x00'
tRp813
sg15
Nsg16
Vqabyy_
p814
sa(dp815
g3
(lp816
Vwith
p817
aVthat
p818
aVsaid
p819
aV,
aVany
p820
aVsuggestions
p821
aVon
p822
aVwhat
p823
aVto
p824
aVwatch
p825
aVon
p826
aVnetflix
p827
aV?
asg12
g13
(S'\x07\xe0\x01\x07\x15\x1a;\x00\x00\x00'
tRp828
sg15
Nsg16
Vqabyy_
p829
sa(dp830
g3
(lp831
Vcurse
p832
aVyou
p833
aVcriminal
p834
aVminds
p835
aVfor
p836
aVhaving
p837
aVhot
p838
aVactors
p839
asg12
g13
(S'\x07\xe0\x01\x07\x15\x1a/\x00\x00\x00'
tRp840
sg15
Nsg16
Vqabyy_
p841
sa(dp842
g3
(lp843
Vthe
p844
aVnew
p845
aVseason
p846
aVis
p847
aVon
p848
aVtv
p849
aVbut
p850
aVi'm
p851
aVtoo
p852
aVfar
p853
aVbehind
p854
aVto
p855
aVcatch
p856
aVup
p857
asg12
g13
(S'\x07\xe0\x01\x07\x15\x1a\x00\x00\x00\x00'
tRp858
sg15
Nsg16
Vqabyy_
p859
sa(dp860
g3
(lp861
Vthat
p862
aVmoment
p863
aVyou
p864
aVreach
p865
aVthe
p866
aVlast
p867
aVavailable
p868
aVepisode
p869
aVon
p870
aVnetflix
p871
aVand
p872
aVnow
p873
aVyou
p874
aVdon't
p875
aVknow
p876
aVwhat
p877
aVto
p878
aVdo
p879
aVwith
p880
aVyour
p881
aVlife
p882
aV.
asg12
g13
(S'\x07\xe0\x01\x07\x15\x19\x03\x00\x00\x00'
tRp883
sg15
Nsg16
Vqabyy_
p884
sa(dp885
g3
(lp886
Vbut
p887
aVi
aVguess
p888
aVthe
p889
aVfirst
p890
aVweek
p891
aVback
p892
aVat
p893
aVschool
p894
aVis
p895
aVhard
p896
aVfor
p897
aVeveryone
p898
aV,
aVincluding
p899
aV4
aV&
aVamp
p900
aV;
aV5
aVyear
p901
aVolds
p902
asg12
g13
(S'\x07\xe0\x01\x07\x116%\x00\x00\x00'
tRp903
sg15
Nsg16
Vqabyy_
p904
sa(dp905
g3
(lp906
Vi
aVreally
p907
aVonly
p908
aVlike
p909
aVthe
p910
aVdaycare
p911
aVkids
p912
aVwhen
p913
aVthey're
p914
aVbehaving
p915
aV.
asg12
g13
(S'\x07\xe0\x01\x07\x116\x05\x00\x00\x00'
tRp916
sg15
Nsg16
Vqabyy_
p917
sa(dp918
g3
(lp919
Vrt
p920
aV@mtvstyle
p921
aV:
aV\u270b
aV\u270b
aVbusy
p922
aV\u270b
aV\u270b
aVhttps://t.co/hhsrzkovbp
p923
asg12
g13
(S'\x07\xe0\x01\x07\x115\x16\x00\x00\x00'
tRp924
sg15
Nsg16
Vqabyy_
p925
sa(dp926
g3
(lp927
Vrt
p928
aV@ericurry
p929
aV:
aV"
aVnobody
p930
aVknows
p931
aVhow
p932
aVto
p933
aVdrive
p934
aVin
p935
aVthe
p936
aVrain
p937
aV!
aV"
aV-
aVevery
p938
aVcalifornian
p939
asg12
g13
(S'\x07\xe0\x01\x07\x11,9\x00\x00\x00'
tRp940
sg15
Nsg16
Vqabyy_
p941
sa(dp942
g3
(lp943
Vthis
p944
aVis
p945
aVnot
p946
aVthe
p947
aVtime
p948
aVfor
p949
aVme
p950
aVto
p951
aVbe
p952
aVgetting
p953
aVsick
p954
aV\U0001f645
aV\U0001f3fb
asg12
g13
(S'\x07\xe0\x01\x07\x05:1\x00\x00\x00'
tRp955
sg15
Nsg16
Vqabyy_
p956
sa(dp957
g3
(lp958
Vcc
p959
aVhas
p960
aVtreated
p961
aVme
p962
aVgood
p963
aVand
p964
aVi
aVcan't
p965
aVwait
p966
aVto
p967
aVfinish
p968
aVand
p969
aVtransfer
p970
aVback
p971
aVto
p972
aVa
aV4
aVyear
p973
asg12
g13
(S'\x07\xe0\x01\x07\x02\x074\x00\x00\x00'
tRp974
sg15
Nsg16
Vqabyy_
p975
sa(dp976
g3
(lp977
Vsounds
p978
aVsarcastic
p979
aV,
aVbut
p980
aVit's
p981
aVonly
p982
aV50
p983
aV%
asg12
g13
(S'\x07\xe0\x01\x07\x02\x07\x07\x00\x00\x00'
tRp984
sg15
Nsg16
Vqabyy_
p985
sa(dp986
g3
(lp987
Vi
aVwanna
p988
aVfall
p989
aVinto
p990
aVa
aVroutine
p991
aVagain
p992
aV,
aVand
p993
aVbuy
p994
aVexpensive
p995
aVbooks
p996
aV,
aVand
p997
aVspend
p998
aVcountless
p999
aVhours
p1000
aVstudying
p1001
aV!
aV!
asg12
g13
(S'\x07\xe0\x01\x07\x02\x06+\x00\x00\x00'
tRp1002
sg15
Nsg16
Vqabyy_
p1003
sa(dp1004
g3
(lp1005
Vseeing
p1006
aVeveryone
p1007
aVpost
p1008
aVabout
p1009
aVgoing
p1010
aVback
p1011
aVto
p1012
aVschool
p1013
aVmakes
p1014
aVme
p1015
aVkinda
p1016
aVsad
p1017
aVi'm
p1018
aVtaking
p1019
aVthis
p1020
aVsemester
p1021
aVoff
p1022
asg12
g13
(S'\x07\xe0\x01\x07\x02\x06\x03\x00\x00\x00'
tRp1023
sg15
Nsg16
Vqabyy_
p1024
sa(dp1025
g3
(lp1026
Vi
aVwant
p1027
aVto
p1028
aVdo
p1029
aVstuff
p1030
aV,
aVbut
p1031
aVthis
p1032
aVweather
p1033
aVmakes
p1034
aVme
p1035
aVlazy
p1036
asg12
g13
(S'\x07\xe0\x01\x07\x02\x05\x1f\x00\x00\x00'
tRp1037
sg15
Nsg16
Vqabyy_
p1038
sa(dp1039
g3
(lp1040
Vtwitter
p1041
aVsays
p1042
aVi
aVhave
p1043
aVa
aVnotification
p1044
aVon
p1045
aVhere
p1046
aV,
aVbut
p1047
aVthere
p1048
aVain't
p1049
aVshit
p1050
aV,
aVand
p1051
aVit
p1052
aVwon't
p1053
aVgo
p1054
aVaway
p1055
aV\U0001f611
asg12
g13
(S'\x07\xe0\x01\x06\x07/\x1d\x00\x00\x00'
tRp1056
sg15
Nsg16
Vqabyy_
p1057
sa(dp1058
g3
(lp1059
Vrt
p1060
aV@woridstarhiphop
p1061
aV:
aVwhen
p1062
aVu
aVdrunk
p1063
aVaf
p1064
aV&
aVamp
p1065
aV;
aVsee
p1066
aVa
aVmirror
p1067
aVhttps://t.co/kkcaxop4t0
p1068
asg12
g13
(S'\x07\xe0\x01\x06\x05:6\x00\x00\x00'
tRp1069
sg15
Nsg16
Vqabyy_
p1070
sa(dp1071
g3
(lp1072
Vrt
p1073
aV@commonblackgiri
p1074
aV:
aVi
aVhate
p1075
aVwhen
p1076
aVi
aVshow
p1077
aVmy
p1078
aVmom
p1079
aVa
aVfunny
p1080
aVvideo
p1081
aV/
aVpic
p1082
aVand
p1083
aVshe
p1084
aVsays
p1085
aV"
aVwho
p1086
aVis
p1087
aVthat
p1088
aV?
aV"
aVi
aVdon't
p1089
aVknow
p1090
aVjust
p1091
aVlaugh
p1092
aV&
aVamp
p1093
aV;
aVgive
p1094
aVmy
p1095
aVphone
p1096
aVback
p1097
aV\u005c
asg12
g13
(S'\x07\xe0\x01\x02\x16,\x1c\x00\x00\x00'
tRp1098
sg15
Nsg16
Vqabyy_
p1099
sa(dp1100
g3
(lp1101
Vrt
p1102
aV@joesantagato
p1103
aV:
aVwhenever
p1104
aVi'm
p1105
aVin
p1106
aVa
aVbad
p1107
aVmood
p1108
aV,
aVi
aVscroll
p1109
aVthrough
p1110
aVtwitter
p1111
aVhoping
p1112
aVa
aV11
p1113
aVyr
p1114
aVold
p1115
aVcool
p1116
aVhaired
p1117
aVswaggy
p1118
aVboy
p1119
aVtells
p1120
aVme
p1121
aVi'm
p1122
aVbeautiful
p1123
aV&
aVamp
p1124
aV;
aVh
aV\u2026
asg12
g13
(S'\x07\xe0\x01\x02\x16+(\x00\x00\x00'
tRp1125
sg15
Nsg16
Vqabyy_
p1126
sa(dp1127
g3
(lp1128
Vrt
p1129
aV@kardashianreact
p1130
aV:
aVthe
p1131
aVolder
p1132
aVu
aVget
p1133
aVthe
p1134
aVfunnier
p1135
aVspongebob
p1136
aVbecomes
p1137
asg12
g13
(S'\x07\xe0\x01\x02\x16*\x11\x00\x00\x00'
tRp1138
sg15
Nsg16
Vqabyy_
p1139
sa(dp1140
g3
(lp1141
Vrt
p1142
aV@chrissyteigen
p1143
aV:
aVthe
p1144
aVmost
p1145
aVannoying
p1146
aVpart
p1147
aVof
p1148
aVpregnancy
p1149
aVis
p1150
aVthe
p1151
aVfruit
p1152
aVand
p1153
aVveg
p1154
aVshit
p1155
aV.
aV"
aVyour
p1156
aVbaby
p1157
aVis
p1158
aV6
aVinches
p1159
aV.
aVa
aVpineapple
p1160
aV!
aV"
aVwhat
p1161
aVthe
p1162
aVfuck
p1163
aVgroce
p1164
aV\u2026
asg12
g13
(S'\x07\xe0\x01\x02\x14\r\x19\x00\x00\x00'
tRp1165
sg15
Nsg16
Vqabyy_
p1166
sa(dp1167
g3
(lp1168
Vrt
p1169
aV@woridstarhiphop
p1170
aV:
aVhttps://t.co/1vjqmso2gj
p1171
asg12
g13
(S'\x07\xe0\x01\x02\x14\t\x1d\x00\x00\x00'
tRp1172
sg15
Nsg16
Vqabyy_
p1173
sa(dp1174
g3
(lp1175
Vand
p1176
aVnow
p1177
aVto
p1178
aVsee
p1179
aVhow
p1180
aVlong
p1181
aVit'll
p1182
aVtake
p1183
aVme
p1184
aVto
p1185
aVgo
p1186
aVto
p1187
aVsleep
p1188
aVwith
p1189
aVall
p1190
aVthese
p1191
aVguns
p1192
aVand
p1193
aVfireworks
p1194
aVgoing
p1195
aVoff
p1196
aV\U0001f914
aV\u270c
aV\U0001f3fc
asg12
g13
(S'\x07\xe0\x01\x01\x08\x021\x00\x00\x00'
tRp1197
sg15
Nsg16
Vqabyy_
p1198
sa(dp1199
g3
(lp1200
Vthere
p1201
aVgoes
p1202
aVmy
p1203
aVfirst
p1204
aVjudge
p1205
aVmental
p1206
aVtweet
p1207
aVof
p1208
aVthe
p1209
aVyear
p1210
aV\U0001f917
asg12
g13
(S'\x07\xe0\x01\x01\x08\x014\x00\x00\x00'
tRp1211
sg15
Nsg16
Vqabyy_
p1212
sa(dp1213
g3
(lp1214
Vpeople
p1215
aVact
p1216
aVlike
p1217
aVthey've
p1218
aVnever
p1219
aVseen
p1220
aVfireworks
p1221
aVin
p1222
aVtheir
p1223
aVlife
p1224
aV\U0001f612
asg12
g13
(S'\x07\xe0\x01\x01\x08\x01\x1f\x00\x00\x00'
tRp1225
sg15
Nsg16
Vqabyy_
p1226
sa(dp1227
g3
(lp1228
V@darrasilver
p1229
aVyo
p1230
aVi
aVjust
p1231
aVfound
p1232
aVout
p1233
aVabout
p1234
aVthis
p1235
aVshow
p1236
aVnot
p1237
aVlong
p1238
aVago
p1239
aVand
p1240
aVi
aVagree
p1241
aVwith
p1242
aVyou
p1243
aV!
aVit's
p1244
aVpretty
p1245
aVawesome
p1246
asg12
g13
(S"\x07\xdf\x0c\x1f\x06:'\x00\x00\x00"
tRp1247
sg15
Nsg16
Vqabyy_
p1248
sa(dp1249
g3
(lp1250
Vi
aVwould
p1251
aVbe
p1252
aVtoo
p1253
aV\U0001f37e
asg12
g13
(S'\x07\xdf\x0c\x1f\x063\x1d\x00\x00\x00'
tRp1254
sg15
Nsg16
Vqabyy_
p1255
sa(dp1256
g3
(lp1257
Vno
p1258
aVlie
p1259
aVpeople
p1260
aVwere
p1261
aVmad
p1262
aVand
p1263
aVsad
p1264
asg12
g13
(S'\x07\xdf\x0c\x1f\x06/%\x00\x00\x00'
tRp1265
sg15
Nsg16
Vqabyy_
p1266
sa(dp1267
g3
(lp1268
Vshe
p1269
aVthen
p1270
aVsays
p1271
aVloudly
p1272
aV,
aVthere
p1273
aVis
p1274
aVno
p1275
aVmore
p1276
aVhennessy
p1277
aV,
aVwe
p1278
aVhave
p1279
aVran
p1280
aVout
p1281
aVof
p1282
aVhennessy
p1283
aV!
aV\U0001f62d
aV\U0001f602
aV\U0001f62d
aV\U0001f602
asg12
g13
(S'\x07\xdf\x0c\x1f\x06-\x18\x00\x00\x00'
tRp1284
sg15
Nsg16
Vqabyy_
p1285
sa(dp1286
g3
(lp1287
Vour
p1288
aVcashier
p1289
aVhad
p1290
aVthe
p1291
aVkeys
p1292
aVso
p1293
aVeveryone
p1294
aVwas
p1295
aVasking
p1296
aVher
p1297
aV.
aV.
aV.
asg12
g13
(S'\x07\xdf\x0c\x1f\x06,\x08\x00\x00\x00'
tRp1298
sg15
Nsg16
Vqabyy_
p1299
sa(dp1300
g3
(lp1301
Vjust
p1302
aVremembered
p1303
aVwhen
p1304
aVdaniel
p1305
aVand
p1306
aVi
aVwere
p1307
aVat
p1308
aVthe
p1309
aVgrocery
p1310
aVstore
p1311
aVwe
p1312
aVheard
p1313
aVpeople
p1314
aVasking
p1315
aVfor
p1316
aValcohol
p1317
aV.
aV.
aV.
asg12
g13
(S'\x07\xdf\x0c\x1f\x06*%\x00\x00\x00'
tRp1318
sg15
Nsg16
Vqabyy_
p1319
sa(dp1320
g3
(lp1321
Vi
aVswear
p1322
aVit
p1323
aVtakes
p1324
aVme
p1325
aVforever
p1326
aVjust
p1327
aVto
p1328
aVswitch
p1329
aVsides
p1330
aVwhen
p1331
aVi'm
p1332
aVlaying
p1333
aVdown
p1334
aV\U0001f624
asg12
g13
(S'\x07\xdf\x0c\x1f\x06\x1f(\x00\x00\x00'
tRp1335
sg15
Nsg16
Vqabyy_
p1336
sa(dp1337
g3
(lp1338
Vyou'd
p1339
aVthink
p1340
aVthat
p1341
aVsince
p1342
aVtheir
p1343
aVclothes
p1344
aVare
p1345
aVsmall
p1346
aVit
p1347
aVwouldn't
p1348
aVtake
p1349
aVlong
p1350
aVto
p1351
aVwash
p1352
aVand
p1353
aVdry
p1354
aV.
aV.
aV.
aVbut
p1355
aVno
p1356
asg12
g13
(S'\x07\xdf\x0c\x1e\x16\x1f"\x00\x00\x00'
tRp1357
sg15
Nsg16
Vqabyy_
p1358
sa(dp1359
g3
(lp1360
Vmeaning
p1361
aVher
p1362
aVsocks
p1363
aVand
p1364
aVhats
p1365
aVtake
p1366
aVsuper
p1367
aVlong
p1368
aVto
p1369
aVdry
p1370
aVand
p1371
aVthey're
p1372
aVsuper
p1373
aVeasy
p1374
aVto
p1375
aVlose
p1376
aV\U0001f612
asg12
g13
(S'\x07\xdf\x0c\x1e\x16\x1e0\x00\x00\x00'
tRp1377
sg15
Nsg16
Vqabyy_
p1378
sa(dp1379
g3
(lp1380
Vso
p1381
aVi'm
p1382
aVwashing
p1383
aVabby's
p1384
aVclothes
p1385
aVand
p1386
aVits
p1387
aVa
aVlot
p1388
aVharder
p1389
aVthan
p1390
aVi
aVthough
p1391
asg12
g13
(S'\x07\xdf\x0c\x1e\x16\x1d\x05\x00\x00\x00'
tRp1392
sg15
Nsg16
Vqabyy_
p1393
sa(dp1394
g3
(lp1395
V@celestefilth
p1396
aVthey
p1397
aVdid
p1398
aVthat
p1399
aVto
p1400
aVme
p1401
aVat
p1402
aVstupid
p1403
aVskechers
p1404
aVand
p1405
aVonce
p1406
aVi
aVgot
p1407
aVmad
p1408
aVat
p1409
aVthe
p1410
aVmanager
p1411
aVhe
p1412
aVstarted
p1413
aVgiving
p1414
aVme
p1415
aVhours
p1416
aVlol
p1417
asg12
g13
(S'\x07\xdf\x0c\x1e\x14\x0b\x1e\x00\x00\x00'
tRp1418
sg15
Nsg16
Vqabyy_
p1419
sa(dp1420
g3
(lp1421
V@celestefilth
p1422
aVno
p1423
aVlie
p1424
aVwe
p1425
aVdid
p1426
aVthat
p1427
aVto
p1428
aVthis
p1429
aVgirl
p1430
aVat
p1431
aVmy
p1432
aVjob
p1433
aVthat
p1434
aVwe
p1435
aVdidn't
p1436
aVlike
p1437
aV.
aVbut
p1438
aVshe
p1439
aVwas
p1440
aVa
aVhorrible
p1441
aVworker
p1442
aV,
aVand
p1443
aVi'm
p1444
aVpretty
p1445
aVsure
p1446
aVyou're
p1447
aVgood
p1448
asg12
g13
(S'\x07\xdf\x0c\x1e\x11\x03/\x00\x00\x00'
tRp1449
sg15
Nsg16
Vqabyy_
p1450
sa(dp1451
g3
(lp1452
Vlike
p1453
aVit's
p1454
aVhard
p1455
aVenough
p1456
aVfor
p1457
aVme
p1458
aVto
p1459
aVgo
p1460
aVto
p1461
aVsleep
p1462
aV,
aVlet
p1463
aValone
p1464
aVstay
p1465
aVasleep
p1466
aV,
aVand
p1467
aVi
aVend
p1468
aVup
p1469
aVbeing
p1470
aVthe
p1471
aVone
p1472
aVwho
p1473
aVwakes
p1474
aVhim
p1475
aVup
p1476
aV,
aVnot
p1477
aVhis
p1478
aValarms
p1479
aV\U0001f620
asg12
g13
(S'\x07\xdf\x0c\x1e\r\x0b3\x00\x00\x00'
tRp1480
sg15
Nsg16
Vqabyy_
p1481
sa(dp1482
g3
(lp1483
Vi
aVhate
p1484
aVwhen
p1485
aVdaniels
p1486
aValarms
p1487
aVwake
p1488
aVme
p1489
aVup
p1490
aVinstead
p1491
aVof
p1492
aVhim
p1493
aV\U0001f624
asg12
g13
(S'\x07\xdf\x0c\x1e\r\n,\x00\x00\x00'
tRp1494
sg15
Nsg16
Vqabyy_
p1495
sa(dp1496
g3
(lp1497
Vrt
p1498
aV@chrissyteigen
p1499
aV:
aVi
aVhave
p1500
aVsome
p1501
aVkind
p1502
aVof
p1503
aVdisease
p1504
aVwhere
p1505
aVi
aVlook
p1506
aVridiculous
p1507
aVin
p1508
aVshit
p1509
aVmost
p1510
aVother
p1511
aVpeople
p1512
aVlook
p1513
aVcool
p1514
aVin
p1515
asg12
g13
(S'\x07\xdf\x0c\x1e\x07\x0c\x12\x00\x00\x00'
tRp1516
sg15
Nsg16
Vqabyy_
p1517
sa(dp1518
g3
(lp1519
Vbut
p1520
aVno
p1521
aV,
aVabby
p1522
aVstill
p1523
aVhas
p1524
aV3
aVmore
p1525
aVweeks
p1526
asg12
g13
(S'\x07\xdf\x0c\x1d\x04\t*\x00\x00\x00'
tRp1527
sg15
Nsg16
Vqabyy_
p1528
sa(dp1529
g3
(lp1530
Vnow
p1531
aVthe
p1532
aVthing
p1533
aVthat
p1534
aVsucked
p1535
aVwas
p1536
aVthat
p1537
aVi
aVwas
p1538
aVhaving
p1539
aVcontractions
p1540
aVall
p1541
aVthroughout
p1542
aVthe
p1543
aVstore
p1544
aVthat
p1545
aVi
aVthought
p1546
aVit
p1547
aVwas
p1548
aValmost
p1549
aVtime
p1550
aV\U0001f631
asg12
g13
(S'\x07\xdf\x0c\x1d\x04\x086\x00\x00\x00'
tRp1551
sg15
Nsg16
Vqabyy_
p1552
sa(dp1553
g3
(lp1554
Vi
aVgot
p1555
aVmy
p1556
aVown
p1557
aVlittle
p1558
aVtub
p1559
aVof
p1560
aVice
p1561
aVcream
p1562
aVtoo
p1563
asg12
g13
(S'\x07\xdf\x0c\x1d\x04\x08\x04\x00\x00\x00'
tRp1564
sg15
Nsg16
Vqabyy_
p1565
sa(dp1566
g3
(lp1567
Vblueberry
p1568
aVlemonade
p1569
aVwas
p1570
aVa
aVnew
p1571
aVflavor
p1572
aVthat
p1573
aVwe
p1574
aVloved
p1575
aVso
p1576
aVmuch
p1577
aVi
aVknow
p1578
aVit'll
p1579
aVbe
p1580
aVgone
p1581
aVby
p1582
aVtomorrow
p1583
aV.
aV.
asg12
g13
(S'\x07\xdf\x0c\x1d\x04\x07.\x00\x00\x00'
tRp1584
sg15
Nsg16
Vqabyy_
p1585
sa(dp1586
g3
(lp1587
Vwent
p1588
aVto
p1589
aVbuy
p1590
aVgroceries
p1591
aVtoday
p1592
aVwith
p1593
aVdaniel
p1594
aVand
p1595
aVthe
p1596
aVbest
p1597
aVpart
p1598
aVwas
p1599
aVgetting
p1600
aVlemonade
p1601
aVand
p1602
aVice
p1603
aVcream
p1604
asg12
g13
(S'\x07\xdf\x0c\x1d\x04\x07\x08\x00\x00\x00'
tRp1605
sg15
Nsg16
Vqabyy_
p1606
sa(dp1607
g3
(lp1608
Vi
aVhate
p1609
aVthe
p1610
aVfact
p1611
aVthat
p1612
aVpeople
p1613
aVdon't
p1614
aVunderstand
p1615
aVprivacy
p1616
aVor
p1617
aVproper
p1618
aVetiquette
p1619
asg12
g13
(S'\x07\xdf\x0c\x1b\x04\t4\x00\x00\x00'
tRp1620
sg15
Nsg16
Vqabyy_
p1621
sa(dp1622
g3
(lp1623
Vno
p1624
aVlie
p1625
aV,
aVi'm
p1626
aVpretty
p1627
aVpissed
p1628
aVthe
p1629
aVfuck
p1630
aVoff
p1631
aVright
p1632
aVnow
p1633
asg12
g13
(S'\x07\xdf\x0c\x1b\x04\t\x1a\x00\x00\x00'
tRp1634
sg15
Nsg16
Vqabyy_
p1635
sa(dp1636
g3
(lp1637
Vhe
p1638
aVlooks
p1639
aVlike
p1640
aVa
aVstraight
p1641
aVup
p1642
aVcholo
p1643
aV\U0001f43c
aVbut
p1644
aVi
aVstill
p1645
aVlove
p1646
aVhim
p1647
aV\U0001f491
aVhttps://t.co/vmqnahgpji
p1648
asg12
g13
(S'\x07\xdf\x0c\x1a\x036\x0f\x00\x00\x00'
tRp1649
sg15
Nsg16
Vqabyy_
p1650
sa(dp1651
g3
(lp1652
Vi
aVswear
p1653
aVmy
p1654
aVbrothers
p1655
aVwatch
p1656
aVthe
p1657
aVstupidest
p1658
aVmovies
p1659
aVever
p1660
asg12
g13
(S'\x07\xdf\x0c\x1a\x03\x17\x17\x00\x00\x00'
tRp1661
sg15
Nsg16
Vqabyy_
p1662
sa(dp1663
g3
(lp1664
Vrt
p1665
aV@femaletexts
p1666
aV:
aVthis
p1667
aVis
p1668
aVhilarious
p1669
aV\U0001f602
aVhttps://t.co/arxujivayh
p1670
asg12
g13
(S'\x07\xdf\x0c\x1a\x03\x129\x00\x00\x00'
tRp1671
sg15
Nsg16
Vqabyy_
p1672
sa(dp1673
g3
(lp1674
Vtoday
p1675
aVis
p1676
aVpablo's
p1677
aVlast
p1678
aVday
p1679
aVbefore
p1680
aVhe
p1681
aVleaves
p1682
aVback
p1683
aVto
p1684
aVva
p1685
aV\U0001f622
asg12
g13
(S'\x07\xdf\x0c\x19\x17,2\x00\x00\x00'
tRp1686
sg15
Nsg16
Vqabyy_
p1687
sa(dp1688
g3
(lp1689
Vbirthday
p1690
aVgirl
p1691
aVis
p1692
aVtoo
p1693
aVadorable
p1694
aVhttps://t.co/9g4rffvl2p
p1695
asg12
g13
(S'\x07\xdf\x0c\x19\x13\x07/\x00\x00\x00'
tRp1696
sg15
Nsg16
Vqabyy_
p1697
sa(dp1698
g3
(lp1699
Vhonestly
p1700
aVone
p1701
aVof
p1702
aVthe
p1703
aVbest
p1704
aVchristmases
p1705
aVyet
p1706
aVto
p1707
aVcome
p1708
asg12
g13
(S'\x07\xdf\x0c\x19\x12!\x1b\x00\x00\x00'
tRp1709
sg15
Nsg16
Vqabyy_
p1710
sa(dp1711
g3
(lp1712
Vthis
p1713
aVchristmas
p1714
aVi
aVenjoyed
p1715
aVpuerto
p1716
aVrican
p1717
aVfood
p1718
aVand
p1719
aVspent
p1720
aVthe
p1721
aVevening
p1722
aVin
p1723
aVtwo
p1724
aVdifferent
p1725
aVhomes
p1726
asg12
g13
(S'\x07\xdf\x0c\x19\x12!\n\x00\x00\x00'
tRp1727
sg15
Nsg16
Vqabyy_
p1728
sa(dp1729
g3
(lp1730
Vyesterday
p1731
aVi
aVgot
p1732
aVso
p1733
aVstuffed
p1734
aVi
aVfelt
p1735
aVi
aVwas
p1736
aVabout
p1737
aVto
p1738
aVexplode
p1739
aV!
asg12
g13
(S'\x07\xdf\x0c\x19\x12\x1f\x10\x00\x00\x00'
tRp1740
sg15
Nsg16
Vqabyy_
p1741
sa(dp1742
g3
(lp1743
Vworse
p1744
aVpart
p1745
aVis
p1746
aVthat
p1747
aVi
aVdon't
p1748
aVknow
p1749
aVhow
p1750
aVit
p1751
aVhappened
p1752
aVwhile
p1753
aVi
aVwas
p1754
aVasleep
p1755
aV\U0001f612
asg12
g13
(S'\x07\xdf\x0c\x19\x12\x1e.\x00\x00\x00'
tRp1756
sg15
Nsg16
Vqabyy_
p1757
sa(dp1758
g3
(lp1759
Vi've
p1760
aVnever
p1761
aVhad
p1762
aVleg
p1763
aVcramps
p1764
aVin
p1765
aVmy
p1766
aVlife
p1767
aVbefore
p1768
aV!
aVit
p1769
aVfrkn
p1770
aVhurts
p1771
aV!
asg12
g13
(S'\x07\xdf\x0c\x19\x12\x1d3\x00\x00\x00'
tRp1772
sg15
Nsg16
Vqabyy_
p1773
sa(dp1774
g3
(lp1775
Vsince
p1776
aVdaniel
p1777
aVis
p1778
aVthe
p1779
aVathlete
p1780
aVi
aVhad
p1781
aVto
p1782
aVwake
p1783
aVhim
p1784
aVup
p1785
aVto
p1786
aVhelp
p1787
aVme
p1788
aVlol
p1789
asg12
g13
(S'\x07\xdf\x0c\x19\x12\x1d2\x00\x00\x00'
tRp1790
sg15
Nsg16
Vqabyy_
p1791
sa(dp1792
g3
(lp1793
Von
p1794
aVthat
p1795
aVnote
p1796
aV,
aVhappy
p1797
aVbirthday
p1798
aVto
p1799
aVmy
p1800
aVchristmas
p1801
aVbaby
p1802
aVangie
p1803
aV!
asg12
g13
(S'\x07\xdf\x0c\x19\x0e\x1f/\x00\x00\x00'
tRp1804
sg15
Nsg16
Vqabyy_
p1805
sa(dp1806
g3
(lp1807
Vi
aVknow
p1808
aVit
p1809
aVsounds
p1810
aVrude
p1811
aVbut
p1812
aVi
aVunderstand
p1813
aVbabies
p1814
aVcan
p1815
aVcome
p1816
aVwhenever
p1817
aV.
asg12
g13
(S'\x07\xdf\x0c\x19\x0e\x1e,\x00\x00\x00'
tRp1818
sg15
Nsg16
Vqabyy_
p1819
sa(dp1820
g3
(lp1821
Vmeaning
p1822
aVi'm
p1823
aVnot
p1824
aVlike
p1825
aVmy
p1826
aVsister
p1827
aVin
p1828
aVlaw
p1829
aVwho
p1830
aVwoke
p1831
aVeveryone
p1832
aVup
p1833
aVtwo
p1834
aVhours
p1835
aVafter
p1836
aVmidnight
p1837
aVto
p1838
aVgo
p1839
aVto
p1840
aVthe
p1841
aVhospital
p1842
aVwith
p1843
aVher
p1844
aV\U0001f602
aV\U0001f602
asg12
g13
(S'\x07\xdf\x0c\x19\x0e\x1e\x15\x00\x00\x00'
tRp1845
sg15
Nsg16
Vqabyy_
p1846
sa(dp1847
g3
(lp1848
Vmy
p1849
aVgift
p1850
aVto
p1851
aVmy
p1852
aVfamily
p1853
aVwas
p1854
aVto
p1855
aVlet
p1856
aVthem
p1857
aVsleep
p1858
aVthrough
p1859
aVthe
p1860
aVnight
p1861
asg12
g13
(S'\x07\xdf\x0c\x19\x0e\x1d&\x00\x00\x00'
tRp1862
sg15
Nsg16
Vqabyy_
p1863
sa(dp1864
g3
(lp1865
V@cloudsixx1
p1866
aVyes
p1867
aV!
aVi'm
p1868
aVjust
p1869
aVsad
p1870
aVhe
p1871
aVwon't
p1872
aVbe
p1873
aVin
p1874
aVthe
p1875
aVsecond
p1876
aVindependence
p1877
aVmovie
p1878
asg12
g13
(S'\x07\xdf\x0c\x17\x00+\x17\x00\x00\x00'
tRp1879
sg15
Nsg16
Vqabyy_
p1880
sa(dp1881
g3
(lp1882
V@cloudsixx1
p1883
aVi
aVdid
p1884
aVsee
p1885
aVit
p1886
aV.
aVit
p1887
aVwas
p1888
aVfreakin
p1889
aVawesome
p1890
aV\U0001f631
asg12
g13
(S'\x07\xdf\x0c\x17\x00\x1c\x03\x00\x00\x00'
tRp1891
sg15
Nsg16
Vqabyy_
p1892
sa(dp1893
g3
(lp1894
Vi
aVjust
p1895
aVlove
p1896
aVwill
p1897
aVsmiths
p1898
aVmovies
p1899
aV\U0001f47d
asg12
g13
(S'\x07\xdf\x0c\x16\x10\x0f\x1f\x00\x00\x00'
tRp1900
sg15
Nsg16
Vqabyy_
p1901
sa(dp1902
g3
(lp1903
Vrt
p1904
aV@sportscenter
p1905
aV:
aV"
aVfootball
p1906
aVwill
p1907
aVnever
p1908
aVbe
p1909
aVless
p1910
aVbeautiful
p1911
aV.
aV"
aVwill
p1912
aVsmith
p1913
aVtalks
p1914
aVimpact
p1915
aVof
p1916
aVhis
p1917
aVnew
p1918
aVmovie
p1919
aV"
aVconcussion
p1920
aV"
aVwith
p1921
aV@notthefakesvp
p1922
aV.
aVhttp
p1923
aV\u2026
asg12
g13
(S'\x07\xdf\x0c\x16\x10\x0e\x0c\x00\x00\x00'
tRp1924
sg15
Nsg16
Vqabyy_
p1925
sa(dp1926
g3
(lp1927
Vit
p1928
aVwas
p1929
aVnot
p1930
aVa
aVlong
p1931
aVmovie
p1932
aVbut
p1933
aVi
aVcan't
p1934
aVbe
p1935
aVsitting
p1936
aVdown
p1937
aVfor
p1938
aVtoo
p1939
aVlong
p1940
aVanymore
p1941
asg12
g13
(S'\x07\xdf\x0c\x16\r43\x00\x00\x00'
tRp1942
sg15
Nsg16
Vqabyy_
p1943
sa(dp1944
g3
(lp1945
Vstar
p1946
aVwars
p1947
aVis
p1948
aVprobably
p1949
aVthe
p1950
aVlast
p1951
aVmovie
p1952
aVi
aVwill
p1953
aVhave
p1954
aVseen
p1955
aVwhile
p1956
aVpregnant
p1957
asg12
g13
(S'\x07\xdf\x0c\x16\r4\x19\x00\x00\x00'
tRp1958
sg15
Nsg16
Vqabyy_
p1959
sa(dp1960
g3
(lp1961
Vlet's
p1962
aVjust
p1963
aVhope
p1964
aVthis
p1965
aVone
p1966
aVwon't
p1967
aVget
p1968
aVstolen
p1969
aVlike
p1970
aVthe
p1971
aVlast
p1972
aVone
p1973
asg12
g13
(S'\x07\xdf\x0c\x16\x01/\x11\x00\x00\x00'
tRp1974
sg15
Nsg16
Vqabyy_
p1975
sa(dp1976
g3
(lp1977
Vthey
p1978
aVneeded
p1979
aVone
p1980
aVwhere
p1981
aVyou
p1982
aVdidn't
p1983
aVhave
p1984
aVto
p1985
aVput
p1986
aVyour
p1987
aVglasses
p1988
aVon
p1989
aVto
p1990
aVsee
p1991
aVclearly
p1992
asg12
g13
(S'\x07\xdf\x0c\x16\x01.*\x00\x00\x00'
tRp1993
sg15
Nsg16
Vqabyy_
p1994
sa(dp1995
g3
(lp1996
Vso
p1997
aVhappy
p1998
aVwe
p1999
aVwere
p2000
aVable
p2001
aVto
p2002
aVbuy
p2003
aVour
p2004
aVparents
p2005
aVa
aVtv
p2006
aV\U0001f4fa
asg12
g13
(S'\x07\xdf\x0c\x16\x01-\x13\x00\x00\x00'
tRp2007
sg15
Nsg16
Vqabyy_
p2008
sa(dp2009
g3
(lp2010
Vwatching
p2011
aVmaleficent
p2012
aVwith
p2013
aVpablo
p2014
aV\U0001f984
asg12
g13
(S'\x07\xdf\x0c\x16\x01,\x05\x00\x00\x00'
tRp2015
sg15
Nsg16
Vqabyy_
p2016
sa(dp2017
g3
(lp2018
Vhate
p2019
aVwaking
p2020
aVup
p2021
aVwith
p2022
aVa
aVsore
p2023
aVthroat
p2024
asg12
g13
(S'\x07\xdf\x0c\x15\x11),\x00\x00\x00'
tRp2025
sg15
Nsg16
Vqabyy_
p2026
sa(dp2027
g3
(lp2028
Vi
aVjust
p2029
aVlove
p2030
aVthe
p2031
aVway
p2032
aV@therock
p2033
aVtalks
p2034
aVabout
p2035
aVbeing
p2036
aVa
aVfather
p2037
aV\U0001f60d
asg12
g13
(S'\x07\xdf\x0c\x15\x00(,\x00\x00\x00'
tRp2038
sg15
Nsg16
Vqabyy_
p2039
sa(dp2040
g3
(lp2041
Vrt
p2042
aV@bestcoast
p2043
aV:
aVmy
p2044
aVhope
p2045
aVfor
p2046
aV2016
p2047
aVis
p2048
aVthat
p2049
aVi
aVnever
p2050
aVhave
p2051
aVto
p2052
aVhear
p2053
aV/
aVsee
p2054
aVthe
p2055
aVphrase
p2056
aV"
aVit's
p2057
aVlit
p2058
aV"
aVever
p2059
aVagain
p2060
asg12
g13
(S'\x07\xdf\x0c\x14\x16\x10\x17\x00\x00\x00'
tRp2061
sg15
Nsg16
Vqabyy_
p2062
sa(dp2063
g3
(lp2064
Vupdating
p2065
aVmy
p2066
aVcalendar
p2067
aVand
p2068
aVholy
p2069
aVshit
p2070
aVi'm
p2071
aValmost
p2072
aVdue
p2073
aV\U0001f631
asg12
g13
(S'\x07\xdf\x0c\x14\x06\x0e\x11\x00\x00\x00'
tRp2074
sg15
Nsg16
Vqabyy_
p2075
sa(dp2076
g3
(lp2077
Vwhen
p2078
aVyou
p2079
aVrealize
p2080
aVyour
p2081
aV7
aVonline
p2082
aVclasses
p2083
aVfrom
p2084
aVhell
p2085
aVare
p2086
aVover
p2087
aVand
p2088
aVyou
p2089
aVget
p2090
aVto
p2091
aVbe
p2092
aVlazy
p2093
aVwithout
p2094
aVfeeling
p2095
aVany
p2096
aVguilt
p2097
aV\U0001f64c
aV\U0001f3fc
asg12
g13
(S'\x07\xdf\x0c\x14\x06\n/\x00\x00\x00'
tRp2098
sg15
Nsg16
Vqabyy_
p2099
sa(dp2100
g3
(lp2101
Vjust
p2102
aVtwo
p2103
aVmore
p2104
aVpages
p2105
aVand
p2106
aVi
aVwill
p2107
aVbe
p2108
aVdone
p2109
aVwith
p2110
aVmy
p2111
aVlast
p2112
aVfinal
p2113
aV!
aV!
aV!
asg12
g13
(S'\x07\xdf\x0c\x13\x06\x0f.\x00\x00\x00'
tRp2114
sg15
Nsg16
Vqabyy_
p2115
sa(dp2116
g3
(lp2117
Vi
aVcan't
p2118
aVbreathe
p2119
aVman
p2120
aV.
aV.
asg12
g13
(S'\x07\xdf\x0c\x13\x057\x19\x00\x00\x00'
tRp2121
sg15
Nsg16
Vqabyy_
p2122
sa(dp2123
g3
(lp2124
Vrt
p2125
aV@gabweise
p2126
aV:
aVwhen
p2127
aVyou
p2128
aVmean
p2129
aVit
p2130
aV,
aVi'll
p2131
aVbelieve
p2132
aVit
p2133
aV.
aVif
p2134
aVyou
p2135
aVtext
p2136
aVit
p2137
aV,
aVi'll
p2138
aVdelete
p2139
aVit
p2140
aV.
asg12
g13
(S'\x07\xdf\x0c\x13\x05+:\x00\x00\x00'
tRp2141
sg15
Nsg16
Vqabyy_
p2142
sa(dp2143
g3
(lp2144
Vwell
p2145
aVuntil
p2146
aVjune
p2147
aVactually
p2148
asg12
g13
(S'\x07\xdf\x0c\x12\x12\x08\x11\x00\x00\x00'
tRp2149
sg15
Nsg16
Vqabyy_
p2150
sa(dp2151
g3
(lp2152
Vtwo
p2153
aVfinals
p2154
aVleft
p2155
aV.
aV.
aVand
p2156
aVthen
p2157
aVi
aVcan
p2158
aVrelax
p2159
aVforever
p2160
asg12
g13
(S'\x07\xdf\x0c\x12\x12\x08\x04\x00\x00\x00'
tRp2161
sg15
Nsg16
Vqabyy_
p2162
sa(dp2163
g3
(lp2164
Vthey're
p2165
aVnot
p2166
aVfamily
p2167
aV,
aVbut
p2168
aVi
aVspent
p2169
aVmost
p2170
aVof
p2171
aVmy
p2172
aVchildhood
p2173
aVwith
p2174
aVthem
p2175
asg12
g13
(S'\x07\xdf\x0c\x12\x03\n\x08\x00\x00\x00'
tRp2176
sg15
Nsg16
Vqabyy_
p2177
sa(dp2178
g3
(lp2179
Vwhen
p2180
aVyou
p2181
aVhaven't
p2182
aVseen
p2183
aVfamily
p2184
aVfriends
p2185
aVfrom
p2186
aVlike
p2187
aV5
aVyears
p2188
aVago
p2189
asg12
g13
(S'\x07\xdf\x0c\x12\x03\t\x01\x00\x00\x00'
tRp2190
sg15
Nsg16
Vqabyy_
p2191
sa(dp2192
g3
(lp2193
Vmaking
p2194
aVsponge
p2195
aVbob
p2196
aVreferences
p2197
aVall
p2198
aVday
p2199
aVhas
p2200
aVbeen
p2201
aVa
aVsuccess
p2202
asg12
g13
(S'\x07\xdf\x0c\x12\x02\x1d\x17\x00\x00\x00'
tRp2203
sg15
Nsg16
Vqabyy_
p2204
sa(dp2205
g3
(lp2206
Vin
p2207
aVother
p2208
aVnews
p2209
aV.
aV.
aV.
aVso
p2210
aVthankful
p2211
aVmy
p2212
aVbrother
p2213
aVis
p2214
aVhome
p2215
aV!
aV!
aV!
asg12
g13
(S'\x07\xdf\x0c\x12\x02\x1b1\x00\x00\x00'
tRp2216
sg15
Nsg16
Vqabyy_
p2217
sa(dp2218
g3
(lp2219
Vi'll
p2220
aVjust
p2221
aVstay
p2222
aVquiet
p2223
aVbefore
p2224
aVi
aVstart
p2225
aVanything
p2226
asg12
g13
(S'\x07\xdf\x0c\x12\x02\x1b\x18\x00\x00\x00'
tRp2227
sg15
Nsg16
Vqabyy_
p2228
sa(dp2229
g3
(lp2230
Vlike
p2231
aVi
aVcan't
p2232
aVeven
p2233
aVtweet
p2234
aVabout
p2235
aVyour
p2236
aVsituation
p2237
aVkuz
p2238
aVit's
p2239
aVpathetic
p2240
asg12
g13
(S'\x07\xdf\x0c\x12\x02\x1a\x0e\x00\x00\x00'
tRp2241
sg15
Nsg16
Vqabyy_
p2242
sa(dp2243
g3
(lp2244
Vit's
p2245
aVhonestly
p2246
aVhilarious
p2247
aV.
asg12
g13
(S'\x07\xdf\x0c\x12\x02\x18\x08\x00\x00\x00'
tRp2248
sg15
Nsg16
Vqabyy_
p2249
sa(dp2250
g3
(lp2251
Vcoincidence
p2252
aV.
aV.
aV.
aVi
aVthink
p2253
aVnot
p2254
asg12
g13
(S'\x07\xdf\x0c\x12\x02\x173\x00\x00\x00'
tRp2255
sg15
Nsg16
Vqabyy_
p2256
sa(dp2257
g3
(lp2258
Vthat
p2259
aVmoment
p2260
aVwhen
p2261
aVone
p2262
aVof
p2263
aVmy
p2264
aVold
p2265
aVfriends
p2266
aVblocks
p2267
aVyou
p2268
aVas
p2269
aVsoon
p2270
aVas
p2271
aVi
aVmentioned
p2272
aVthat
p2273
aVi
aVwas
p2274
aVpregnant
p2275
aV.
asg12
g13
(S'\x07\xdf\x0c\x12\x02\x17#\x00\x00\x00'
tRp2276
sg15
Nsg16
Vqabyy_
p2277
sa(dp2278
g3
(lp2279
Vso
p2280
aVif
p2281
aVmy
p2282
aVfamily
p2283
aVsays
p2284
aVanything
p2285
aVabout
p2286
aVmy
p2287
aVwrapping
p2288
aVskills
p2289
aV,
aVit's
p2290
aVgonna
p2291
aVbe
p2292
aVheir
p2293
aVturn
p2294
aVto
p2295
aVdo
p2296
aVall
p2297
aVof
p2298
aVthem
p2299
aVnext
p2300
aVyear
p2301
asg12
g13
(S'\x07\xdf\x0c\x10\x14:\x19\x00\x00\x00'
tRp2302
sg15
Nsg16
Vqabyy_
p2303
sa(dp2304
g3
(lp2305
Vmy
p2306
aVmom
p2307
aValways
p2308
aVmakes
p2309
aVme
p2310
aVwrap
p2311
aVher
p2312
aVpresents
p2313
aVtoo
p2314
asg12
g13
(S'\x07\xdf\x0c\x10\x1496\x00\x00\x00'
tRp2315
sg15
Nsg16
Vqabyy_
p2316
sa(dp2317
g3
(lp2318
Vdecember
p2319
aVis
p2320
aVfull
p2321
aVof
p2322
aVwrapping
p2323
aVgifts
p2324
aVkuz
p2325
aVnow
p2326
aVthere's
p2327
aVthree
p2328
aVbirthdays
p2329
aVplus
p2330
aVthe
p2331
aVusual
p2332
aVchristmas
p2333
aVpresents
p2334
asg12
g13
(S'\x07\xdf\x0c\x10\x149!\x00\x00\x00'
tRp2335
sg15
Nsg16
Vqabyy_
p2336
sa(dp2337
g3
(lp2338
Vi'm
p2339
aVstill
p2340
aVwrapping
p2341
aVpresents
p2342
aV.
aVeven
p2343
aVthough
p2344
aVi
aVreally
p2345
aVdon't
p2346
aVwant
p2347
aVto
p2348
asg12
g13
(S'\x07\xdf\x0c\x10\x1487\x00\x00\x00'
tRp2349
sg15
Nsg16
Vqabyy_
p2350
sa(dp2351
g3
(lp2352
Vfirst
p2353
aVten
p2354
aVminutes
p2355
aVof
p2356
aVwaking
p2357
aVup
p2358
aVi
aVenjoyed
p2359
aVwatching
p2360
aVone
p2361
aVdirection
p2362
aVsinging
p2363
aVin
p2364
aVa
aVcar
p2365
aV\u263a
aV\ufe0f
asg12
g13
(S'\x07\xdf\x0c\x10\x11\x1e%\x00\x00\x00'
tRp2366
sg15
Nsg16
Vqabyy_
p2367
sa(dp2368
g3
(lp2369
Vrt
p2370
aV@wshhfans
p2371
aV:
aVlmaoo
p2372
aVhttps://t.co/1csvtivljq
p2373
asg12
g13
(S'\x07\xdf\x0c\x10\x11\n5\x00\x00\x00'
tRp2374
sg15
Nsg16
Vqabyy_
p2375
sa(dp2376
g3
(lp2377
Vgotta
p2378
aVget
p2379
aVused
p2380
aVto
p2381
aVit
p2382
aVsince
p2383
aVmost
p2384
aVof
p2385
aVthe
p2386
aVstuff
p2387
aVis
p2388
aVfor
p2389
aVbaby
p2390
asg12
g13
(S'\x07\xdf\x0c\x0f\x14\x14$\x00\x00\x00'
tRp2391
sg15
Nsg16
Vqabyy_
p2392
sa(dp2393
g3
(lp2394
Vroom
p2395
aVis
p2396
aVa
aVmess
p2397
aVbut
p2398
aVi
aVdon't
p2399
aVhave
p2400
aVany
p2401
aVintentions
p2402
aVof
p2403
aVcleaning
p2404
aVit
p2405
asg12
g13
(S'\x07\xdf\x0c\x0f\x14\x14\x0c\x00\x00\x00'
tRp2406
sg15
Nsg16
Vqabyy_
p2407
sa(dp2408
g3
(lp2409
Vblah
p2410
aVblah
p2411
aVblah
p2412
aV\U0001f612
aV\U0001f61f
aV\U0001f61e
aV\U0001f633
aV\U0001f913
aV\U0001f60e
aV\U0001f917
aV\U0001f60f
aV\U0001f623
aV\U0001f620
aV\U0001f624
aV\u2639
aV\ufe0f
aV\U0001f629
aV\U0001f62b
aV\U0001f616
aV\U0001f630
aV\U0001f622
aV\U0001f62d
aV\U0001f625
aV\U0001f4a4
aV\U0001f4a4
aV\U0001f4a4
aV\U0001f4a4
aV\U0001f4a4
asg12
g13
(S'\x07\xdf\x0c\x0f\x057+\x00\x00\x00'
tRp2413
sg15
Nsg16
Vqabyy_
p2414
sa(dp2415
g3
(lp2416
Vthat
p2417
aVand
p2418
aVbaby
p2419
aVgirl
p2420
aVis
p2421
aVnot
p2422
aVletting
p2423
aVme
p2424
aVconcentrate
p2425
aVanymore
p2426
aV.
aV.
aV.
asg12
g13
(S'\x07\xdf\x0c\x0f\x056+\x00\x00\x00'
tRp2427
sg15
Nsg16
Vqabyy_
p2428
sa(dp2429
g3
(lp2430
Vreally
p2431
aVwanna
p2432
aVgo
p2433
aVto
p2434
aVsleep
p2435
aVbut
p2436
aVi
aVstill
p2437
aVhave
p2438
aVtwo
p2439
aVsmall
p2440
aVfinals
p2441
aVto
p2442
aVdo
p2443
aVbefore
p2444
aVmidnight
p2445
aV!
aV!
asg12
g13
(S'\x07\xdf\x0c\x0f\x053+\x00\x00\x00'
tRp2446
sg15
Nsg16
Vqabyy_
p2447
sa(dp2448
g3
(lp2449
Vmiracle
p2450
aVof
p2451
aVthe
p2452
aVday
p2453
aV.
aV.
aVfinished
p2454
aVmy
p2455
aVbusiness
p2456
aVhw
p2457
aVby
p2458
aV5
aVpm
p2459
aVinstead
p2460
aVof
p2461
aV11
p2462
aVwhen
p2463
aVits
p2464
aVdue
p2465
asg12
g13
(S'\x07\xdf\x0c\x0f\x03/\x01\x00\x00\x00'
tRp2466
sg15
Nsg16
Vqabyy_
p2467
sa(dp2468
g3
(lp2469
Vthat
p2470
aVwas
p2471
aVnot
p2472
aVthe
p2473
aVcase
p2474
aVtoday
p2475
aV,
aVbut
p2476
aVall
p2477
aVthe
p2478
aVother
p2479
aVtimes
p2480
aVyes
p2481
asg12
g13
(S'\x07\xdf\x0c\x0e\x15,\x17\x00\x00\x00'
tRp2482
sg15
Nsg16
Vqabyy_
p2483
sa(dp2484
g3
(lp2485
Vrt
p2486
aV@dory
p2487
aV:
aVas
p2488
aVsoon
p2489
aVas
p2490
aVyou
p2491
aVthink
p2492
aV\u201c
aVmaybe
p2493
aVi
aVcan
p2494
aVget
p2495
aVup
p2496
aVearly
p2497
aVand
p2498
aVjust
p2499
aVfinish
p2500
aVit
p2501
aVtomorrow
p2502
aV\u201d
aVyou
p2503
aV\u2019
aVve
p2504
aValready
p2505
aVlost
p2506
asg12
g13
(S'\x07\xdf\x0c\x0e\x15+;\x00\x00\x00'
tRp2507
sg15
Nsg16
Vqabyy_
p2508
sa(dp2509
g3
(lp2510
Vi
aVloved
p2511
aVgoing
p2512
aVto
p2513
aVpeet's
p2514
aVthis
p2515
aVmorning
p2516
aV.
aVi
aVactually
p2517
aVgot
p2518
aVwork
p2519
aVdone
p2520
aV!
aV\U0001f913
asg12
g13
(S'\x07\xdf\x0c\x0e\x15(\n\x00\x00\x00'
tRp2521
sg15
Nsg16
Vqabyy_
p2522
sa(dp2523
g3
(lp2524
Vtomorrow
p2525
aVi
aVhave
p2526
aVtwo
p2527
aVfinals
p2528
aVand
p2529
aVi
aVjust
p2530
aVwant
p2531
aVto
p2532
aVget
p2533
aVthem
p2534
aVover
p2535
aVwith
p2536
aVin
p2537
aVthe
p2538
aVmorning
p2539
asg12
g13
(S'\x07\xdf\x0c\x0e\x07&\x00\x00\x00\x00'
tRp2540
sg15
Nsg16
Vqabyy_
p2541
sa(dp2542
g3
(lp2543
Vi
aVjust
p2544
aVhate
p2545
aVthe
p2546
aVfact
p2547
aVthat
p2548
aVit
p2549
aVmight
p2550
aVbe
p2551
aVcrowded
p2552
asg12
g13
(S'\x07\xdf\x0c\x0e\x07%\x16\x00\x00\x00'
tRp2553
sg15
Nsg16
Vqabyy_
p2554
sa(dp2555
g3
(lp2556
Vif
p2557
aVi
aVstay
p2558
aVhome
p2559
aVin
p2560
aVbed
p2561
aVi
aVknow
p2562
aVi
aVdefinitely
p2563
aVwon't
p2564
asg12
g13
(S'\x07\xdf\x0c\x0e\x07$$\x00\x00\x00'
tRp2565
sg15
Nsg16
Vqabyy_
p2566
sa(dp2567
g3
(lp2568
Vif
p2569
aVi
aVgo
p2570
aVto
p2571
aVcampus
p2572
aVtomorrow
p2573
aVwill
p2574
aVi
aVbe
p2575
aVproductive
p2576
aV?
asg12
g13
(S'\x07\xdf\x0c\x0e\x07$\x16\x00\x00\x00'
tRp2577
sg15
Nsg16
Vqabyy_
p2578
sa(dp2579
g3
(lp2580
Vrt
p2581
aV@kardashianreact
p2582
aV:
aVemailing
p2583
aVprofessors
p2584
aVbe
p2585
aVlike
p2586
aVme
p2587
aV:
aV*
aVpolite
p2588
aVgreeting
p2589
aV,
aVmultiple
p2590
aVparagraphs
p2591
aV,
aVperfect
p2592
aVgrammar
p2593
aV*
aVprofessor
p2594
aV:
aV\u201c
aVsure
p2595
aV\u201d
aV-
aVsent
p2596
aVfr
p2597
aV\u2026
asg12
g13
(S'\x07\xdf\x0c\x0e\x00\x188\x00\x00\x00'
tRp2598
sg15
Nsg16
Vqabyy_
p2599
sa(dp2600
g3
(lp2601
Vrt
p2602
aV@ayeshacurry
p2603
aV:
aVproud
p2604
aVmama
p2605
aVmoment
p2606
aV.
aVour
p2607
aVbig
p2608
aVlittle
p2609
aV3
aVyear
p2610
aVold
p2611
aV!
aVim
p2612
aVso
p2613
aVin
p2614
aVlove
p2615
aV!
aV\U0001f60d
aV\U0001f60d
aV\U0001f60d
aVhttps://t.co/jaxmvl5mmf
p2616
asg12
g13
(S'\x07\xdf\x0c\x0e\x00\x16\x05\x00\x00\x00'
tRp2617
sg15
Nsg16
Vqabyy_
p2618
sa(dp2619
g3
(lp2620
Vi've
p2621
aVbeen
p2622
aVawake
p2623
aVsine
p2624
aV4
aVam
p2625
aV.
aVall
p2626
aVbecause
p2627
aVi'm
p2628
aVused
p2629
aVto
p2630
aVdaniel
p2631
aVgoing
p2632
aVto
p2633
aVwork
p2634
aVeveryday
p2635
aVat
p2636
aVthis
p2637
aVtime
p2638
aV\U0001f621
asg12
g13
(S'\x07\xdf\x0c\x0c\r\x14\x1f\x00\x00\x00'
tRp2639
sg15
Nsg16
Vqabyy_
p2640
sa(dp2641
g3
(lp2642
Vthe
p2643
aVonly
p2644
aVreason
p2645
aVi
aVtry
p2646
aVto
p2647
aVvideo
p2648
aVtape
p2649
aVis
p2650
aVto
p2651
aVsend
p2652
aVthem
p2653
aVto
p2654
aVdaniel
p2655
aVwhen
p2656
aVhe's
p2657
aVat
p2658
aVwork
p2659
aV.
aV.
aV.
aV.
aVto
p2660
aVshow
p2661
aVhim
p2662
aVi'm
p2663
aVnot
p2664
aVlying
p2665
aVlol
p2666
asg12
g13
(S'\x07\xdf\x0c\x0b\x13\x15\x0b\x00\x00\x00'
tRp2667
sg15
Nsg16
Vqabyy_
p2668
sa(dp2669
g3
(lp2670
Vhowever
p2671
aV,
aVit's
p2672
aVlike
p2673
aVshe
p2674
aVcan
p2675
aVsense
p2676
aVwhen
p2677
aVi
aVtry
p2678
aVto
p2679
aVsee
p2680
aVher
p2681
aVmove
p2682
aVor
p2683
aVput
p2684
aVa
aVcamera
p2685
aVto
p2686
aVmy
p2687
aVbelly
p2688
aVbecause
p2689
aVshe
p2690
aVimmediately
p2691
aVstops
p2692
aV!
aV!
aV!
asg12
g13
(S'\x07\xdf\x0c\x0b\x13\x0f1\x00\x00\x00'
tRp2693
sg15
Nsg16
Vqabyy_
p2694
sa(dp2695
g3
(lp2696
Vshe's
p2697
aVsuper
p2698
aVactive
p2699
aVand
p2700
aVi
aVstarted
p2701
aVcalling
p2702
aVher
p2703
aVmovements
p2704
aVof
p2705
aVa
aVfish
p2706
aV.
aV.
aV.
asg12
g13
(S'\x07\xdf\x0c\x0b\x13\x0f\x03\x00\x00\x00'
tRp2707
sg15
Nsg16
Vqabyy_
p2708
sa(dp2709
g3
(lp2710
Vhere
p2711
aVthe
p2712
aVthing
p2713
aVthat
p2714
aVcracks
p2715
aVme
p2716
aVup
p2717
aVabout
p2718
aVbaby's
p2719
aVmovements
p2720
aV.
aV.
asg12
g13
(S'\x07\xdf\x0c\x0b\x13\x0e\x12\x00\x00\x00'
tRp2721
sg15
Nsg16
Vqabyy_
p2722
sa(dp2723
g3
(lp2724
Vall
p2725
aVi
aVcan
p2726
aVthink
p2727
aVof
p2728
aVis
p2729
aVsnape
p2730
aVdying
p2731
aVat
p2732
aVthe
p2733
aVend
p2734
aV\U0001f61e
aV\U0001f61e
asg12
g13
(S'\x07\xdf\x0c\x0b\x03\x15\x08\x00\x00\x00'
tRp2735
sg15
Nsg16
Vqabyy_
p2736
sa(dp2737
g3
(lp2738
Vwatching
p2739
aVharry
p2740
aVpotter
p2741
aVmakes
p2742
aVme
p2743
aVsad
p2744
asg12
g13
(S'\x07\xdf\x0c\x0b\x03\x14#\x00\x00\x00'
tRp2745
sg15
Nsg16
Vqabyy_
p2746
sa(dp2747
g3
(lp2748
Vthis
p2749
aVis
p2750
aVjust
p2751
aVso
p2752
aVexciting
p2753
aVi'm
p2754
aVso
p2755
aVhappy
p2756
aVfor
p2757
aVthem
p2758
aV!
asg12
g13
(S'\x07\xdf\x0c\x0b\x02\x17\x1c\x00\x00\x00'
tRp2759
sg15
Nsg16
Vqabyy_
p2760
sa(dp2761
g3
(lp2762
Vme
p2763
aVand
p2764
aVmy
p2765
aVcoworker
p2766
aValways
p2767
aVtalked
p2768
aVabout
p2769
aVhow
p2770
aVawesome
p2771
aVplay
p2772
aVdates
p2773
aVwould
p2774
aVbe
p2775
aV!
aVand
p2776
aVnow
p2777
aVthey
p2778
aVcan
p2779
aVhappen
p2780
aV!
aV!
asg12
g13
(S'\x07\xdf\x0c\x0b\x02\x16\x1f\x00\x00\x00'
tRp2781
sg15
Nsg16
Vqabyy_
p2782
sa(dp2783
g3
(lp2784
Vthat
p2785
aVawesome
p2786
aVnews
p2787
aVwhen
p2788
aVyou
p2789
aVfind
p2790
aVout
p2791
aVone
p2792
aVof
p2793
aVyour
p2794
aVbest
p2795
aVfriends
p2796
aVis
p2797
aVpregnant
p2798
aV!
aV!
aV!
aV!
asg12
g13
(S'\x07\xdf\x0c\x0b\x01+2\x00\x00\x00'
tRp2799
sg15
Nsg16
Vqabyy_
p2800
sa(dp2801
g3
(lp2802
Vthe
p2803
aVdownside
p2804
aVof
p2805
aVbuying
p2806
aVonline
p2807
aVis
p2808
aVhaving
p2809
aVhella
p2810
aVboxes
p2811
aVall
p2812
aVover
p2813
aVyour
p2814
aVroom
p2815
aV\U0001f612
asg12
g13
(S'\x07\xdf\x0c\n\x16$\x1a\x00\x00\x00'
tRp2816
sg15
Nsg16
Vqabyy_
p2817
sa(dp2818
g3
(lp2819
Vwhen
p2820
aVyou're
p2821
aVsleepy
p2822
aVbut
p2823
aVyou're
p2824
aVhungry
p2825
aVso
p2826
aVyou
p2827
aVgotta
p2828
aVwake
p2829
aVup
p2830
aVor
p2831
aVelse
p2832
aVyou
p2833
aVcan't
p2834
aVsleep
p2835
asg12
g13
(S'\x07\xdf\x0c\n\r\x138\x00\x00\x00'
tRp2836
sg15
Nsg16
Vqabyy_
p2837
sa(dp2838
g3
(lp2839
V@nanseaperez
p2840
aVtrust
p2841
aVme
p2842
aVin
p2843
aVon
p2844
aVthe
p2845
aVsame
p2846
aVboat
p2847
aVas
p2848
aVyou
p2849
aV.
asg12
g13
(S'\x07\xdf\x0c\n\x01\x10$\x00\x00\x00'
tRp2850
sg15
Nsg16
Vqabyy_
p2851
sa(dp2852
g3
(lp2853
Vwhen
p2854
aV@nanseaperez
p2855
aVspeaks
p2856
aVthe
p2857
aVtruth
p2858
aVand
p2859
aVgets
p2860
aVyou
p2861
aVmotivated
p2862
aV!
aV\U0001f44f
aV\U0001f3fc
aV\U0001f44f
aV\U0001f3fc
asg12
g13
(S'\x07\xdf\x0c\n\x01\x08\x11\x00\x00\x00'
tRp2863
sg15
Nsg16
Vqabyy_
p2864
sa(dp2865
g3
(lp2866
V@nanseaperez
p2867
aVscrew
p2868
aVwhat
p2869
aVanyone
p2870
aVthinks
p2871
aV!
aVyou
p2872
aVdo
p2873
aVwhat
p2874
aVyou
p2875
aVgotta
p2876
aVdo
p2877
aVto
p2878
aVbe
p2879
aVahead
p2880
aVof
p2881
aVthem
p2882
aVin
p2883
aVthe
p2884
aVend
p2885
asg12
g13
(S'\x07\xdf\x0c\n\x01\x027\x00\x00\x00'
tRp2886
sg15
Nsg16
Vqabyy_
p2887
sa(dp2888
g3
(lp2889
Vwhen
p2890
aVall
p2891
aVof
p2892
aVa
aVsudden
p2893
aVyou're
p2894
aVon
p2895
aVsocial
p2896
aVmedia
p2897
aVactually
p2898
aVinteracting
p2899
aVwith
p2900
aVpeople
p2901
aVonly
p2902
aVbecause
p2903
aVyou
p2904
aVdon't
p2905
aVwant
p2906
aVto
p2907
aVface
p2908
aVthe
p2909
aVfact
p2910
aVyou
p2911
aVhave
p2912
aVhw
p2913
aVto
p2914
aVdo
p2915
asg12
g13
(S'\x07\xdf\x0c\t\x13\x15#\x00\x00\x00'
tRp2916
sg15
Nsg16
Vqabyy_
p2917
sa(dp2918
g3
(lp2919
Vthese
p2920
aVkids
p2921
aVcrack
p2922
aVme
p2923
aVup
p2924
aV!
asg12
g13
(S'\x07\xdf\x0c\t\x13\x11\x04\x00\x00\x00'
tRp2925
sg15
Nsg16
Vqabyy_
p2926
sa(dp2927
g3
(lp2928
Vsome
p2929
aVsaid
p2930
aVcoloring
p2931
aVothers
p2932
aVsaid
p2933
aVwriting
p2934
aVtheir
p2935
aVnames
p2936
aV,
aVbut
p2937
aVthe
p2938
aVbest
p2939
aVanswer
p2940
aVwas
p2941
aV,
aVhow
p2942
aVto
p2943
aVtake
p2944
aVvacation
p2945
aV\U0001f60e
asg12
g13
(S'\x07\xdf\x0c\t\x13\x106\x00\x00\x00'
tRp2946
sg15
Nsg16
Vqabyy_
p2947
sa(dp2948
g3
(lp2949
Vso
p2950
aVthey
p2951
aVasked
p2952
aVthe
p2953
aVkids
p2954
aVthat
p2955
aVare
p2956
aVgoing
p2957
aVto
p2958
aVkindergarten
p2959
aVwhat's
p2960
aVsomething
p2961
aVthey
p2962
aVneed
p2963
aVto
p2964
aVknow
p2965
aVbefore
p2966
aVthey
p2967
aVactually
p2968
aVstart
p2969
asg12
g13
(S'\x07\xdf\x0c\t\x13\x10\x14\x00\x00\x00'
tRp2970
sg15
Nsg16
Vqabyy_
p2971
sa(dp2972
g3
(lp2973
Van
p2974
aVthen
p2975
aVi
aVwake
p2976
aVup
p2977
aVat
p2978
aVthis
p2979
aVtime
p2980
aVafter
p2981
aVhaving
p2982
aVfallen
p2983
aVa
aVsleep
p2984
aVat
p2985
aValmost
p2986
aV7
asg12
g13
(S'\x07\xdf\x0c\t\x112\x16\x00\x00\x00'
tRp2987
sg15
Nsg16
Vqabyy_
p2988
sa(dp2989
g3
(lp2990
Vi
aVdon't
p2991
aVmind
p2992
aVbeing
p2993
aVawake
p2994
aVat
p2995
aVthis
p2996
aVtime
p2997
aV.
aVbut
p2998
aVi
aVdo
p2999
aVhate
p3000
aVthe
p3001
aVwhole
p3002
aVfalling
p3003
aVasleep
p3004
aVroutine
p3005
aV.
asg12
g13
(S'\x07\xdf\x0c\t\r\x0e\x13\x00\x00\x00'
tRp3006
sg15
Nsg16
Vqabyy_
p3007
sa(dp3008
g3
(lp3009
Vthis
p3010
aVbaby
p3011
aVhas
p3012
aVbeen
p3013
aVmoving
p3014
aVway
p3015
aVtoo
p3016
aVmuch
p3017
aVfor
p3018
aVone
p3019
aVday
p3020
aV.
asg12
g13
(S'\x07\xdf\x0c\t\x051\x10\x00\x00\x00'
tRp3021
sg15
Nsg16
Vqabyy_
p3022
sa(dp3023
g3
(lp3024
Vexcept
p3025
aVfor
p3026
aVright
p3027
aVnow
p3028
aV.
aV.
aVi
aVneed
p3029
aVto
p3030
aVlay
p3031
aVdown
p3032
aVevery
p3033
aVonce
p3034
aVin
p3035
aVa
aVwhile
p3036
asg12
g13
(S'\x07\xdf\x0c\t\x050%\x00\x00\x00'
tRp3037
sg15
Nsg16
Vqabyy_
p3038
sa(dp3039
g3
(lp3040
Vif
p3041
aVit
p3042
aVwas
p3043
aVup
p3044
aVto
p3045
aVme
p3046
aVi'd
p3047
aVnever
p3048
aVbe
p3049
aVhome
p3050
aV.
aV.
asg12
g13
(S'\x07\xdf\x0c\t\x050\r\x00\x00\x00'
tRp3051
sg15
Nsg16
Vqabyy_
p3052
sa(dp3053
g3
(lp3054
Vi
aVjust
p3055
aVhate
p3056
aVhow
p3057
aVi
aVget
p3058
aVcriticized
p3059
aVfor
p3060
aVbeing
p3061
aVin
p3062
aVmy
p3063
aVroom
p3064
aVall
p3065
aVthe
p3066
aVtime
p3067
aV,
aVlike
p3068
aVsorry
p3069
aVi
aVhave
p3070
aVhella
p3071
aVclasses
p3072
aVto
p3073
aVkeep
p3074
aVup
p3075
aVwith
p3076
aVthat
p3077
aVactually
p3078
aVtake
p3079
aVtime
p3080
asg12
g13
(S'\x07\xdf\x0c\t\x05/0\x00\x00\x00'
tRp3081
sg15
Nsg16
Vqabyy_
p3082
sa(dp3083
g3
(lp3084
Vtomorrow
p3085
aVi
aVplan
p3086
aVon
p3087
aVactually
p3088
aVdoing
p3089
aVwork
p3090
aV.
aVi
aVwanna
p3091
aVfinish
p3092
aVall
p3093
aVmy
p3094
aVfinals
p3095
aVthis
p3096
aVweek
p3097
aVbefore
p3098
aVthey're
p3099
aVactually
p3100
aVdue
p3101
aVnext
p3102
aVweek
p3103
aV.
asg12
g13
(S'\x07\xdf\x0c\t\x05.4\x00\x00\x00'
tRp3104
sg15
Nsg16
Vqabyy_
p3105
sa(dp3106
g3
(lp3107
Vrt
p3108
aV@worldstarfunny
p3109
aV:
aVhow
p3110
aVdid
p3111
aVhe
p3112
aVdo
p3113
aVthis
p3114
aV?
aV\U0001f602
aV\U0001f602
aV\U0001f602
aV\U0001f602
aVhttps://t.co/q2dkdtshi6
p3115
asg12
g13
(S'\x07\xdf\x0c\t\x05 /\x00\x00\x00'
tRp3116
sg15
Nsg16
Vqabyy_
p3117
sa(dp3118
g3
(lp3119
Vrt
p3120
aV@worldstarfunny
p3121
aV:
aVlol
p3122
aVbruh
p3123
aV\U0001f602
aV\U0001f602
aV\U0001f602
aVhttps://t.co/33fd5oxxwp
p3124
asg12
g13
(S'\x07\xdf\x0c\t\x05\x1c\x13\x00\x00\x00'
tRp3125
sg15
Nsg16
Vqabyy_
p3126
sa(dp3127
g3
(lp3128
Vso
p3129
aVtired
p3130
aVand
p3131
aVyet
p3132
aVi
aVfeel
p3133
aVi
aVhaven't
p3134
aVdone
p3135
aVshit
p3136
asg12
g13
(S'\x07\xdf\x0c\x08\x17/\x03\x00\x00\x00'
tRp3137
sg15
Nsg16
Vqabyy_
p3138
sa(dp3139
g3
(lp3140
Vi
aVswear
p3141
aVi
aVgot
p3142
aVscared
p3143
aVfor
p3144
aVa
aVsecond
p3145
aVthinking
p3146
aVi
aVwas
p3147
aVgonna
p3148
aVhave
p3149
aVto
p3150
aVgo
p3151
aVto
p3152
aVthe
p3153
aVhospital
p3154
asg12
g13
(S'\x07\xdf\x0c\x08\x15 \x01\x00\x00\x00'
tRp3155
sg15
Nsg16
Vqabyy_
p3156
sa(dp3157
g3
(lp3158
Vwhy
p3159
aVmust
p3160
aVabby
p3161
aVscare
p3162
aVme
p3163
aV?
asg12
g13
(S'\x07\xdf\x0c\x08\x15\x1f\x14\x00\x00\x00'
tRp3164
sg15
Nsg16
Vqabyy_
p3165
sa(dp3166
g3
(lp3167
Vrt
p3168
aV@nanseaperez
p3169
aV:
aVi'm
p3170
aVfrom
p3171
aVthe
p3172
aVbay
p3173
aVwhere
p3174
aVwe
p3175
aVhyphy
p3176
aVand
p3177
aVgo
p3178
aVdumb
p3179
aV.
aV.
aVfrom
p3180
aVthe
p3181
aVsoil
p3182
aVwhere
p3183
aVthem
p3184
aVrappers
p3185
aVbe
p3186
aVgetting
p3187
aVthey
p3188
aVlingo
p3189
aVfrom
p3190
asg12
g13
(S'\x07\xdf\x0c\x08\x15\x1d/\x00\x00\x00'
tRp3191
sg15
Nsg16
Vqabyy_
p3192
sa(dp3193
g3
(lp3194
Vi
aVreally
p3195
aVwish
p3196
aVi
aVhad
p3197
aVvideo
p3198
aVof
p3199
aVbaby
p3200
aVmoving
p3201
aV,
aVbut
p3202
aVhere's
p3203
aVthe
p3204
aVthing
p3205
aV,
aVit's
p3206
aVlike
p3207
aVshe
p3208
aVknows
p3209
aVwhen
p3210
aVi'm
p3211
aVrecording
p3212
aVand
p3213
aVdecides
p3214
aVto
p3215
aVgo
p3216
aVinto
p3217
aVhiding
p3218
aV\U0001f62b
asg12
g13
(S'\x07\xdf\x0c\x07\r )\x00\x00\x00'
tRp3219
sg15
Nsg16
Vqabyy_
p3220
sa(dp3221
g3
(lp3222
Vrt
p3223
aV@kardashianreact
p3224
aV:
aVmy
p3225
aVbest
p3226
aVtalent
p3227
aVis
p3228
aVwatching
p3229
aV5
aVyears
p3230
aVworth
p3231
aVof
p3232
aVa
aVtv
p3233
aVshow
p3234
aVon
p3235
aVnetflix
p3236
aVin
p3237
aVa
aVweek
p3238
asg12
g13
(S'\x07\xdf\x0c\x07\x07\x07\x01\x00\x00\x00'
tRp3239
sg15
Nsg16
Vqabyy_
p3240
sa(dp3241
g3
(lp3242
Vrt
p3243
aV@woridstarhiphop
p3244
aV:
aVthey
p3245
aVgave
p3246
aVthe
p3247
aVbirds
p3248
aVlaxatives
p3249
aVhttps://t.co/huzufpbkgm
p3250
asg12
g13
(S'\x07\xdf\x0c\x07\x06: \x00\x00\x00'
tRp3251
sg15
Nsg16
Vqabyy_
p3252
sa(dp3253
g3
(lp3254
Vi
aVbought
p3255
aVhim
p3256
aVa
aVgun
p3257
aVthat
p3258
aVshoots
p3259
aVmarshmallows
p3260
aV\u2601
aV\ufe0f
aV\U0001f52b
aV\U0001f62d
aV\U0001f62d
aV\U0001f62d
asg12
g13
(S'\x07\xdf\x0c\x06\x14\x03\x02\x00\x00\x00'
tRp3261
sg15
Nsg16
Vqabyy_
p3262
sa(dp3263
g3
(lp3264
Vi
aVshowed
p3265
aVmy
p3266
aVmom
p3267
aVwhat
p3268
aVi
aVbought
p3269
aVmy
p3270
aVbig
p3271
aVbrother
p3272
aVfor
p3273
aVchristmas
p3274
aVand
p3275
aVshe
p3276
aVstarted
p3277
aVlaughing
p3278
aV.
asg12
g13
(S'\x07\xdf\x0c\x06\x14\x01!\x00\x00\x00'
tRp3279
sg15
Nsg16
Vqabyy_
p3280
sa.