(lp1
(dp2
S'text'
p3
(lp4
V@gameovergreggy
p5
aV@prattprattpratt
p6
aVhe
p7
aVcould
p8
aVbe
p9
aV!
aVhttps://t.co/ulbt4mqfyj
p10
asS'created_at'
p11
cdatetime
datetime
p12
(S'\x07\xe0\x01\x18\x08\x07)\x00\x00\x00'
tRp13
sS'lat/long'
p14
NsS'name'
p15
VTimGettys
p16
sa(dp17
g3
(lp18
Vrt
p19
aV@nick_scarpino
p20
aV:
aVit
p21
aVhappened
p22
aVagain
p23
aV!
aV!
aV!
aVhttps://t.co/aupqlbhm3k
p24
asg11
g12
(S'\x07\xe0\x01\x18\x07-\x03\x00\x00\x00'
tRp25
sg14
Nsg15
VTimGettys
p26
sa(dp27
g3
(lp28
V"
aVyo
p29
aV,
aVis
p30
aVyour
p31
aVhair
p32
aVwarm
p33
aV?
aVoh
p34
aVshit
p35
aVit
p36
aVis
p37
aV!
aVmine
p38
aVis
p39
aVtoo
p40
aV!
aV"
aV-
aV@bmiggs
p41
asg11
g12
(S'\x07\xe0\x01\x18\x07$\x16\x00\x00\x00'
tRp42
sg14
Nsg15
VTimGettys
p43
sa(dp44
g3
(lp45
V"
aVhair
p46
aVis
p47
aVpower
p48
aV.
aVif
p49
aVit
p50
aVmoves
p51
aV,
aVit
p52
aVis
p53
aVa
aVsign
p54
aVof
p55
aVweakness
p56
aV.
aV"
aV-
aV@franmirabella
p57
asg11
g12
(S'\x07\xe0\x01\x18\x07\x06.\x00\x00\x00'
tRp58
sg14
Nsg15
VTimGettys
p59
sa(dp60
g3
(lp61
V@gundamman
p62
aV@nick_scarpino
p63
aV@itsashlyperez
p64
aVwe
p65
aVneed
p66
aVto
p67
aVdo
p68
aVa
aVtiny
p69
aVhands
p70
aVcollab
p71
aVwith
p72
aVashly
p73
aV.
aVshe
p74
aVis
p75
aVso
p76
aVtalented
p77
aV.
asg11
g12
(S'\x07\xe0\x01\x18\x07\x03\x14\x00\x00\x00'
tRp78
sg14
Nsg15
VTimGettys
p79
sa(dp80
g3
(lp81
Vso
p82
aVsome
p83
aVrandom
p84
aVgirl
p85
aVjust
p86
aVattacked
p87
aV@nick_scarpino
p88
aVwith
p89
aVtiny
p90
aVhands
p91
aVat
p92
aVthe
p93
aVbar
p94
aV.
aVhttps://t.co/xt8ywnjiw8
p95
asg11
g12
(S'\x07\xe0\x01\x18\x0655\x00\x00\x00'
tRp96
sg14
Nsg15
VTimGettys
p97
sa(dp98
g3
(lp99
V*
aVcough
p100
aV*
aV@roosterteeth
p101
aV*
aVcough
p102
aV*
aVhttps://t.co/eppatchrbf
p103
asg11
g12
(S'\x07\xe0\x01\x18\x05,+\x00\x00\x00'
tRp104
sg14
Nsg15
VTimGettys
p105
sa(dp106
g3
(lp107
V@joeynoelle
p108
aVforeals
p109
aVtho
p110
aV.
asg11
g12
(S'\x07\xe0\x01\x18\x05*\x1c\x00\x00\x00'
tRp111
sg14
Nsg15
VTimGettys
p112
sa(dp113
g3
(lp114
Vall
p115
aVi
aVcould
p116
aVthink
p117
aVabout
p118
aVwhile
p119
aVwatching
p120
aVthe
p121
aVrevenant
p122
aVwas
p123
aVhow
p124
aVmuch
p125
aVi
aVwished
p126
aVi
aVwas
p127
aVwatching
p128
aVhomeward
p129
aVbound
p130
aV.
asg11
g12
(S'\x07\xe0\x01\x18\x05",\x00\x00\x00'
tRp131
sg14
Nsg15
VTimGettys
p132
sa(dp133
g3
(lp134
V@scorp_wild
p135
aVlofl
p136
aV"
aVtim
p137
aVgettys
p138
aVstyle
p139
aVhipster
p140
aV"
aVis
p141
aVthe
p142
aVbest
p143
aV.
asg11
g12
(S'\x07\xe0\x01\x17\x168&\x00\x00\x00'
tRp144
sg14
Nsg15
VTimGettys
p145
sa(dp146
g3
(lp147
Voh
p148
aVmy
p149
aVgod
p150
aV,
aVlook
p151
aVat
p152
aVthat
p153
aVface
p154
aV.
aV@taylorswift13
p155
aVhttps://t.co/x6vdutvfav
p156
aVhttps://t.co/hvvje34vfj
p157
asg11
g12
(S'\x07\xe0\x01\x17\x16\x1e\x07\x00\x00\x00'
tRp158
sg14
Nsg15
VTimGettys
p159
sa(dp160
g3
(lp161
V@mikedrucker
p162
aVfuck
p163
aVit
p164
aV,
aVi'm
p165
aVgonna
p166
aVdig
p167
aVmine
p168
aVup
p169
aVand
p170
aVgive
p171
aVit
p172
aVa
aVplay
p173
aVthough
p174
aV.
aVit
p175
aVhas
p176
aVbeen
p177
aVtoo
p178
aVlong
p179
aV.
aVhaha
p180
aVthanks
p181
aV!
asg11
g12
(S'\x07\xe0\x01\x17\x14\x1d\x1d\x00\x00\x00'
tRp182
sg14
Nsg15
VTimGettys
p183
sa(dp184
g3
(lp185
V@mikedrucker
p186
aVseriously
p187
aV.
aVit
p188
aVwas
p189
aVso
p190
aVawesome
p191
aV.
aVhaters
p192
aVgonna
p193
aVhate
p194
aV.
asg11
g12
(S'\x07\xe0\x01\x17\x14\x1a:\x00\x00\x00'
tRp195
sg14
Nsg15
VTimGettys
p196
sa(dp197
g3
(lp198
V@marcuslance32
p199
aVgo
p200
aVto
p201
aVspace
p202
aVmountain
p203
aV!
asg11
g12
(S'\x07\xe0\x01\x17\x14\r\x02\x00\x00\x00'
tRp204
sg14
Nsg15
VTimGettys
p205
sa(dp206
g3
(lp207
V@neonoirhamlet
p208
aVanytime
p209
aVdude
p210
aV!
aVhere
p211
aVis
p212
aVto
p213
aVnext
p214
aVweek
p215
aV!
asg11
g12
(S'\x07\xe0\x01\x17\x13+\x0c\x00\x00\x00'
tRp216
sg14
Nsg15
VTimGettys
p217
sa(dp218
g3
(lp219
Vrt
p220
aV@gameovergreggy
p221
aV:
aVi'll
p222
aVnever
p223
aVbe
p224
aVable
p225
aVto
p226
aVtell
p227
aVyou
p228
aVhow
p229
aVmuch
p230
aVyour
p231
aVletters
p232
aVmean
p233
aVto
p234
aVus
p235
aVat
p236
aV@kindafunnyvids
p237
aV.
aV\u2764
aV\ufe0f
aV\u2764
aV\ufe0f
aV\u2764
aV\ufe0f
aVhttps://t.co/ahsn5mqaca
p238
asg11
g12
(S'\x07\xe0\x01\x17\x13)"\x00\x00\x00'
tRp239
sg14
Nsg15
VTimGettys
p240
sa(dp241
g3
(lp242
Vrt
p243
aV@gameovergreggy
p244
aV:
aVtim
p245
aVis
p246
aVgood
p247
aVat
p248
aV@periscopeco
p249
aV.
aVhttps://t.co/enz1d25zrg
p250
asg11
g12
(S'\x07\xe0\x01\x17\x120\n\x00\x00\x00'
tRp251
sg14
Nsg15
VTimGettys
p252
sa(dp253
g3
(lp254
Vlive
p255
aVon
p256
aV#periscope
p257
aV:
aVask
p258
aVme
p259
aVanything
p260
aV!
aVhttps://t.co/ztoubqu3qy
p261
asg11
g12
(S'\x07\xe0\x01\x17\x12\x1d\x10\x00\x00\x00'
tRp262
sg14
Nsg15
VTimGettys
p263
sa(dp264
g3
(lp265
V@presidentc4
p266
aVhere's
p267
aVto
p268
aVyou
p269
aV!
asg11
g12
(S'\x07\xe0\x01\x17\x12\x18\x0e\x00\x00\x00'
tRp270
sg14
Nsg15
VTimGettys
p271
sa(dp272
g3
(lp273
V@booze19
p274
aVthanks
p275
aVbrian
p276
aV!
asg11
g12
(S'\x07\xe0\x01\x17\x12\x164\x00\x00\x00'
tRp277
sg14
Nsg15
VTimGettys
p278
sa(dp279
g3
(lp280
V@abdine
p281
aV@bgibbles
p282
aV@joshtheflanagan
p283
aVwhen
p284
aVthe
p285
aVhell
p286
aVdid
p287
aVin-n-out
p288
aVcome
p289
aVto
p290
aVaustin
p291
aV?
aV!
aV?
aV!
aV?
aVnow
p292
aVwhat
p293
aVdo
p294
aVwe
p295
aVhave
p296
aVover
p297
aVyall
p298
aV!
aV?
aV!
aV?
aV!
aV?
aVnothing
p299
aV!
aV!
aV!
aV!
asg11
g12
(S'\x07\xe0\x01\x17\x06)\x00\x00\x00\x00'
tRp300
sg14
Nsg15
VTimGettys
p301
sa(dp302
g3
(lp303
V@darthpat
p304
aV@kindafunnyvids
p305
aVthank
p306
aVyou
p307
aV.
asg11
g12
(S'\x07\xe0\x01\x17\x03-6\x00\x00\x00'
tRp308
sg14
Nsg15
VTimGettys
p309
sa(dp310
g3
(lp311
Vtoday
p312
aVwas
p313
aVone
p314
aVof
p315
aVthose
p316
aVdays
p317
aVwhere
p318
aVi
aVactually
p319
aVthought
p320
aV,
aV"
aVholy
p321
aVshit
p322
aV,
aVthis
p323
aVis
p324
aVmy
p325
aVjob
p326
aV.
aV"
aVthank
p327
aVyou
p328
aVall
p329
aVfor
p330
aVmaking
p331
aVthis
p332
aVhappen
p333
aV.
asg11
g12
(S'\x07\xe0\x01\x17\x03 1\x00\x00\x00'
tRp334
sg14
Nsg15
VTimGettys
p335
sa(dp336
g3
(lp337
Vlook
p338
aVat
p339
aV@revaaronmarquis
p340
aVlooking
p341
aVall
p342
aVcute
p343
aVin
p344
aVthose
p345
aVshorts
p346
aV.
aVand
p347
aV@chrisdemarais
p348
aVis
p349
aVthere
p350
aVtoo
p351
aV.
aV(
aV&
aVlt
p352
aV;
aV3
aVya
p353
aVchris
p354
aV)
asg11
g12
(S'\x07\xe0\x01\x17\x03\x18\x06\x00\x00\x00'
tRp355
sg14
Nsg15
VTimGettys
p356
sa(dp357
g3
(lp358
V@kateburning
p359
aVyes
p360
aV.
asg11
g12
(S'\x07\xe0\x01\x17\x03\x06\x04\x00\x00\x00'
tRp361
sg14
Nsg15
VTimGettys
p362
sa(dp363
g3
(lp364
V@tweetypetey25
p365
aVi
aVwas
p366
aVsuper
p367
aVhyped
p368
aVfor
p369
aV1,
p370
aVbut
p371
aVthen
p372
aVi
aVdidn't
p373
aVlove
p374
aVit
p375
aV.
asg11
g12
(S'\x07\xe0\x01\x17\x02\x16$\x00\x00\x00'
tRp376
sg14
Nsg15
VTimGettys
p377
sa(dp378
g3
(lp379
V@blondenerd
p380
aVi
aVwouldn't
p381
aVhave
p382
aVwent
p383
aV.
aVi
aVwould
p384
aVjust
p385
aVuse
p386
aVrepel
p387
aV.
asg11
g12
(S'\x07\xe0\x01\x17\x01\x120\x00\x00\x00'
tRp388
sg14
Nsg15
VTimGettys
p389
sa(dp390
g3
(lp391
Vlove
p392
aV&
aVamp
p393
aV;
aVsex
p394
aVstuff
p395
aV:
aVhaving
p396
aVsex
p397
aVwith
p398
aVsomeone
p399
aVelse's
p400
aVgirlfriend
p401
aV.
aVhttps://t.co/w6onyqvwes
p402
aVhttps://t.co/rqkzbfskob
p403
asg11
g12
(S'\x07\xe0\x01\x17\x01\x01*\x00\x00\x00'
tRp404
sg14
Nsg15
VTimGettys
p405
sa(dp406
g3
(lp407
Vrt
p408
aV@gameovergreggy
p409
aV:
aVdo
p410
aVyou
p411
aVlike
p412
aVjames
p413
aVcameron's
p414
aVavatar
p415
aV?
asg11
g12
(S'\x07\xe0\x01\x16\x14"#\x00\x00\x00'
tRp416
sg14
Nsg15
VTimGettys
p417
sa(dp418
g3
(lp419
Vtime
p420
aVfor
p421
aVcolin
p422
aV&
aVamp
p423
aV;
aVgreg
p424
aVlive
p425
aV.
aV.
aV.
aVwith
p426
aVme
p427
aV.
aVhttps://t.co/e595xgptjy
p428
asg11
g12
(S'\x07\xe0\x01\x16\x13\x02\t\x00\x00\x00'
tRp429
sg14
Nsg15
VTimGettys
p430
sa(dp431
g3
(lp432
Vdid
p433
aVyou
p434
aVsee
p435
aVthings
p436
aVyou
p437
aVmissed
p438
aV:
aV#suicidesquad
p439
aVtrailer
p440
aV?
aVcould
p441
aValso
p442
aVbe
p443
aVcalled
p444
aV"
aVgreg
p445
aVis
p446
aVcrazy
p447
aV.
aV"
aVhttps://t.co/bqw4chclhm
p448
aVhttps://t.co/k0op3xctdt
p449
asg11
g12
(S'\x07\xe0\x01\x16\x12\x00"\x00\x00\x00'
tRp450
sg14
Nsg15
VTimGettys
p451
sa(dp452
g3
(lp453
V@twioch
p454
aVi
aVbelieve
p455
aVin
p456
aVyou
p457
aV!
asg11
g12
(S'\x07\xe0\x01\x16\x073*\x00\x00\x00'
tRp458
sg14
Nsg15
VTimGettys
p459
sa(dp460
g3
(lp461
Vwithout
p462
aVme
p463
aVwas
p464
aVstuck
p465
aVin
p466
aVmy
p467
aVhead
p468
aV.
aVso
p469
aVthis
p470
aVhappened
p471
aV.
aVi'm
p472
aVsorry
p473
aV.
aVhttps://t.co/jya4w7vrjh
p474
asg11
g12
(S'\x07\xe0\x01\x16\x072\x1b\x00\x00\x00'
tRp475
sg14
Nsg15
VTimGettys
p476
sa(dp477
g3
(lp478
Vrt
p479
aV@itsamichael
p480
aV:
aVif
p481
aVyou
p482
aVthink
p483
aVtwizzlers
p484
aVare
p485
aVbetter
p486
aVthan
p487
aVred
p488
aVvines
p489
aVthen
p490
aVyou
p491
aVwere
p492
aVprobably
p493
aVthe
p494
aVkid
p495
aVwho
p496
aVreminded
p497
aVthe
p498
aVteacher
p499
aVabout
p500
aVthe
p501
aVhomewor
p502
aV\u2026
asg11
g12
(S'\x07\xe0\x01\x16\x07\x15\x06\x00\x00\x00'
tRp503
sg14
Nsg15
VTimGettys
p504
sa(dp505
g3
(lp506
V@ashleyj
p507
aVholy
p508
aVshit
p509
aVyou
p510
aVlook
p511
aVso
p512
aVcool
p513
aV!
asg11
g12
(S'\x07\xe0\x01\x16\x07\x148\x00\x00\x00'
tRp514
sg14
Nsg15
VTimGettys
p515
sa(dp516
g3
(lp517
V@maximumcortez
p518
aV@seantwisters
p519
aV@snarkystarkey
p520
aV@xyger1337
p521
aV@theconductor23
p522
aVwhat
p523
aV?
aVwhats
p524
aVyalldoin
p525
aV!
aV?
aV!
aV?
asg11
g12
(S'\x07\xe0\x01\x16\x06!\x10\x00\x00\x00'
tRp526
sg14
Nsg15
VTimGettys
p527
sa(dp528
g3
(lp529
Vrt
p530
aV@pwamcider
p531
aV:
aVpsa
p532
aV:
aVbang
p533
aVbang
p534
aVis
p535
aVstill
p536
aVa
aVtotally
p537
aVepic
p538
aVpop
p539
aVtune
p540
aV:
aVhttps://t.co/zu5arnkxob
p541
asg11
g12
(S'\x07\xe0\x01\x16\x06\x01\x18\x00\x00\x00'
tRp542
sg14
Nsg15
VTimGettys
p543
sa(dp544
g3
(lp545
V@vampybitme
p546
aVmy
p547
aVfavorite
p548
aVkinda
p549
aVnight
p550
aV.
asg11
g12
(S'\x07\xe0\x01\x16\x055\x00\x00\x00\x00'
tRp551
sg14
Nsg15
VTimGettys
p552
sa(dp553
g3
(lp554
V@timgettys
p555
aV&
aVlt
p556
aV;
aV3
aV@kindafunnyvids
p557
aV@notaxation
p558
aV@nick_scarpino
p559
aV@gameovergreggy
p560
aV@kindafunnykevin
p561
aVhttps://t.co/qpgx7odldm
p562
asg11
g12
(S'\x07\xe0\x01\x16\x04/6\x00\x00\x00'
tRp563
sg14
Nsg15
VTimGettys
p564
sa(dp565
g3
(lp566
Vkinda
p567
aVfunny's
p568
aVfirst
p569
aVmillion
p570
aVview
p571
aVvideo
p572
aV!
aVhttps://t.co/4wvjyrjz5s
p573
asg11
g12
(S'\x07\xe0\x01\x16\x04.\x1f\x00\x00\x00'
tRp574
sg14
Nsg15
VTimGettys
p575
sa(dp576
g3
(lp577
Vwhat
p578
aVgames
p579
aVhave
p580
aVwe
p581
aVbeen
p582
aVplaying
p583
aV?
aVhttps://t.co/umcx5htlcm
p584
aVhttps://t.co/du91prtxyz
p585
asg11
g12
(S'\x07\xe0\x01\x16\x01\x01,\x00\x00\x00'
tRp586
sg14
Nsg15
VTimGettys
p587
sa(dp588
g3
(lp589
Vrt
p590
aV@skydart
p591
aV:
aVwe're
p592
aVgonna
p593
aVtry
p594
aVto
p595
aVmake
p596
aVthe
p597
aVmovie
p598
aVjem
p599
aVwould
p600
aVhave
p601
aVwanted
p602
aV!
aVwe
p603
aVneed
p604
aVyour
p605
aVhelp
p606
aV!
aV#jemstarter
p607
aVhttps://t.co/gaahibz0cf
p608
aVhttps://t.co/t
p609
aV\u2026
asg11
g12
(S'\x07\xe0\x01\x15\x17&4\x00\x00\x00'
tRp610
sg14
Nsg15
VTimGettys
p611
sa(dp612
g3
(lp613
V@skydart
p614
aVholy
p615
aVshit
p616
aVyes
p617
asg11
g12
(S'\x07\xe0\x01\x15\x17&-\x00\x00\x00'
tRp618
sg14
Nsg15
VTimGettys
p619
sa(dp620
g3
(lp621
V@jessmcdonell
p622
aVsingle
p623
aVpeople
p624
aVparties
p625
aVare
p626
aVwayyyy
p627
aVmore
p628
aVfun
p629
aV.
asg11
g12
(S'\x07\xe0\x01\x15\x17\x15\x14\x00\x00\x00'
tRp630
sg14
Nsg15
VTimGettys
p631
sa(dp632
g3
(lp633
Vthis
p634
aVis
p635
aVso
p636
aVunnecessary
p637
aV.
aVhttps://t.co/hctr3gcpj9
p638
asg11
g12
(S'\x07\xe0\x01\x15\x15&\x00\x00\x00\x00'
tRp639
sg14
Nsg15
VTimGettys
p640
sa(dp641
g3
(lp642
V@notaxation
p643
aV@tomhawkin5
p644
aVhey
p645
aV!
aVi
aVpride
p646
aVmyself
p647
aVon
p648
aVnot
p649
aVinterrupting
p650
aV!
asg11
g12
(S'\x07\xe0\x01\x15\x147\x1e\x00\x00\x00'
tRp651
sg14
Nsg15
VTimGettys
p652
sa(dp653
g3
(lp654
Vchain
p655
aVrestaurants
p656
aV.
aVhttps://t.co/ybawyhrghm
p657
aVhttps://t.co/hsweunsdfg
p658
asg11
g12
(S'\x07\xe0\x01\x15\x14\x02\x0c\x00\x00\x00'
tRp659
sg14
Nsg15
VTimGettys
p660
sa(dp661
g3
(lp662
V@supermarioley
p663
aV@gameovergreggy
p664
aV@notaxation
p665
aV@nick_scarpino
p666
aVwill
p667
aVbe
p668
aVannounced
p669
aVtoday
p670
aVon
p671
aVcolin
p672
aVand
p673
aVgreg
p674
aVlive
p675
asg11
g12
(S'\x07\xe0\x01\x15\x12+\x0e\x00\x00\x00'
tRp676
sg14
Nsg15
VTimGettys
p677
sa(dp678
g3
(lp679
V@kylegaddo
p680
aV@ahogseth
p681
aVlofl
p682
aVdamn
p683
aVgood
p684
aVpoint
p685
aV.
asg11
g12
(S'\x07\xe0\x01\x15\x12&\x06\x00\x00\x00'
tRp686
sg14
Nsg15
VTimGettys
p687
sa(dp688
g3
(lp689
Vhey
p690
aV,
aVshout-out
p691
aVto
p692
aVgirlfriends
p693
aV.
aVthey
p694
aVare
p695
aVpretty
p696
aVcool
p697
aV.
asg11
g12
(S'\x07\xe0\x01\x15\x11;-\x00\x00\x00'
tRp698
sg14
Nsg15
VTimGettys
p699
sa(dp700
g3
(lp701
Vgames
p702
aVthat
p703
aVaren't
p704
aVgames
p705
aV.
aVhttps://t.co/pl8ehjg7pp
p706
aVhttps://t.co/9ijnapdxwx
p707
asg11
g12
(S"\x07\xe0\x01\x15\x10\x01'\x00\x00\x00"
tRp708
sg14
Nsg15
VTimGettys
p709
sa(dp710
g3
(lp711
V@jack_p
p712
aV@caitiward_
p713
aVgreat
p714
aVrunning
p715
aVinto
p716
aVyou
p717
aV,
aVhope
p718
aVto
p719
aVsee
p720
aVyou
p721
aVagain
p722
aVsoon
p723
aV&
aVlt
p724
aV;
aV3
asg11
g12
(S'\x07\xe0\x01\x15\x08\t\x00\x00\x00\x00'
tRp725
sg14
Nsg15
VTimGettys
p726
sa(dp727
g3
(lp728
Vrt
p729
aV@z3r0_k0ol
p730
aV:
aV125
p731
aV$
aVaway
p732
aVfrom
p733
aVgetting
p734
aV9
aVepisodes
p735
aVof
p736
aVthe
p737
aV@kindafunnyvids
p738
aVanimated
p739
aVseries
p740
aV!
aVlet
p741
aV\u2019
aVs
aVget
p742
aVthis
p743
aVgoal
p744
aV!
aVhttps://t.co/1p5mlzwekf
p745
aV@game
p746
aV\u2026
asg11
g12
(S'\x07\xe0\x01\x15\x071\x1a\x00\x00\x00'
tRp747
sg14
Nsg15
VTimGettys
p748
sa(dp749
g3
(lp750
V@maximumcortez
p751
aV@gameovergreggy
p752
aVdude
p753
aVyou
p754
aVhave
p755
aVno
p756
aVidea
p757
aVhow
p758
aVmuch
p759
aVi
aVwanted
p760
aVto
p761
aVbring
p762
aVthat
p763
aVup
p764
aV,
aVbut
p765
aVi
aVdidn't
p766
aVwanna
p767
aVbreak
p768
aVgreg's
p769
aVflow
p770
asg11
g12
(S'\x07\xe0\x01\x15\x07%\x04\x00\x00\x00'
tRp771
sg14
Nsg15
VTimGettys
p772
sa(dp773
g3
(lp774
V"
aViced
p775
aVdown
p776
aVwine
p777
aVis
p778
aVa
aVpro
p779
aVmove
p780
aV.
aV"
aV-
aV@gameovergreggy
p781
asg11
g12
(S'\x07\xe0\x01\x15\x04\x1b1\x00\x00\x00'
tRp782
sg14
Nsg15
VTimGettys
p783
sa(dp784
g3
(lp785
Vrt
p786
aV@cmoorin
p787
aV:
aV@timgettys
p788
aVcouldn't
p789
aVresist
p790
aV.
aV.
aV.
aVhttps://t.co/qppgtulorx
p791
asg11
g12
(S'\x07\xe0\x01\x15\x026\x15\x00\x00\x00'
tRp792
sg14
Nsg15
VTimGettys
p793
sa(dp794
g3
(lp795
V@momotastic88
p796
aVthanks
p797
aVman
p798
aVi
aVreally
p799
aVappreciate
p800
aVthat
p801
aV.
aV&
aVlt
p802
aV;
aV3
asg11
g12
(S'\x07\xe0\x01\x15\x02!\x00\x00\x00\x00'
tRp803
sg14
Nsg15
VTimGettys
p804
sa(dp805
g3
(lp806
Vrt
p807
aV@nukemdukemz
p808
aV:
aVfinally
p809
aVgot
p810
aVto
p811
aVmeet
p812
aV@kindafunnyvids
p813
aV@kindafunnykevin
p814
aV@timgettys
p815
aV@gameovergreggy
p816
aVhttps://t.co/r6rgbn35uv
p817
asg11
g12
(S'\x07\xe0\x01\x15\x02 \r\x00\x00\x00'
tRp818
sg14
Nsg15
VTimGettys
p819
sa(dp820
g3
(lp821
Vrt
p822
aV@beatnikslacker
p823
aV:
aV@timgettys
p824
aVhttps://t.co/rvdxyt8g3k
p825
asg11
g12
(S"\x07\xe0\x01\x15\x02\x1f'\x00\x00\x00"
tRp826
sg14
Nsg15
VTimGettys
p827
sa(dp828
g3
(lp829
Vthe
p830
aVprice
p831
aVof
p832
aVvr
p833
aV.
aVhttps://t.co/rubwiizayx
p834
aVhttps://t.co/bwamegh5xh
p835
asg11
g12
(S'\x07\xe0\x01\x15\x01\x01\x1b\x00\x00\x00'
tRp836
sg14
Nsg15
VTimGettys
p837
sa(dp838
g3
(lp839
Vme
p840
aVand
p841
aV@gameovergreggy
p842
aVbout
p843
aVto
p844
aVget
p845
aVprimal
p846
aV.
aVhttps://t.co/owbavfdkk7
p847
aV(
aV@ubisoft
p848
aV)
aVhttps://t.co/jqojakiobe
p849
asg11
g12
(S'\x07\xe0\x01\x15\x005-\x00\x00\x00'
tRp850
sg14
Nsg15
VTimGettys
p851
sa(dp852
g3
(lp853
Vrt
p854
aV@vernonshaw
p855
aV:
aVyooooo
p856
aVguess
p857
aVwhere
p858
aVi
aVgot
p859
aVto
p860
aVbe
p861
aVtoday
p862
aVhttps://t.co/9dwlsqwpdf
p863
asg11
g12
(S'\x07\xe0\x01\x15\x00\x028\x00\x00\x00'
tRp864
sg14
Nsg15
VTimGettys
p865
sa(dp866
g3
(lp867
V@carbov
p868
aVhahhahahahhahahahahhahahaha
p869
asg11
g12
(S'\x07\xe0\x01\x14\x17.\x10\x00\x00\x00'
tRp870
sg14
Nsg15
VTimGettys
p871
sa(dp872
g3
(lp873
Vrt
p874
aV@gameovergreggy
p875
aV:
aVcontinuing
p876
aVmy
p877
aVargument
p878
aVwith
p879
aV@timgettys
p880
aVfrom
p881
aVcolin
p882
aV&
aVamp
p883
aV;
aVgreg
p884
aVlive
p885
aV.
aVwhat
p886
aVwas
p887
aVthe
p888
aVbetter
p889
aVmovie
p890
aV.
aV.
aV.
asg11
g12
(S'\x07\xe0\x01\x14\x15\x0c\x0e\x00\x00\x00'
tRp891
sg14
Nsg15
VTimGettys
p892
sa(dp893
g3
(lp894
Vburitto
p895
aVbox
p896
aV.
aVhttps://t.co/nnctur2brj
p897
aVhttps://t.co/jodhiiibwi
p898
asg11
g12
(S'\x07\xe0\x01\x14\x147"\x00\x00\x00'
tRp899
sg14
Nsg15
VTimGettys
p900
sa(dp901
g3
(lp902
Vcome
p903
aVwatch
p904
aVmy
p905
aVnew
p906
aVface
p907
aVin
p908
aVmotion
p909
aVat
p910
aVhttps://t.co/mg5un66vxn
p911
asg11
g12
(S'\x07\xe0\x01\x14\x13\x053\x00\x00\x00'
tRp912
sg14
Nsg15
VTimGettys
p913
sa(dp914
g3
(lp915
Vwhy
p916
aVis
p917
aVtacoma
p918
aVgoing
p919
aVto
p920
aVbe
p921
aVawesome
p922
aV?
aVhttps://t.co/yynozo76es
p923
aVhttps://t.co/t4f2ynyzlm
p924
asg11
g12
(S'\x07\xe0\x01\x14\x13\x012\x00\x00\x00'
tRp925
sg14
Nsg15
VTimGettys
p926
sa(dp927
g3
(lp928
Vnew
p929
aVyear
p930
aV,
aVnewhat
p931
aVthe
p932
aVfuck
p933
aVhappened
p934
aVto
p935
aVmy
p936
aVface
p937
aV?
aV!
aV?
aV!
aV?
aV!
aV?
aVhttps://t.co/aslxbizzrq
p938
aVhttps://t.co/ip5dnka3ir
p939
asg11
g12
(S'\x07\xe0\x01\x14\x114\x1d\x00\x00\x00'
tRp940
sg14
Nsg15
VTimGettys
p941
sa(dp942
g3
(lp943
Vfirst
p944
aVkiss
p945
aVstories
p946
aV.
aVhttps://t.co/3pa11hcbru
p947
aVhttps://t.co/zzrotsl3ce
p948
asg11
g12
(S'\x07\xe0\x01\x14\x0e\x01\x15\x00\x00\x00'
tRp949
sg14
Nsg15
VTimGettys
p950
sa(dp951
g3
(lp952
Vrt
p953
aV@quinticsound
p954
aV:
aVquintic
p955
aV\u005c
aV\u005c
aV2016
p956
aVhttps://t.co/phlhfmc8bz
p957
asg11
g12
(S'\x07\xe0\x01\x14\x07\x1c\x1b\x00\x00\x00'
tRp958
sg14
Nsg15
VTimGettys
p959
sa(dp960
g3
(lp961
V@leahbjackson
p962
aVyour
p963
aVhair
p964
aV&
aVlt
p965
aV;
aV3
asg11
g12
(S'\x07\xe0\x01\x14\x0489\x00\x00\x00'
tRp966
sg14
Nsg15
VTimGettys
p967
sa(dp968
g3
(lp969
V@sydsogood
p970
aVholy
p971
aVshit
p972
aV.
asg11
g12
(S'\x07\xe0\x01\x14\x045\x14\x00\x00\x00'
tRp973
sg14
Nsg15
VTimGettys
p974
sa(dp975
g3
(lp976
V@officialsisqo
p977
aVthanks
p978
aVman
p979
aV.
aVyou
p980
aVknow
p981
aVhow
p982
aVmuch
p983
aVi
aVappreciate
p984
aVthat
p985
aV.
aV#letsisqohost
p986
asg11
g12
(S'\x07\xe0\x01\x14\x044\x07\x00\x00\x00'
tRp987
sg14
Nsg15
VTimGettys
p988
sa(dp989
g3
(lp990
V@themac
p991
aVthis
p992
aVis
p993
aVhilarious
p994
asg11
g12
(S'\x07\xe0\x01\x14\x04\x00\x10\x00\x00\x00'
tRp995
sg14
Nsg15
VTimGettys
p996
sa(dp997
g3
(lp998
Vrt
p999
aV@somechristweets
p1000
aV:
aVadam
p1001
aVdriver
p1002
aV,
aVplease
p1003
aVbe
p1004
aVin
p1005
aVmy
p1006
aVfranchise
p1007
aVreboot
p1008
aV,
aVtoo
p1009
aV.
aVhttps://t.co/9gdorjtnzz
p1010
asg11
g12
(S'\x07\xe0\x01\x14\x01\x18\x03\x00\x00\x00'
tRp1011
sg14
Nsg15
VTimGettys
p1012
sa(dp1013
g3
(lp1014
Vsometimes
p1015
aVi
aVopen
p1016
aVa
aVbuncha
p1017
aVapps
p1018
aVon
p1019
aVmy
p1020
aVphone
p1021
aVjust
p1022
aVso
p1023
aVi
aVcan
p1024
aVflick
p1025
aVthem
p1026
aVall
p1027
aVclosed
p1028
aVand
p1029
aVfeel
p1030
aVlike
p1031
aVgambit
p1032
aV.
asg11
g12
(S'\x07\xe0\x01\x14\x01\x145\x00\x00\x00'
tRp1033
sg14
Nsg15
VTimGettys
p1034
sa(dp1035
g3
(lp1036
V@beardedmetsbro
p1037
aVholy
p1038
aVshit
p1039
aVyes
p1040
asg11
g12
(S'\x07\xe0\x01\x14\x01\x04\n\x00\x00\x00'
tRp1041
sg14
Nsg15
VTimGettys
p1042
sa(dp1043
g3
(lp1044
V@kaunkieran
p1045
aV@nick_scarpino
p1046
aV&
aVlt
p1047
aV;
aV3
asg11
g12
(S'\x07\xe0\x01\x14\x01\x015\x00\x00\x00'
tRp1048
sg14
Nsg15
VTimGettys
p1049
sa(dp1050
g3
(lp1051
V@kinowolf
p1052
aVsf
p1053
aVamc
p1054
aVvan
p1055
aVness
p1056
aVat
p1057
aV7
aVpm
p1058
aVon
p1059
aVwednesday
p1060
aVthe
p1061
aV27
p1062
aVth
p1063
asg11
g12
(S'\x07\xe0\x01\x14\x00\r%\x00\x00\x00'
tRp1064
sg14
Nsg15
VTimGettys
p1065
sa(dp1066
g3
(lp1067
Vjust
p1068
aVbought
p1069
aVtickets
p1070
aVfor
p1071
aV@kindafunnyvids
p1072
aVto
p1073
aVsee
p1074
aV@roosterteeth
p1075
aV'
aVs
aVlazer
p1076
aVteam
p1077
aVin
p1078
aVtheaters
p1079
aV.
aVso
p1080
aVexcited
p1081
aVfor
p1082
aV@burnie
p1083
aV,
aV@matthullum
p1084
aV.
aVbuy
p1085
aVyours
p1086
aVnow
p1087
aV!
asg11
g12
(S'\x07\xe0\x01\x13\x17+2\x00\x00\x00'
tRp1088
sg14
Nsg15
VTimGettys
p1089
sa(dp1090
g3
(lp1091
Vrt
p1092
aV@thatgrltrish
p1093
aV:
aVhow
p1094
aVoften
p1095
aVshould
p1096
aVyou
p1097
aVhave
p1098
aVsex
p1099
aV?
aV@timgettys
p1100
aV@nick_scarpino
p1101
aV&
aVamp
p1102
aV;
aVi
aVtry
p1103
aVto
p1104
aVfigure
p1105
aVit
p1106
aVout
p1107
aV!
aV#notaskinkyasitsounds
p1108
aVhttps://t.co/qs
p1109
aV\u2026
asg11
g12
(S'\x07\xe0\x01\x13\x16\x1e\x15\x00\x00\x00'
tRp1110
sg14
Nsg15
VTimGettys
p1111
sa(dp1112
g3
(lp1113
V@tyrelltomlinson
p1114
aV@gameovergreggy
p1115
aVyes
p1116
aV.
asg11
g12
(S'\x07\xe0\x01\x13\x14\n\x0f\x00\x00\x00'
tRp1117
sg14
Nsg15
VTimGettys
p1118
sa(dp1119
g3
(lp1120
Vmy
p1121
aVfavorite
p1122
aVpart
p1123
aVof
p1124
aVthis
p1125
aVis
p1126
aVthat
p1127
aVkevin
p1128
aVis
p1129
aVon
p1130
aVit
p1131
aVat
p1132
aVall
p1133
aV.
aVhttps://t.co/8suiebe7jn
p1134
aVhttps://t.co/v1btb3ogbb
p1135
asg11
g12
(S'\x07\xe0\x01\x13\x14\x08\x01\x00\x00\x00'
tRp1136
sg14
Nsg15
VTimGettys
p1137
sa(dp1138
g3
(lp1139
Vrt
p1140
aV@gabydunn
p1141
aV:
aVfuck
p1142
aVyeah
p1143
aV@jbushow
p1144
aVnominated
p1145
aVfor
p1146
aV@shortyawards
p1147
aVfor
p1148
aVbest
p1149
aVweb
p1150
aVseries
p1151
aV!
aV!
aV!
aVcool
p1152
aVsurprise
p1153
aVhttps://t.co/lj0dsksnxw
p1154
asg11
g12
(S'\x07\xe0\x01\x13\x13\x1c\x1a\x00\x00\x00'
tRp1155
sg14
Nsg15
VTimGettys
p1156
sa(dp1157
g3
(lp1158
Vjust
p1159
aVsayin
p1160
aV"
aVguys
p1161
aV"
aVwoulda
p1162
aVmade
p1163
aVsense
p1164
aVtoo
p1165
aV.
aVimagine
p1166
aVall
p1167
aVthe
p1168
aV"
aVguys
p1169
aV"
aVseeing
p1170
aVthe
p1171
aVwoman's
p1172
aV"
aVdumps
p1173
aV"
aVand
p1174
aVbeing
p1175
aVlike
p1176
aV"
aVwhat
p1177
aV!
aV?
aV!
aV?
aV"
aVhttps://t.co/manm1ha4v9
p1178
asg11
g12
(S'\x07\xe0\x01\x13\x12-2\x00\x00\x00'
tRp1179
sg14
Nsg15
VTimGettys
p1180
sa(dp1181
g3
(lp1182
V@kyletaylor416
p1183
aVyou
p1184
aVa
aVplaying
p1185
aVa
aVlosing
p1186
aVgame
p1187
aV.
aVthey
p1188
aVwill
p1189
aVall
p1190
aVbe
p1191
aVin
p1192
aVyour
p1193
aVhouse
p1194
aVeventually
p1195
aVand
p1196
aVyou
p1197
aVknow
p1198
aVit
p1199
aV.
aVhahaha
p1200
asg11
g12
(S'\x07\xe0\x01\x13\x12\r8\x00\x00\x00'
tRp1201
sg14
Nsg15
VTimGettys
p1202
sa(dp1203
g3
(lp1204
V@jackwalkley
p1205
aV@youtube
p1206
aV@itunes
p1207
aVwhichever
p1208
aVyou
p1209
aVprefer
p1210
aV.
aVthank
p1211
aVyou
p1212
aVsooo
p1213
aVmuch
p1214
aVfor
p1215
aVthe
p1216
aVsupport
p1217
aV&
aVlt
p1218
aV;
aV3
asg11
g12
(S'\x07\xe0\x01\x13\x12\x0b1\x00\x00\x00'
tRp1219
sg14
Nsg15
VTimGettys
p1220
sa(dp1221
g3
(lp1222
V@joelg23114941
p1223
aVyou
p1224
aVda
p1225
aVman
p1226
aVjoel
p1227
aV!
asg11
g12
(S'\x07\xe0\x01\x13\x03;3\x00\x00\x00'
tRp1228
sg14
Nsg15
VTimGettys
p1229
sa(dp1230
g3
(lp1231
V@greenhellkite
p1232
aVit
p1233
aVreally
p1234
aVis
p1235
aVthe
p1236
aVbest
p1237
aV.
asg11
g12
(S"\x07\xe0\x01\x13\x01'\r\x00\x00\x00"
tRp1238
sg14
Nsg15
VTimGettys
p1239
sa(dp1240
g3
(lp1241
Vrt
p1242
aV@biggcman
p1243
aV:
aVaha
p1244
aV!
aVnew
p1245
aVpromotional
p1246
aVpicture
p1247
aVfor
p1248
aV@kindafunnyvids
p1249
aV!
aV!
aV@gameovergreggy
p1250
aVhttps://t.co/lyfd4cqimg
p1251
asg11
g12
(S'\x07\xe0\x01\x13\x01\x1a(\x00\x00\x00'
tRp1252
sg14
Nsg15
VTimGettys
p1253
sa(dp1254
g3
(lp1255
Vthis
p1256
aVis
p1257
aVso
p1258
aVdamn
p1259
aVawesome
p1260
aV.
aV#starfox
p1261
aVhttps://t.co/6zf1s8mfrp
p1262
asg11
g12
(S'\x07\xe0\x01\x13\x00\t\x17\x00\x00\x00'
tRp1263
sg14
Nsg15
VTimGettys
p1264
sa(dp1265
g3
(lp1266
V@kingfranchize88
p1267
aV@thealfredoplays
p1268
aVof
p1269
aVcourse
p1270
aVit
p1271
aVwas
p1272
aV@nick_scarpino
p1273
asg11
g12
(S'\x07\xe0\x01\x12\x15\x1d\x1e\x00\x00\x00'
tRp1274
sg14
Nsg15
VTimGettys
p1275
sa(dp1276
g3
(lp1277
Vrt
p1278
aV@metaphorihr
p1279
aV:
aVfinish
p1280
aVthis
p1281
aVblunt
p1282
aV.
aVheat
p1283
aVup
p1284
aVthis
p1285
aVfood
p1286
aV.
aVgo
p1287
aVwatch
p1288
aV@nick_scarpino
p1289
aV,
aV@timgettys
p1290
aV,
aV@notaxation
p1291
aV,
aVand
p1292
aV@gameovergreggy
p1293
aVtalk
p1294
aVabout
p1295
aVshit
p1296
asg11
g12
(S'\x07\xe0\x01\x12\x13(\n\x00\x00\x00'
tRp1297
sg14
Nsg15
VTimGettys
p1298
sa(dp1299
g3
(lp1300
Vrt
p1301
aV@acarboni
p1302
aV:
aVhere's
p1303
aVthe
p1304
aVadvice
p1305
aV@nick_scarpino
p1306
aV@timgettys
p1307
aVand
p1308
aVi
aVhave
p1309
aVfor
p1310
aVsomeone
p1311
aVwho's
p1312
aVhaving
p1313
aVsex
p1314
aVwith
p1315
aVsomeone
p1316
aVelse's
p1317
aVgirlfriend
p1318
aVhttps://t.
p1319
aV\u2026
asg11
g12
(S'\x07\xe0\x01\x12\x13\x07+\x00\x00\x00'
tRp1320
sg14
Nsg15
VTimGettys
p1321
sa(dp1322
g3
(lp1323
V3
aVyears
p1324
aVago
p1325
aVtoday
p1326
aV@thealfredoplays
p1327
aVand
p1328
aVi
aVput
p1329
aVthis
p1330
aVout
p1331
aVinto
p1332
aVthe
p1333
aVworld
p1334
aV.
aVtime
p1335
aVflies
p1336
aV.
aVhttps://t.co/4roddppfrr
p1337
asg11
g12
(S'\x07\xe0\x01\x12\x12\x06\x13\x00\x00\x00'
tRp1338
sg14
Nsg15
VTimGettys
p1339
sa(dp1340
g3
(lp1341
V@milk_the_leche
p1342
aVthanks
p1343
aVman
p1344
aV!
asg11
g12
(S'\x07\xe0\x01\x12\x12\x04+\x00\x00\x00'
tRp1345
sg14
Nsg15
VTimGettys
p1346
sa(dp1347
g3
(lp1348
V@baytuh
p1349
aV@gameovergreggy
p1350
aV@kindafunnyvids
p1351
aV@kindafunnykevin
p1352
aV@nick_scarpino
p1353
aV@notaxation
p1354
aVwe
p1355
aVare
p1356
aVreexporting
p1357
aVa
aVnew
p1358
aVversion
p1359
aVnow
p1360
aV.
aVsorry
p1361
aV!
asg11
g12
(S'\x07\xe0\x01\x12\x08)9\x00\x00\x00'
tRp1362
sg14
Nsg15
VTimGettys
p1363
sa(dp1364
g3
(lp1365
V@leroyverschoor
p1366
aV@kindafunnykevin
p1367
aV@gameovergreggy
p1368
aV@nick_scarpino
p1369
aVwe
p1370
aVare
p1371
aVreexporting
p1372
aVa
aVnew
p1373
aVversion
p1374
aVnow
p1375
aV.
aVsorry
p1376
aV!
asg11
g12
(S'\x07\xe0\x01\x12\x08)3\x00\x00\x00'
tRp1377
sg14
Nsg15
VTimGettys
p1378
sa(dp1379
g3
(lp1380
V@shakepreman
p1381
aV@kindafunnyvids
p1382
aV@kindafunnykevin
p1383
aVwe
p1384
aVare
p1385
aVreexporting
p1386
aVa
aVnew
p1387
aVversion
p1388
aVnow
p1389
aV.
aVsorry
p1390
aV!
asg11
g12
(S'\x07\xe0\x01\x12\x08)-\x00\x00\x00'
tRp1391
sg14
Nsg15
VTimGettys
p1392
sa(dp1393
g3
(lp1394
V@jameschapman88
p1395
aV@gameovergreggy
p1396
aV@notaxation
p1397
aV@nick_scarpino
p1398
aV@kindafunnykevin
p1399
aVwe
p1400
aVare
p1401
aVreexporting
p1402
aVa
aVnew
p1403
aVversion
p1404
aVnow
p1405
aV.
aVsorry
p1406
aV!
asg11
g12
(S'\x07\xe0\x01\x12\x08)(\x00\x00\x00'
tRp1407
sg14
Nsg15
VTimGettys
p1408
sa(dp1409
g3
(lp1410
Vt-shirt
p1411
aVtuesday
p1412
aVis
p1413
aVcoming
p1414
aV.
aVhttps://t.co/znmuj2kxrl
p1415
asg11
g12
(S'\x07\xe0\x01\x11\x16\x01\x19\x00\x00\x00'
tRp1416
sg14
Nsg15
VTimGettys
p1417
sa(dp1418
g3
(lp1419
V@gameovergreggy
p1420
aV@rachaelraymag
p1421
aVthat
p1422
aVface
p1423
aV!
asg11
g12
(S'\x07\xe0\x01\x11\x139-\x00\x00\x00'
tRp1424
sg14
Nsg15
VTimGettys
p1425
sa(dp1426
g3
(lp1427
V@johnhorigan
p1428
aV@kindafunnyvids
p1429
aV@kindafunnykevin
p1430
aV&
aVlt
p1431
aV;
aV3
asg11
g12
(S'\x07\xe0\x01\x11\x137/\x00\x00\x00'
tRp1432
sg14
Nsg15
VTimGettys
p1433
sa(dp1434
g3
(lp1435
V@tohkann
p1436
aVdude
p1437
aVthis
p1438
aVis
p1439
aVincredible
p1440
aV.
asg11
g12
(S'\x07\xe0\x01\x11\x136\x01\x00\x00\x00'
tRp1441
sg14
Nsg15
VTimGettys
p1442
sa(dp1443
g3
(lp1444
Vwhat
p1445
aV!
aV?
aV!
aV?
aVhow
p1446
aVis
p1447
aVthis
p1448
aVso
p1449
aVgood
p1450
aV!
aV?
aV!
aV?
aV!
aV?
aV?
aV?
aVhttps://t.co/mlyoescgpf
p1451
asg11
g12
(S'\x07\xe0\x01\x11\x135\x15\x00\x00\x00'
tRp1452
sg14
Nsg15
VTimGettys
p1453
sa(dp1454
g3
(lp1455
V"
aVeverybody
p1456
aVstop
p1457
aV.
aVpaula's
p1458
aVgot
p1459
aVhiccups
p1460
aV.
aV"
aV-
aV@kindafunnykevin
p1461
asg11
g12
(S'\x07\xe0\x01\x11\t\x12\x18\x00\x00\x00'
tRp1462
sg14
Nsg15
VTimGettys
p1463
sa(dp1464
g3
(lp1465
Vrt
p1466
aV@jwr86
p1467
aV:
aVtime
p1468
aVto
p1469
aVsupport
p1470
aVthe
p1471
aVbest
p1472
aVfriends
p1473
aV!
aV@gameovergreggy
p1474
aV@notaxation
p1475
aV@timgettys
p1476
aV@nick_scarpino
p1477
aV@kindafunnykevin
p1478
aVhttps://t.co/nazv0mipch
p1479
asg11
g12
(S'\x07\xe0\x01\x11\x00;&\x00\x00\x00'
tRp1480
sg14
Nsg15
VTimGettys
p1481
sa(dp1482
g3
(lp1483
V&
aVlt
p1484
aV;
aV3
aVhttps://t.co/rdb29ogsao
p1485
asg11
g12
(S'\x07\xe0\x01\x10\x17 \r\x00\x00\x00'
tRp1486
sg14
Nsg15
VTimGettys
p1487
sa(dp1488
g3
(lp1489
V@gooperatives
p1490
aVi
aVappreciate
p1491
aVthat
p1492
aV!
asg11
g12
(S'\x07\xe0\x01\x10\x17\x1f\x00\x00\x00\x00'
tRp1493
sg14
Nsg15
VTimGettys
p1494
sa(dp1495
g3
(lp1496
Vrt
p1497
aV@tonedeff
p1498
aV:
aVthis
p1499
aVtweet
p1500
aVverifies
p1501
aVthat
p1502
aV@timgettys
p1503
aVcan
p1504
aVhold
p1505
aVhis
p1506
aVliquor
p1507
aVand
p1508
aVan
p1509
aVin-depth
p1510
aVconvo
p1511
aVsimultaneously
p1512
aV.
aVi
aVappreciate
p1513
aVthe
p1514
aVsupport
p1515
aV,
aVfam
p1516
aV.
aV\u2026
asg11
g12
(S'\x07\xe0\x01\x10\t\x021\x00\x00\x00'
tRp1517
sg14
Nsg15
VTimGettys
p1518
sa(dp1519
g3
(lp1520
Vrt
p1521
aV@wario64
p1522
aV:
aVfirst
p1523
aVscreens
p1524
aVof
p1525
aVplatinum's
p1526
aVtmnt
p1527
aVhttps://t.co/krkpcxx97u
p1528
aVhttps://t.co/iuo7d57kcp
p1529
asg11
g12
(S'\x07\xe0\x01\x10\x05\n\x0b\x00\x00\x00'
tRp1530
sg14
Nsg15
VTimGettys
p1531
sa(dp1532
g3
(lp1533
V@nehalia
p1534
aV@naomikyle
p1535
aV@amarisse
p1536
aV@merrykish
p1537
aV@alexarayc
p1538
aVin
p1539
aV.
asg11
g12
(S'\x07\xe0\x01\x10\x01\r\x05\x00\x00\x00'
tRp1540
sg14
Nsg15
VTimGettys
p1541
sa(dp1542
g3
(lp1543
V@letsgetlexi
p1544
aV@shotbyfinnegan
p1545
aV@letsgetlexi
p1546
asg11
g12
(S'\x07\xe0\x01\x10\x00:\x17\x00\x00\x00'
tRp1547
sg14
Nsg15
VTimGettys
p1548
sa(dp1549
g3
(lp1550
V@giatapharris
p1551
aVwe're
p1552
aVdone
p1553
aV.
asg11
g12
(S"\x07\xe0\x01\x10\x00':\x00\x00\x00"
tRp1554
sg14
Nsg15
VTimGettys
p1555
sa(dp1556
g3
(lp1557
Vholy
p1558
aVshit
p1559
aV.
aVhttps://t.co/k1fs0gc46j
p1560
asg11
g12
(S'\x07\xe0\x01\x0f\x15\x1d\x11\x00\x00\x00'
tRp1561
sg14
Nsg15
VTimGettys
p1562
sa(dp1563
g3
(lp1564
V@rb2d
p1565
aVboth
p1566
aV.
asg11
g12
(S'\x07\xe0\x01\x0f\x14(\x15\x00\x00\x00'
tRp1567
sg14
Nsg15
VTimGettys
p1568
sa(dp1569
g3
(lp1570
V@chris_kerbydog
p1571
aV&
aVlt
p1572
aV;
aV3
asg11
g12
(S'\x07\xe0\x01\x0f\x14(\x01\x00\x00\x00'
tRp1573
sg14
Nsg15
VTimGettys
p1574
sa(dp1575
g3
(lp1576
V@nicolasverge
p1577
aV@linkinpark
p1578
aVi
aVlove
p1579
aVyou
p1580
aV.
aVyessssssss
p1581
aV.
asg11
g12
(S'\x07\xe0\x01\x0f\x12\x04\x15\x00\x00\x00'
tRp1582
sg14
Nsg15
VTimGettys
p1583
sa(dp1584
g3
(lp1585
Vrt
p1586
aV@tomhawkin5
p1587
aV:
aVwelcome
p1588
aVto
p1589
aVthe
p1590
aV@gameovergreggy
p1591
aVshow
p1592
aV,
aVi'm
p1593
aVone
p1594
aVof
p1595
aVyour
p1596
aVhosts
p1597
aV.
aV.
aV.
aVhttps://t.co/nmfct0qyxi
p1598
asg11
g12
(S'\x07\xe0\x01\x0f\x12\x03/\x00\x00\x00'
tRp1599
sg14
Nsg15
VTimGettys
p1600
sa(dp1601
g3
(lp1602
V@thescreenteam
p1603
aVtequila
p1604
asg11
g12
(S'\x07\xe0\x01\x0f\x063$\x00\x00\x00'
tRp1605
sg14
Nsg15
VTimGettys
p1606
sa(dp1607
g3
(lp1608
Vin
p1609
aVcase
p1610
aVyou
p1611
aVwere
p1612
aVwondering
p1613
aVwhat
p1614
aV@notaxation
p1615
aV'
aVs
aVtoilet
p1616
aVlooks
p1617
aVlike
p1618
aV.
aVhttps://t.co/pg5zfwponn
p1619
aVhttps://t.co/rzmkwebynp
p1620
asg11
g12
(S'\x07\xe0\x01\x0f\x03\x1a\x04\x00\x00\x00'
tRp1621
sg14
Nsg15
VTimGettys
p1622
sa(dp1623
g3
(lp1624
Vkinda
p1625
aVfunny
p1626
aVafter
p1627
aVdark
p1628
aV.
aVhttps://t.co/gxxadhqb12
p1629
aVhttps://t.co/gjzrogu131
p1630
asg11
g12
(S'\x07\xe0\x01\x0f\x02\x01\r\x00\x00\x00'
tRp1631
sg14
Nsg15
VTimGettys
p1632
sa(dp1633
g3
(lp1634
Vomg
p1635
aVomg
p1636
aVomg
p1637
aVomg
p1638
aVomg
p1639
aVomg
p1640
aVomg
p1641
aVomg
p1642
aVomg
p1643
aVomg
p1644
aVomg
p1645
aV@cunninlynguists
p1646
aVannouncement
p1647
aVcoming
p1648
aV01.25
p1649
aV.
aV16
p1650
aVhttps://t.co/ulkmu0qd6k
p1651
asg11
g12
(S"\x07\xe0\x01\x0f\x01'&\x00\x00\x00"
tRp1652
sg14
Nsg15
VTimGettys
p1653
sa(dp1654
g3
(lp1655
Vhow
p1656
aVare
p1657
aVeven
p1658
aVpictures
p1659
aVof
p1660
aVspiders
p1661
aVas
p1662
aVhorrifying
p1663
aVas
p1664
aVthey
p1665
aVare
p1666
aV?
asg11
g12
(S'\x07\xe0\x01\x0f\x01\x10\x14\x00\x00\x00'
tRp1667
sg14
Nsg15
VTimGettys
p1668
sa(dp1669
g3
(lp1670
Vadele
p1671
aVis
p1672
aVthe
p1673
aVhomie
p1674
aV.
asg11
g12
(S'\x07\xe0\x01\x0e\x15\x03\x11\x00\x00\x00'
tRp1675
sg14
Nsg15
VTimGettys
p1676
sa(dp1677
g3
(lp1678
Vrt
p1679
aV@tobiasrintoul
p1680
aV:
aV"
aVwhen
p1681
aVare
p1682
aVyou
p1683
aVgoing
p1684
aVto
p1685
aVhave
p1686
aVkids
p1687
aV?
aV"
aV"
aVno
p1688
aVsooner
p1689
aVthan
p1690
aVstar
p1691
aVwars
p1692
aV:
aVepisode
p1693
aV9
aV.
aV"
aV@timgettys
p1694
asg11
g12
(S'\x07\xe0\x01\x0e\x12\x01\x04\x00\x00\x00'
tRp1695
sg14
Nsg15
VTimGettys
p1696
sa(dp1697
g3
(lp1698
V@mattdboyce
p1699
aV@notaxation
p1700
aVabsolutely
p1701
aV.
asg11
g12
(S'\x07\xe0\x01\x0e\x11;\x1e\x00\x00\x00'
tRp1702
sg14
Nsg15
VTimGettys
p1703
sa(dp1704
g3
(lp1705
V@tomhawkin5
p1706
aVamsterdamn
p1707
asg11
g12
(S'\x07\xe0\x01\x0e\x11:\x15\x00\x00\x00'
tRp1708
sg14
Nsg15
VTimGettys
p1709
sa(dp1710
g3
(lp1711
Vmy
p1712
aVdude
p1713
aVchewie
p1714
aVlooking
p1715
aVlike
p1716
aVhe
p1717
aVtrynna
p1718
aVget
p1719
aVa
aVjob
p1720
aVat
p1721
aVgoogle
p1722
aV.
aV(
aVfollow
p1723
aV@rajaandchewie
p1724
aVon
p1725
aVinsta
p1726
aV)
aVhttps://t.co/vd2zhdcsxe
p1727
aVhttps://t.co/q24vf2tiwg
p1728
asg11
g12
(S'\x07\xe0\x01\x0e\x11:\x08\x00\x00\x00'
tRp1729
sg14
Nsg15
VTimGettys
p1730
sa(dp1731
g3
(lp1732
Vkinda
p1733
aVfunny's
p1734
aVgame
p1735
aVof
p1736
aVthe
p1737
aVyear
p1738
aV2015
p1739
aV.
aVhttps://t.co/hzosbmz4qi
p1740
aVhttps://t.co/7b4lxzgpbh
p1741
asg11
g12
(S'\x07\xe0\x01\x0e\x10\x01\x1b\x00\x00\x00'
tRp1742
sg14
Nsg15
VTimGettys
p1743
sa(dp1744
g3
(lp1745
Vkinda
p1746
aVfunny
p1747
aVafter
p1748
aVdark
p1749
aV.
aVhttps://t.co/rvkxqadlsy
p1750
aVhttps://t.co/wpf5unofxt
p1751
asg11
g12
(S'\x07\xe0\x01\x0e\x02\x01\x19\x00\x00\x00'
tRp1752
sg14
Nsg15
VTimGettys
p1753
sa(dp1754
g3
(lp1755
V@themilesluna
p1756
aVi
aVthought
p1757
aVit
p1758
aVwas
p1759
aV"
aVworst
p1760
aVcomes
p1761
aVto
p1762
aVworst
p1763
aV!
aV"
aVwhat
p1764
aVis
p1765
aVreal
p1766
aV?
aVwhat
p1767
aVis
p1768
aVlife
p1769
aV?
aVeverything
p1770
aVis
p1771
aVa
aVlie
p1772
aV!
asg11
g12
(S'\x07\xe0\x01\x0e\x00.\x04\x00\x00\x00'
tRp1773
sg14
Nsg15
VTimGettys
p1774
sa(dp1775
g3
(lp1776
V@jaredthbenitez
p1777
aV@kindafunnyvids
p1778
aV@notaxation
p1779
aV@gameovergreggy
p1780
aV@nick_scarpino
p1781
aV@kindafunnykevin
p1782
aVthank
p1783
aVyou
p1784
aV!
asg11
g12
(S'\x07\xe0\x01\r\x17 \x00\x00\x00\x00'
tRp1785
sg14
Nsg15
VTimGettys
p1786
sa(dp1787
g3
(lp1788
V@danielnavaroli
p1789
aV@notaxation
p1790
aVfuck
p1791
aV.
aVyes
p1792
aV.
asg11
g12
(S'\x07\xe0\x01\r\x17\x0f)\x00\x00\x00'
tRp1793
sg14
Nsg15
VTimGettys
p1794
sa(dp1795
g3
(lp1796
V"
aVbeing
p1797
aVmarried
p1798
aVis
p1799
aVlike
p1800
aVbeing
p1801
aVon
p1802
aVa
aVdiet
p1803
aVforever
p1804
aV.
aVyou
p1805
aVcan
p1806
aVlook
p1807
aVat
p1808
aV@tacobell
p1809
aV,
aVbut
p1810
aVyou
p1811
aVcan't
p1812
aVgo
p1813
aVin
p1814
aV.
aV"
aV-
aV@nick_scarpino
p1815
asg11
g12
(S'\x07\xe0\x01\r\x15\x0f\x1a\x00\x00\x00'
tRp1816
sg14
Nsg15
VTimGettys
p1817
sa(dp1818
g3
(lp1819
Vrt
p1820
aV@nick_scarpino
p1821
aV:
aVcome
p1822
aVhave
p1823
aVfun
p1824
aVwith
p1825
aVme
p1826
aVon
p1827
aVmy
p1828
aVbirthday
p1829
aV!
aVhttps://t.co/za1eu5cuyj
p1830
aVhttps://t.co/n5yogvy2cy
p1831
asg11
g12
(S'\x07\xe0\x01\r\x14&-\x00\x00\x00'
tRp1832
sg14
Nsg15
VTimGettys
p1833
sa(dp1834
g3
(lp1835
V@erdna11
p1836
aV@mdump
p1837
aVyes
p1838
aV!
aVi
aVlove
p1839
aVthat
p1840
aV&
aVlt
p1841
aV;
aV3
aVi
aVwould
p1842
aVdie
p1843
aV.
asg11
g12
(S'\x07\xe0\x01\r\x13!2\x00\x00\x00'
tRp1844
sg14
Nsg15
VTimGettys
p1845
sa(dp1846
g3
(lp1847
V@erdna11
p1848
aV@mdump
p1849
aVlololol
p1850
asg11
g12
(S'\x07\xe0\x01\r\x129&\x00\x00\x00'
tRp1851
sg14
Nsg15
VTimGettys
p1852
sa(dp1853
g3
(lp1854
V@darrenbraz
p1855
aV@kierstenslader
p1856
aV@ign
p1857
aVthese
p1858
aVare
p1859
aVmy
p1860
aVfavorite
p1861
aVdays
p1862
asg11
g12
(S'\x07\xe0\x01\r\x128)\x00\x00\x00'
tRp1863
sg14
Nsg15
VTimGettys
p1864
sa(dp1865
g3
(lp1866
Vgreg
p1867
aVmiller's
p1868
aVtop
p1869
aV10
p1870
aVfavorite
p1871
aVgames
p1872
aVof
p1873
aV2015
p1874
aV.
aVhttps://t.co/wa359yizjk
p1875
aVhttps://t.co/0f7scxapd1
p1876
asg11
g12
(S'\x07\xe0\x01\r\x12\x02\x04\x00\x00\x00'
tRp1877
sg14
Nsg15
VTimGettys
p1878
sa(dp1879
g3
(lp1880
Vrt
p1881
aV@maximumcortez
p1882
aV:
aVhappy
p1883
aVbirthday
p1884
aV,
aV@nick_scarpino
p1885
aV.
aVthe
p1886
aV@kindafunnyvids
p1887
aVbest
p1888
aVfriends
p1889
aVluv
p1890
aVu
aV.
aV@gameovergreggy
p1891
aV@timgettys
p1892
aV@kindafunnykevin
p1893
aVhttp
p1894
aV\u2026
asg11
g12
(S'\x07\xe0\x01\r\x08\x026\x00\x00\x00'
tRp1895
sg14
Nsg15
VTimGettys
p1896
sa(dp1897
g3
(lp1898
Vyup
p1899
aV.
aVhttps://t.co/ypa3eyve29
p1900
asg11
g12
(S'\x07\xe0\x01\r\x01\x18+\x00\x00\x00'
tRp1901
sg14
Nsg15
VTimGettys
p1902
sa(dp1903
g3
(lp1904
Vtomorrow
p1905
aVwe
p1906
aVare
p1907
aVcelebrating
p1908
aV@nick_scarpino
p1909
aV'
aVs
aVbirthday
p1910
aV.
aVjoin
p1911
aVus
p1912
aV.
aVhttps://t.co/avtte49zey
p1913
asg11
g12
(S'\x07\xe0\x01\r\x01\x08\x00\x00\x00\x00'
tRp1914
sg14
Nsg15
VTimGettys
p1915
sa(dp1916
g3
(lp1917
V@the_nick_wolfe
p1918
aV@notaxation
p1919
aV@gameovergreggy
p1920
aV@nick_scarpino
p1921
aVi
aVgot
p1922
aVfat
p1923
aV.
aVcolin
p1924
aVgot
p1925
aVa
aVbeard
p1926
aV.
aVgreg
p1927
aVgot
p1928
aVbetter
p1929
aVhair
p1930
aV.
aVnick
p1931
aVlost
p1932
aVhis
p1933
aVheadphones
p1934
aV.
asg11
g12
(S'\x07\xe0\x01\r\x01\x05\x1c\x00\x00\x00'
tRp1935
sg14
Nsg15
VTimGettys
p1936
sa(dp1937
g3
(lp1938
Vcolin
p1939
aVmoriarty's
p1940
aVtop
p1941
aV10
p1942
aVfavorite
p1943
aVgames
p1944
aVof
p1945
aV2015
p1946
aV.
aVhttps://t.co/xwcrzdc5na
p1947
aVhttps://t.co/abvczkiwfm
p1948
asg11
g12
(S'\x07\xe0\x01\r\x01\x01\x15\x00\x00\x00'
tRp1949
sg14
Nsg15
VTimGettys
p1950
sa(dp1951
g3
(lp1952
V@rawfanboy101
p1953
aVhmmm
p1954
aVlemme
p1955
aVlook
p1956
aVinto
p1957
aVthis
p1958
asg11
g12
(S'\x07\xe0\x01\x0c\x16\n\x00\x00\x00\x00'
tRp1959
sg14
Nsg15
VTimGettys
p1960
sa(dp1961
g3
(lp1962
V@rawfanboy101
p1963
aVare
p1964
aVyou
p1965
aVtalking
p1966
aVabout
p1967
aVthe
p1968
aVdate
p1969
aVis
p1970
aVsays
p1971
aVthe
p1972
aVdescription
p1973
aV?
asg11
g12
(S'\x07\xe0\x01\x0c\x16\x042\x00\x00\x00'
tRp1974
sg14
Nsg15
VTimGettys
p1975
sa(dp1976
g3
(lp1977
V@randommer
p1978
aV@nick_scarpino
p1979
aV@jschoes1994
p1980
aVthanks
p1981
aV!
aVworking
p1982
aVon
p1983
aVit
p1984
aV!
asg11
g12
(S'\x07\xe0\x01\x0c\x16\x03\x14\x00\x00\x00'
tRp1985
sg14
Nsg15
VTimGettys
p1986
sa(dp1987
g3
(lp1988
V@thearcticsloth
p1989
aVnext
p1990
aVweek
p1991
aV!
aVwanted
p1992
aVto
p1993
aVgive
p1994
aVthe
p1995
aVanimated
p1996
aVshow
p1997
aVroom
p1998
aVto
p1999
aVbreathe
p2000
aV.
asg11
g12
(S'\x07\xe0\x01\x0c\x14\x069\x00\x00\x00'
tRp2001
sg14
Nsg15
VTimGettys
p2002
sa(dp2003
g3
(lp2004
V@tysonpellegrini
p2005
aVdude
p2006
aVdidnt
p2007
aVsee
p2008
aVit
p2009
aVtil
p2010
aVnow
p2011
aV.
aVawesome
p2012
aV!
aVi
aVforwarded
p2013
aVto
p2014
aVnick
p2015
aVand
p2016
aVhe
p2017
aVwill
p2018
aVreach
p2019
aVout
p2020
aVto
p2021
aVyou
p2022
aVsoon
p2023
aV&
aVlt
p2024
aV;
aV3
asg11
g12
(S'\x07\xe0\x01\x0c\x14\x025\x00\x00\x00'
tRp2025
sg14
Nsg15
VTimGettys
p2026
sa(dp2027
g3
(lp2028
V@mostly_jason
p2029
aVbut
p2030
aVyou
p2031
aVneed
p2032
aVthe
p2033
aVbonus
p2034
aVsong
p2035
aVthe
p2036
aVunlock
p2037
aVsuper
p2038
aV.
aVi
aVbeat
p2039
aVexpert
p2040
aVgetting
p2041
aV2
aVbars
p2042
aVon
p2043
aVeach
p2044
aVof
p2045
aVthe
p2046
aVlast
p2047
aVsection
p2048
aV,
aVbut
p2049
aVit
p2050
aVwasnt
p2051
aVenough
p2052
asg11
g12
(S'\x07\xe0\x01\x0c\x13\x0e\x0e\x00\x00\x00'
tRp2053
sg14
Nsg15
VTimGettys
p2054
sa(dp2055
g3
(lp2056
V@keithwoodland
p2057
aVcrash
p2058
aVbandicoot
p2059
aV!
asg11
g12
(S'\x07\xe0\x01\x0c\x13\r\x17\x00\x00\x00'
tRp2060
sg14
Nsg15
VTimGettys
p2061
sa(dp2062
g3
(lp2063
Vrt
p2064
aV@letsgetlexi
p2065
aV:
aVthat
p2066
aVtime
p2067
aV@timgettys
p2068
aVimpersonated
p2069
aVa
aVgirl
p2070
aVmeeting
p2071
aV@onedirection
p2072
aV.
aV.
aV.
aV\U0001f602
aV7
aVsecond
p2073
aVchallenge
p2074
aV:
aVhttps://t.co/snd71w5x92
p2075
aVhttps://t.c
p2076
aV\u2026
asg11
g12
(S'\x07\xe0\x01\x0c\x13\x0c\x0f\x00\x00\x00'
tRp2077
sg14
Nsg15
VTimGettys
p2078
sa(dp2079
g3
(lp2080
Vkinda
p2081
aVfunny
p2082
aVafter
p2083
aVdark
p2084
aV.
aVhttps://t.co/hapli2wnmh
p2085
aVhttps://t.co/efejr76e94
p2086
asg11
g12
(S'\x07\xe0\x01\x0c\x0e\x01\x18\x00\x00\x00'
tRp2087
sg14
Nsg15
VTimGettys
p2088
sa(dp2089
g3
(lp2090
V@mostly_jason
p2091
aVi
aVam
p2092
aVstill
p2093
aVstruggling
p2094
aVto
p2095
aVunlock
p2096
aVsuper
p2097
aV:(
p2098
aVi
aVcan't
p2099
aV3
aVbar
p2100
aVall
p2101
aVthe
p2102
aVfinal
p2103
aVzone
p2104
aVsongs
p2105
asg11
g12
(S'\x07\xe0\x01\x0c\x063\x1f\x00\x00\x00'
tRp2106
sg14
Nsg15
VTimGettys
p2107
sa(dp2108
g3
(lp2109
Vtim
p2110
aVgettys
p2111
aV'
aVtop
p2112
aV10
p2113
aVfavorite
p2114
aVgames
p2115
aVof
p2116
aV2015
p2117
aV.
aVhttps://t.co/zpyj0fsak8
p2118
aVhttps://t.co/j7p569jjfp
p2119
asg11
g12
(S'\x07\xe0\x01\x0c\x03\x01\n\x00\x00\x00'
tRp2120
sg14
Nsg15
VTimGettys
p2121
sa(dp2122
g3
(lp2123
Vfinally
p2124
aVsaw
p2125
aVstar
p2126
aVwars
p2127
aVin
p2128
aV2
aVd
aVimax
p2129
aVhttps://t.co/l6yu0ff9ce
p2130
asg11
g12
(S'\x07\xe0\x01\x0b\x174\x19\x00\x00\x00'
tRp2131
sg14
Nsg15
VTimGettys
p2132
sa(dp2133
g3
(lp2134
Vhow
p2135
aVto
p2136
aVshave
p2137
aVyour
p2138
aVsexy
p2139
aVparts
p2140
aV(
aVwith
p2141
aV@avagordy
p2142
aV)
aV:
aVhttps://t.co/wdiduqdcog
p2143
aVhttps://t.co/boixn2hzfj
p2144
asg11
g12
(S'\x07\xe0\x01\x0b\x17\x01.\x00\x00\x00'
tRp2145
sg14
Nsg15
VTimGettys
p2146
sa(dp2147
g3
(lp2148
Vthe
p2149
aVmost
p2150
aVpopular
p2151
aVkinda
p2152
aVfunny
p2153
aVvideos
p2154
aVof
p2155
aV2015
p2156
aV.
aVhttps://t.co/amjpqsihu2
p2157
aVhttps://t.co/dwthowdmx4
p2158
asg11
g12
(S'\x07\xe0\x01\x0b\n\x00\x17\x00\x00\x00'
tRp2159
sg14
Nsg15
VTimGettys
p2160
sa(dp2161
g3
(lp2162
V@danny_shikari
p2163
aV@gameovergreggy
p2164
aVthis
p2165
aVis
p2166
aVincredibly
p2167
aVcool
p2168
aV!
asg11
g12
(S'\x07\xe0\x01\x0b\x08:(\x00\x00\x00'
tRp2169
sg14
Nsg15
VTimGettys
p2170
sa(dp2171
g3
(lp2172
V@tomhawkin5
p2173
aVprepare
p2174
aVyoself
p2175
asg11
g12
(S'\x07\xe0\x01\n\x16*\x14\x00\x00\x00'
tRp2176
sg14
Nsg15
VTimGettys
p2177
sa(dp2178
g3
(lp2179
Vsushi
p2180
aVburrito
p2181
aV.
aVhttps://t.co/nt5kpycn9i
p2182
asg11
g12
(S'\x07\xe0\x01\n\x07\x14\x03\x00\x00\x00'
tRp2183
sg14
Nsg15
VTimGettys
p2184
sa(dp2185
g3
(lp2186
Vmake
p2187
aVyour
p2188
aVown
p2189
aVsushi
p2190
aVnight
p2191
aVhttps://t.co/lxiwncs9vl
p2192
asg11
g12
(S'\x07\xe0\x01\n\x05\r\x12\x00\x00\x00'
tRp2193
sg14
Nsg15
VTimGettys
p2194
sa(dp2195
g3
(lp2196
V@bobbyb_87
p2197
aV@amplitudegame
p2198
aV@gl_podcast
p2199
aVhttps://t.co/dzeg1rvhv0
p2200
asg11
g12
(S'\x07\xe0\x01\n\x01*\x12\x00\x00\x00'
tRp2201
sg14
Nsg15
VTimGettys
p2202
sa(dp2203
g3
(lp2204
V@grimecraft
p2205
aVthis
p2206
aVis
p2207
aVeverything
p2208
asg11
g12
(S'\x07\xe0\x01\n\x01&6\x00\x00\x00'
tRp2209
sg14
Nsg15
VTimGettys
p2210
sa(dp2211
g3
(lp2212
Vwhy
p2213
aVdoes
p2214
aVanyone
p2215
aVlike
p2216
aVme
p2217
aV?
aVw
aV/
aV@giatapharris
p2218
aVhttps://t.co/dtpyglk99i
p2219
asg11
g12
(S'\x07\xe0\x01\n\x01\x0c%\x00\x00\x00'
tRp2220
sg14
Nsg15
VTimGettys
p2221
sa(dp2222
g3
(lp2223
V"
aVthere
p2224
aVis
p2225
aVsomething
p2226
aVso
p2227
aVloveable
p2228
aVabout
p2229
aV@kindafunnykevin
p2230
aV,
aVdespite
p2231
aVthe
p2232
aVfact
p2233
aVthat
p2234
aVhe
p2235
aVis
p2236
aVfucking
p2237
aVhorrible
p2238
aV.
aV"
aV-
aV@giatapharris
p2239
asg11
g12
(S'\x07\xe0\x01\t\x15\x1c\x13\x00\x00\x00'
tRp2240
sg14
Nsg15
VTimGettys
p2241
sa(dp2242
g3
(lp2243
Vfollow
p2244
aVme
p2245
aVon
p2246
aVpeach
p2247
aV@timgettys
p2248
aV.
aVcause
p2249
aVwhile
p2250
aVi
aVdon't
p2251
aVunderstand
p2252
aVthe
p2253
aVpoint
p2254
aV,
aVone
p2255
aVday
p2256
aVi
aVmight
p2257
aV.
aV#socialmedia
p2258
asg11
g12
(S'\x07\xe0\x01\t\x14\x1f\x1d\x00\x00\x00'
tRp2259
sg14
Nsg15
VTimGettys
p2260
sa(dp2261
g3
(lp2262
V@mcclurg_junior
p2263
aV@gameovergreggy
p2264
aVyesssssssss
p2265
asg11
g12
(S'\x07\xe0\x01\t\x14\x1a\x0f\x00\x00\x00'
tRp2266
sg14
Nsg15
VTimGettys
p2267
sa(dp2268
g3
(lp2269
V@thereal_mooncow
p2270
aV&
aVlt
p2271
aV;
aV3
asg11
g12
(S'\x07\xe0\x01\t\x134\x07\x00\x00\x00'
tRp2272
sg14
Nsg15
VTimGettys
p2273
sa(dp2274
g3
(lp2275
V@dielawngames
p2276
aVyup
p2277
aV!
aVenjoy
p2278
aV,
aVit
p2279
aVis
p2280
aVawesome
p2281
aV.
asg11
g12
(S'\x07\xe0\x01\t\x133\x0c\x00\x00\x00'
tRp2282
sg14
Nsg15
VTimGettys
p2283
sa(dp2284
g3
(lp2285
V#worthit
p2286
asg11
g12
(S'\x07\xe0\x01\t\t\n\x04\x00\x00\x00'
tRp2287
sg14
Nsg15
VTimGettys
p2288
sa(dp2289
g3
(lp2290
Vrt
p2291
aV@willjpowers
p2292
aV:
aV"
aV#tugbeforetongue
p2293
aV"
aV-
aV@timgettys
p2294
asg11
g12
(S'\x07\xe0\x01\t\t\x08\x11\x00\x00\x00'
tRp2295
sg14
Nsg15
VTimGettys
p2296
sa(dp2297
g3
(lp2298
V&
aVlt
p2299
aV;
aV3
aV@giatapharris
p2300
aVand
p2301
aV@gankstrr
p2302
aVhttps://t.co/7toecj6umq
p2303
asg11
g12
(S'\x07\xe0\x01\t\x08"+\x00\x00\x00'
tRp2304
sg14
Nsg15
VTimGettys
p2305
sa(dp2306
g3
(lp2307
Vyay
p2308
aV@grimecraft
p2309
aVhttps://t.co/qbggmbvdnq
p2310
asg11
g12
(S'\x07\xe0\x01\t\x08"\x12\x00\x00\x00'
tRp2311
sg14
Nsg15
VTimGettys
p2312
sa(dp2313
g3
(lp2314
V@raul_hernandez
p2315
aVhahaha
p2316
aVi
aVforgot
p2317
aVto
p2318
aVmention
p2319
aV,
aVso
p2320
aVi
aVwanted
p2321
aVto
p2322
aVgive
p2323
aVa
aVshout
p2324
aVout
p2325
aV!
asg11
g12
(S'\x07\xe0\x01\t\x08\x07/\x00\x00\x00'
tRp2326
sg14
Nsg15
VTimGettys
p2327
sa(dp2328
g3
(lp2329
Vi
aVam
p2330
aVat
p2331
aVa
aVbar
p2332
aVand
p2333
aV@elreynetwork
p2334
aVis
p2335
aVplaying
p2336
aVred
p2337
aVvs
p2338
aVblue
p2339
aVon
p2340
aVtv
p2341
aV.
aVhell
p2342
aVyes
p2343
aV@roosterteeth
p2344
aV.
asg11
g12
(S'\x07\xe0\x01\t\x061+\x00\x00\x00'
tRp2345
sg14
Nsg15
VTimGettys
p2346
sa(dp2347
g3
(lp2348
V"
aVthe
p2349
aVway
p2350
aVi
aVlook
p2351
aVat
p2352
aVit
p2353
aV.
aV.
aV.
aV.
aVactually
p2354
aVyou
p2355
aVknow
p2356
aVwhat
p2357
aV?
aVi
aVdon't
p2358
aVlook
p2359
aVat
p2360
aVit
p2361
aV.
aV"
aV-
aV@shotbyfinnegan
p2362
asg11
g12
(S'\x07\xe0\x01\t\x05\x06\x15\x00\x00\x00'
tRp2363
sg14
Nsg15
VTimGettys
p2364
sa(dp2365
g3
(lp2366
V@shotbyfinnegan
p2367
aV@ign
p2368
aVstop
p2369
aV.
asg11
g12
(S'\x07\xe0\x01\t\x00\x1f.\x00\x00\x00'
tRp2370
sg14
Nsg15
VTimGettys
p2371
sa(dp2372
g3
(lp2373
V@kierstenslader
p2374
aV@ign
p2375
aVmaybe
p2376
aVyou
p2377
aVhave
p2378
aVmy
p2379
aVold
p2380
aVemail
p2381
aV?
aVi
aVam
p2382
aVnot
p2383
aVseeing
p2384
aVanything
p2385
aVin
p2386
aVmy
p2387
aVinbox
p2388
aV.
aV:(
p2389
asg11
g12
(S'\x07\xe0\x01\x08\x168\x1a\x00\x00\x00'
tRp2390
sg14
Nsg15
VTimGettys
p2391
sa(dp2392
g3
(lp2393
Vso
p2394
aV@notaxation
p2395
aVreviews
p2396
aVoreos
p2397
aVin
p2398
aVthe
p2399
aVmost
p2400
aV@notaxation
p2401
aVway
p2402
aVpossible
p2403
aV.
aVand
p2404
aV@gameovergreggy
p2405
aVkilled
p2406
aVit
p2407
aVwith
p2408
aVthe
p2409
aVedit
p2410
aV.
aVhttps://t.co/kb9uvv7w0j
p2411
asg11
g12
(S'\x07\xe0\x01\x08\x16.-\x00\x00\x00'
tRp2412
sg14
Nsg15
VTimGettys
p2413
sa(dp2414
g3
(lp2415
Vthe
p2416
aVmario
p2417
aVkart
p2418
aVmusic
p2419
aVmakes
p2420
aVthis
p2421
aVamazing
p2422
aV@tomhawkin5
p2423
aVhttps://t.co/wtbv3mtz1a
p2424
asg11
g12
(S"\x07\xe0\x01\x08\x16'(\x00\x00\x00"
tRp2425
sg14
Nsg15
VTimGettys
p2426
sa(dp2427
g3
(lp2428
V@kaymackgee
p2429
aV@tomhawkin5
p2430
aV@notaxation
p2431
aV@gameovergreggy
p2432
aV@nick_scarpino
p2433
aVblue
p2434
aV.
asg11
g12
(S'\x07\xe0\x01\x08\x16\x19*\x00\x00\x00'
tRp2435
sg14
Nsg15
VTimGettys
p2436
sa(dp2437
g3
(lp2438
Vi
aVfeel
p2439
aVyou
p2440
aV.
aV(
aVfollow
p2441
aV@rajaandchewie
p2442
aVon
p2443
aVinstagram
p2444
aV)
aVhttps://t.co/iinb2kwmdv
p2445
asg11
g12
(S'\x07\xe0\x01\x08\x16\x19\x00\x00\x00\x00'
tRp2446
sg14
Nsg15
VTimGettys
p2447
sa(dp2448
g3
(lp2449
Vi
aVwanna
p2450
aVbe
p2451
aV@channingtatum
p2452
aVhttps://t.co/pznhvmdkud
p2453
asg11
g12
(S'\x07\xe0\x01\x08\x13"\x18\x00\x00\x00'
tRp2454
sg14
Nsg15
VTimGettys
p2455
sa(dp2456
g3
(lp2457
V@andrearene
p2458
aV@kindafunnyvids
p2459
aV@notaxation
p2460
aV@nick_scarpino
p2461
aVi
aVloved
p2462
aVit
p2463
aVthough
p2464
aV.
aV&
aVlt
p2465
aV;
aV3
asg11
g12
(S'\x07\xe0\x01\x08\x13\x01\x04\x00\x00\x00'
tRp2466
sg14
Nsg15
VTimGettys
p2467
sa(dp2468
g3
(lp2469
Vthis
p2470
aVis
p2471
aVawesome
p2472
aVhttps://t.co/dpmjf7rmzg
p2473
asg11
g12
(S'\x07\xe0\x01\x08\x06/\x01\x00\x00\x00'
tRp2474
sg14
Nsg15
VTimGettys
p2475
sa(dp2476
g3
(lp2477
V@poloniumized
p2478
aV@kindafunnyclub
p2479
aV@gameovergreggy
p2480
aV@notaxation
p2481
aV@nick_scarpino
p2482
aV@kindafunnykevin
p2483
aVholy
p2484
aVshit
p2485
aVi
aVam
p2486
aVexcited
p2487
asg11
g12
(S'\x07\xe0\x01\x08\x06\x165\x00\x00\x00'
tRp2488
sg14
Nsg15
VTimGettys
p2489
sa(dp2490
g3
(lp2491
V@abhi_kohli
p2492
aVoh
p2493
aVlol
p2494
aVhhahaha
p2495
aVi
aVlove
p2496
aVcolin
p2497
asg11
g12
(S'\x07\xe0\x01\x08\x0574\x00\x00\x00'
tRp2498
sg14
Nsg15
VTimGettys
p2499
sa(dp2500
g3
(lp2501
V.
aV@taylorswift13
p2502
aV'
aVs
aVout
p2503
aVof
p2504
aVthe
p2505
aVwoods
p2506
aVslapped
p2507
aVin
p2508
aV2014,
p2509
aVit
p2510
aVslapped
p2511
aVin
p2512
aV2015,
p2513
aVand
p2514
aVyup
p2515
aV,
aVit
p2516
aVstill
p2517
aVslaps
p2518
aVin
p2519
aV2016
p2520
asg11
g12
(S'\x07\xe0\x01\x08\x03*6\x00\x00\x00'
tRp2521
sg14
Nsg15
VTimGettys
p2522
sa(dp2523
g3
(lp2524
V@abhi_kohli
p2525
aV?
asg11
g12
(S'\x07\xe0\x01\x08\x03\x02\x0f\x00\x00\x00'
tRp2526
sg14
Nsg15
VTimGettys
p2527
sa(dp2528
g3
(lp2529
V@sdinfected
p2530
aV@kindafunnykevin
p2531
aV@_heavyheartxx
p2532
aVthe
p2533
aVmost
p2534
aVunderrated
p2535
aVride
p2536
aVof
p2537
aVall-time
p2538
aV.
aVand
p2539
aVjingle
p2540
aVis
p2541
aVeven
p2542
aVbetter
p2543
aV!
asg11
g12
(S'\x07\xe0\x01\x08\x0020\x00\x00\x00'
tRp2544
sg14
Nsg15
VTimGettys
p2545
sa(dp2546
g3
(lp2547
V"
aVclearly
p2548
aVyou
p2549
aVare
p2550
aV,
aVlike
p2551
aV,
aVa
aVdude
p2552
aVthat
p2553
aVworks
p2554
aVout
p2555
aV.
aV"
aV-
aV@fullbright
p2556
aVto
p2557
aV@nick_scarpino
p2558
asg11
g12
(S'\x07\xe0\x01\x08\x002\x14\x00\x00\x00'
tRp2559
sg14
Nsg15
VTimGettys
p2560
sa(dp2561
g3
(lp2562
V@sdinfected
p2563
aV@kindafunnykevin
p2564
aV@_heavyheartxx
p2565
aVmake
p2566
aVsure
p2567
aVyou
p2568
aVdo
p2569
aVjungle
p2570
aVcruise
p2571
aV!
asg11
g12
(S'\x07\xe0\x01\x07\x17\x072\x00\x00\x00'
tRp2572
sg14
Nsg15
VTimGettys
p2573
sa(dp2574
g3
(lp2575
V@sdinfected
p2576
aV@kindafunnykevin
p2577
aVhahaha
p2578
aV&
aVlt
p2579
aV;
aV3
asg11
g12
(S'\x07\xe0\x01\x07\x17\x05.\x00\x00\x00'
tRp2580
sg14
Nsg15
VTimGettys
p2581
sa(dp2582
g3
(lp2583
V@ryansantille
p2584
aV@maximumcortez
p2585
aVfire
p2586
aVemblem
p2587
aVawakening
p2588
asg11
g12
(S'\x07\xe0\x01\x07\x16\x062\x00\x00\x00'
tRp2589
sg14
Nsg15
VTimGettys
p2590
sa(dp2591
g3
(lp2592
V"
aVsometimes
p2593
aVportillo
p2594
aVmakes
p2595
aVpig
p2596
aVnoises
p2597
aV.
aVwhat
p2598
aVdo
p2599
aVyou
p2600
aVcall
p2601
aVthat
p2602
aVsound
p2603
aV?
aVgrunt
p2604
aV?
aVis
p2605
aVit
p2606
aVa
aVcaw
p2607
aV?
aV"
aV-
aV@nick_scarpino
p2608
asg11
g12
(S'\x07\xe0\x01\x07\x16\x05$\x00\x00\x00'
tRp2609
sg14
Nsg15
VTimGettys
p2610
sa(dp2611
g3
(lp2612
Vnintendo
p2613
aV2016
p2614
aVpredictions
p2615
aV.
aVhttps://t.co/bkn4qv2xf7
p2616
aVhttps://t.co/mrkxstp5th
p2617
asg11
g12
(S'\x07\xe0\x01\x07\x16\x02\x1a\x00\x00\x00'
tRp2618
sg14
Nsg15
VTimGettys
p2619
sa(dp2620
g3
(lp2621
V@avipisa
p2622
aV@kindafunnyvids
p2623
aV@gameovergreggy
p2624
aV@notaxation
p2625
aVyes
p2626
aV.
asg11
g12
(S'\x07\xe0\x01\x07\x15\x18\x18\x00\x00\x00'
tRp2627
sg14
Nsg15
VTimGettys
p2628
sa(dp2629
g3
(lp2630
V@tomhawkin5
p2631
aVit
p2632
aVhas
p2633
aVto
p2634
aVbe
p2635
aVme
p2636
aV.
aVback
p2637
aVin
p2638
aVthe
p2639
aVday
p2640
aVi
aVhad
p2641
aVto
p2642
aVhandle
p2643
aVsponsorship
p2644
aVmeetings
p2645
aVduring
p2646
aVthe
p2647
aVshow
p2648
aV.
asg11
g12
(S'\x07\xe0\x01\x07\x14\x1e\x0b\x00\x00\x00'
tRp2649
sg14
Nsg15
VTimGettys
p2650
sa.