(lp1
(dp2
S'text'
p3
(lp4
Vquick
p5
aVlittle
p6
aVribbed
p7
aVcowl
p8
aVof
p9
aVmerino
p10
aVpaca
p11
aVwith
p12
aVhandspun
p13
aVbunny
p14
aVhttps://t.co/wujwrglhzi
p15
asS'created_at'
p16
cdatetime
datetime
p17
(S'\x07\xe0\x01\x18\n\x14\x01\x00\x00\x00'
tRp18
sS'lat/long'
p19
NsS'name'
p20
Vvtknitboy
p21
sa(dp22
g3
(lp23
Vbrrr
p24
aV.
aV-
aV8
aVf
aV.
aVnot
p25
aVwindchill
p26
aV.
aV74
p27
aVinside
p28
aV.
aVwoodstove
p29
aVtoasty
p30
aVhttps://t.co/rb5jg5gqdt
p31
asg16
g17
(S'\x07\xe0\x01\x18\t%\x05\x00\x00\x00'
tRp32
sg19
Nsg20
Vvtknitboy
p33
sa(dp34
g3
(lp35
Vrt
p36
aV@darjeelingtea
p37
aV:
aVwhile
p38
aV#touring
p39
aVa
aVdarjeeling
p40
aV#tea
p41
aVestate
p42
aV,
aVone
p43
aVfinds
p44
aVsuch
p45
aVrocks
p46
aVwhich
p47
aVis
p48
aVperfect
p49
aVto
p50
aVtake
p51
aVrest
p52
aVand
p53
aVmove
p54
aVon
p55
aV.
aVhttps://t.co/jz
p56
aV\u2026
asg16
g17
(S'\x07\xe0\x01\x18\x06\x10*\x00\x00\x00'
tRp57
sg19
Nsg20
Vvtknitboy
p58
sa(dp59
g3
(lp60
V@heatherhal
p61
aV@whats4dinnermom
p62
aV@lunaraven13
p63
aVthink
p64
aVanything
p65
aVwas
p66
aVup
p67
asg16
g17
(S'\x07\xe0\x01\x18\x06\t\x1f\x00\x00\x00'
tRp68
sg19
Nsg20
Vvtknitboy
p69
sa(dp70
g3
(lp71
V@heatherhal
p72
aV@whats4dinnermom
p73
aV@lunaraven13
p74
aVi
aVthought
p75
aVth
p76
aVcough
p77
aVwas
p78
aVstrep
p79
aVit
p80
aVwas
p81
aVgetting
p82
aVnasty
p83
aV.
aVbut
p84
aVi
aVhad
p85
aVa
aVphysical
p86
aVlast
p87
aVweek
p88
aVand
p89
aVshe
p90
aVdidn't
p91
asg16
g17
(S'\x07\xe0\x01\x18\x06\t\x11\x00\x00\x00'
tRp92
sg19
Nsg20
Vvtknitboy
p93
sa(dp94
g3
(lp95
V@heatherhal
p96
aV@whats4dinnermom
p97
aV@lunaraven13
p98
aVe
aVcigs
p99
aVthe
p100
aVsmokeless
p101
aVthings
p102
asg16
g17
(S'\x07\xe0\x01\x18\x06\x07\n\x00\x00\x00'
tRp103
sg19
Nsg20
Vvtknitboy
p104
sa(dp105
g3
(lp106
V@whats4dinnermom
p107
aV@heatherhal
p108
aV@lunaraven13
p109
aVmullein
p110
aVleaf
p111
aVor
p112
aVflower
p113
aV?
asg16
g17
(S'\x07\xe0\x01\x18\x06\x02\x12\x00\x00\x00'
tRp114
sg19
Nsg20
Vvtknitboy
p115
sa(dp116
g3
(lp117
V@whats4dinnermom
p118
aV@lunaraven13
p119
aV@heatherhal
p120
aVin
p121
aVhot
p122
aVwater
p123
aVand
p124
aVthis
p125
aVhttps://t.co/ktlqykrvly
p126
asg16
g17
(S'\x07\xe0\x01\x18\x06\x01 \x00\x00\x00'
tRp127
sg19
Nsg20
Vvtknitboy
p128
sa(dp129
g3
(lp130
V@whats4dinnermom
p131
aV@lunaraven13
p132
aV@heatherhal
p133
aVdoing
p134
aVthis
p135
aV.
aVhttps://t.co/awpfyia1ff
p136
asg16
g17
(S'\x07\xe0\x01\x18\x06\x01\x11\x00\x00\x00'
tRp137
sg19
Nsg20
Vvtknitboy
p138
sa(dp139
g3
(lp140
V@whats4dinnermom
p141
aV@lunaraven13
p142
aV@heatherhal
p143
aVplus
p144
aV,
aVhad
p145
aV.
aVsick
p146
aVbunny
p147
aVwas
p148
aVup
p149
aV36
p150
aVhrs
p151
aV.
aVfinally
p152
aV.
aVsleep
p153
aV.
aVtonight
p154
asg16
g17
(S'\x07\xe0\x01\x18\x056/\x00\x00\x00'
tRp155
sg19
Nsg20
Vvtknitboy
p156
sa(dp157
g3
(lp158
V@whats4dinnermom
p159
aV@lunaraven13
p160
aV@heatherhal
p161
aVso
p162
aVit's
p163
aVa
aVnever
p164
aVending
p165
aV.
aVcycle
p166
aV,
aVso
p167
aVmaybe
p168
aVnot
p169
aVreally
p170
aVa
aVvirus
p171
aV.
aVplus
p172
aVi
aVdon't
p173
aVsleep
p174
aVso
p175
aVhard
p176
aVto
p177
aVrecoup
p178
asg16
g17
(S'\x07\xe0\x01\x18\x056\x01\x00\x00\x00'
tRp179
sg19
Nsg20
Vvtknitboy
p180
sa(dp181
g3
(lp182
V@whats4dinnermom
p183
aV@lunaraven13
p184
aV@heatherhal
p185
aVi've
p186
aVdone
p187
aVall
p188
aVth
p189
aVherbal
p190
aVhome
p191
aVstuff
p192
aV.
aVbut
p193
aVthink
p194
aVth
p195
aVcough
p196
aVstressed
p197
aVth
p198
aVvocal
p199
aVchords
p200
aV/
aVneck
p201
aVmuscles
p202
asg16
g17
(S'\x07\xe0\x01\x18\x055\x10\x00\x00\x00'
tRp203
sg19
Nsg20
Vvtknitboy
p204
sa(dp205
g3
(lp206
V@lunaraven13
p207
aV@heatherhal
p208
aVi've
p209
aVhad
p210
aVthis
p211
aVannoying
p212
aVcough
p213
aVfor
p214
aV4
aVweeks
p215
aVnow
p216
aVcan't
p217
aVget
p218
aVrid
p219
aV.
aVof
p220
aV.
aVthought
p221
aVit
p222
aVwas
p223
aVflu
p224
aVish
p225
aVthen
p226
aVjust
p227
aVcough
p228
asg16
g17
(S'\x07\xe0\x01\x18\x05-\x0b\x00\x00\x00'
tRp229
sg19
Nsg20
Vvtknitboy
p230
sa(dp231
g3
(lp232
V@heatherhal
p233
aV@lunaraven13
p234
aVor
p235
aVjust
p236
aVa
aVmug
p237
aVof
p238
aVfresh
p239
aVginger
p240
aVjuice
p241
aVhoney
p242
aVrosemary
p243
aVhot
p244
aVwater
p245
aVsoothing
p246
aV!
asg16
g17
(S'\x07\xe0\x01\x18\x046\x11\x00\x00\x00'
tRp247
sg19
Nsg20
Vvtknitboy
p248
sa(dp249
g3
(lp250
V@heatherhal
p251
aV@lunaraven13
p252
aVhmmm
p253
aVrosemary
p254
aVthyme
p255
aVhave
p256
aVantibacterial
p257
aVproperties
p258
aV.
aVmore
p259
aVhelpful
p260
asg16
g17
(S'\x07\xe0\x01\x18\x044\x03\x00\x00\x00'
tRp261
sg19
Nsg20
Vvtknitboy
p262
sa(dp263
g3
(lp264
Vrt
p265
aV@mattison
p266
aV:
aVsociopath-in-chief
p267
aV.
aVshades
p268
aVof
p269
aVcheney
p270
aV.
aVhttps://t.co/g6f8fvnjyf
p271
aV#tcot
p272
asg16
g17
(S'\x07\xe0\x01\x17\x140+\x00\x00\x00'
tRp273
sg19
Nsg20
Vvtknitboy
p274
sa(dp275
g3
(lp276
Vrt
p277
aV@mashablenews
p278
aV:
aVsledders
p279
aVhave
p280
aVinvaded
p281
aVcapitol
p282
aVhill
p283
aVhttps://t.co/wy7euocojd
p284
aV(
aV\U0001f4f8
aV:
aV@scottwongdc
p285
aV)
aV#blizzard2016
p286
aVhttps://t.co/gqt8httw0m
p287
asg16
g17
(S'\x07\xe0\x01\x17\x140\x1b\x00\x00\x00'
tRp288
sg19
Nsg20
Vvtknitboy
p289
sa(dp290
g3
(lp291
Vrt
p292
aV@bluedupage
p293
aV:
aVhalf
p294
aVthe
p295
aVforeign
p296
aVpolicy
p297
aVexperts
p298
aVbehind
p299
aVclinton
p300
aV\u2019
aVs
aVanti-sanders
p301
aVletter
p302
aVhave
p303
aVmilitary
p304
aVindustry
p305
aVties
p306
aVhttps://t.co/il1lmnceme
p307
asg16
g17
(S'\x07\xe0\x01\x17\x140\x10\x00\x00\x00'
tRp308
sg19
Nsg20
Vvtknitboy
p309
sa(dp310
g3
(lp311
Vrt
p312
aV@yesmrgilbert
p313
aV:
aV@nbcnightlynews
p314
aVdisgusting
p315
aVarrogance
p316
aV,
aVhis
p317
aVsupport
p318
aVlies
p319
aVin
p320
aVthe
p321
aVuneducated
p322
aVamerican
p323
aVpopulation
p324
asg16
g17
(S'\x07\xe0\x01\x17\x14.;\x00\x00\x00'
tRp325
sg19
Nsg20
Vvtknitboy
p326
sa(dp327
g3
(lp328
V@trumpetite
p329
aVsent
p330
aVu
aVdm
p331
aV.
aVhttps://t.co/oqtkgdd3fx
p332
aVgo
p333
aV.
aVto
p334
aVbed
p335
aV.
aVup
p336
aVall
p337
aVnight
p338
aVwith
p339
aVsick
p340
aVbunny
p341
aV.
aVok
p342
aV.
aVso
p343
aVfar
p344
aV.
aVxoxo
p345
asg16
g17
(S'\x07\xe0\x01\x17\x1387\x00\x00\x00'
tRp346
sg19
Nsg20
Vvtknitboy
p347
sa(dp348
g3
(lp349
V@trumpetite
p350
aVand
p351
aVmuch
p352
aVof
p353
aVtrump's
p354
aVamerica
p355
aV.
aV.
aV.
aVbetter
p356
aVdm
p357
aVu
aVthis
p358
aV.
aV.
aV.
asg16
g17
(S'\x07\xe0\x01\x17\x135)\x00\x00\x00'
tRp359
sg19
Nsg20
Vvtknitboy
p360
sa(dp361
g3
(lp362
V@trumpetite
p363
aVit's
p364
aVjust
p365
aVhard
p366
aVwhen
p367
aVonce
p368
aVu
aVelect
p369
aVsomeone
p370
aVthey
p371
aVgo
p372
aV.
aVto
p373
aV.
aVdc
p374
aVand
p375
aVbecome
p376
aVbeholden
p377
aVto
p378
aVlobbyists
p379
aV.
aVso
p380
aVmuch
p381
aVfor
p382
aVdemocracy
p383
asg16
g17
(S'\x07\xe0\x01\x17\x1344\x00\x00\x00'
tRp384
sg19
Nsg20
Vvtknitboy
p385
sa(dp386
g3
(lp387
V@trumpetite
p388
aVpeople
p389
aVlike
p390
aVme
p391
aVr
aVquite
p392
aVaware
p393
aVof
p394
aVour
p395
aVfaults
p396
aV.
aVlol
p397
aV.
asg16
g17
(S'\x07\xe0\x01\x17\x133(\x00\x00\x00'
tRp398
sg19
Nsg20
Vvtknitboy
p399
sa(dp400
g3
(lp401
V@trumpetite
p402
aVi
aV.
aVget
p403
aVth
p404
aVreligious
p405
aVdistinction
p406
aVlol
p407
aV.
aVsorry
p408
aVabout
p409
aVth
p410
aVoverreaction
p411
aV.
aVi
aVjust
p412
aVget
p413
aVtired
p414
aVof
p415
aVcanadians
p416
aVshitting
p417
aVon
p418
aVamerica
p419
aV.
asg16
g17
(S'\x07\xe0\x01\x17\x133\n\x00\x00\x00'
tRp420
sg19
Nsg20
Vvtknitboy
p421
sa(dp422
g3
(lp423
V@trumpetite
p424
aVwell
p425
aV.
aVthat
p426
aVpart
p427
aVis
p428
aVtrue
p429
aV.
asg16
g17
(S'\x07\xe0\x01\x17\x13-\x02\x00\x00\x00'
tRp430
sg19
Nsg20
Vvtknitboy
p431
sa(dp432
g3
(lp433
V@trumpetite
p434
aVie
p435
aVwould
p436
aVsay
p437
aVharper
p438
aVwas
p439
aVa
aVtotal
p440
aVdouche
p441
aVbag
p442
aV,
aVnot
p443
aVcanadians
p444
aV.
aV.
aV.
asg16
g17
(S'\x07\xe0\x01\x17\x13)9\x00\x00\x00'
tRp445
sg19
Nsg20
Vvtknitboy
p446
sa(dp447
g3
(lp448
V@trumpetite
p449
aVand
p450
aVit's
p451
aVusually
p452
aVnot
p453
aVthe
p454
aVpeople
p455
aV,
aVrather
p456
aVthe
p457
aVpowerful
p458
asg16
g17
(S'\x07\xe0\x01\x17\x13)\x06\x00\x00\x00'
tRp459
sg19
Nsg20
Vvtknitboy
p460
sa(dp461
g3
(lp462
V@trumpetite
p463
aVi
aVtry
p464
aVnot
p465
aVto
p466
aVmake
p467
aVdisparaging
p468
aVremarks
p469
aVabout
p470
aVcountries
p471
aVin
p472
aVgeneral
p473
aVas
p474
aVi
aVhave
p475
aVfriends
p476
aVin
p477
aVmany
p478
aVlands
p479
aV.
asg16
g17
(S'\x07\xe0\x01\x17\x13(\x1a\x00\x00\x00'
tRp480
sg19
Nsg20
Vvtknitboy
p481
sa(dp482
g3
(lp483
V@trumpetite
p484
aVit's
p485
aVnot
p486
aVall
p487
aVamericans
p488
aV.
aV.
aV.
aVand
p489
aVkinda
p490
aVhurtful
p491
aVto
p492
aVthose
p493
aVof
p494
aVus
p495
aVr
aVur
p496
aVfriends
p497
aV.
aV.
aV.
asg16
g17
(S'\x07\xe0\x01\x17\x13&*\x00\x00\x00'
tRp498
sg19
Nsg20
Vvtknitboy
p499
sa(dp500
g3
(lp501
V@trumpetite
p502
aVc'mon
p503
aV,
aVenuf
p504
aVwith
p505
aVthe
p506
aVshitting
p507
aVon
p508
aVamericans
p509
aV.
aVthere's
p510
aVonly
p511
aV30
p512
aV%
aVok
p513
aV,
aV40
p514
aV%
aVwe
p515
aVwant
p516
aVto
p517
aVkick
p518
aVout
p519
aV.
asg16
g17
(S'\x07\xe0\x01\x17\x13$\x00\x00\x00\x00'
tRp520
sg19
Nsg20
Vvtknitboy
p521
sa(dp522
g3
(lp523
V@kimu
p524
aVhttps://t.co/uz4zghkbfm
p525
asg16
g17
(S'\x07\xe0\x01\x17\x12\x1f\x10\x00\x00\x00'
tRp526
sg19
Nsg20
Vvtknitboy
p527
sa(dp528
g3
(lp529
V@kimu
p530
aVcan
p531
aValso
p532
aVget
p533
aVa
aVlb
p534
aVof
p535
aVit
p536
aVlooseleaf
p537
aVonline
p538
aV.
aV1
aV/
aV8
aVth
p539
aVcost
p540
aV/
aVbag
p541
asg16
g17
(S'\x07\xe0\x01\x17\x12\x0c\x0e\x00\x00\x00'
tRp542
sg19
Nsg20
Vvtknitboy
p543
sa(dp544
g3
(lp545
V@kimu
p546
aVu
aVgotta
p547
aVtry
p548
aVthis
p549
aVhttps://t.co/ue4lgkc0ho
p550
asg16
g17
(S'\x07\xe0\x01\x17\x12\x0b\x02\x00\x00\x00'
tRp551
sg19
Nsg20
Vvtknitboy
p552
sa(dp553
g3
(lp554
V@kimu
p555
aVahhhh
p556
aV!
aVtisanes
p557
aV!
asg16
g17
(S'\x07\xe0\x01\x17\x12\n\x07\x00\x00\x00'
tRp558
sg19
Nsg20
Vvtknitboy
p559
sa(dp560
g3
(lp561
V@kimu
p562
aVwhat
p563
aVabout
p564
aVe
aV?
aV!
asg16
g17
(S'\x07\xe0\x01\x17\x12\t\x1a\x00\x00\x00'
tRp565
sg19
Nsg20
Vvtknitboy
p566
sa(dp567
g3
(lp568
V@kimu
p569
aVhot
p570
aVchocolate
p571
aVday
p572
aV?
aV!
asg16
g17
(S'\x07\xe0\x01\x17\x12\x08%\x00\x00\x00'
tRp573
sg19
Nsg20
Vvtknitboy
p574
sa(dp575
g3
(lp576
Vrt
p577
aV@politicususa
p578
aV:
aVted
p579
aVcruz
p580
aVbusted
p581
aVfor
p582
aVlying
p583
aVabout
p584
aVnot
p585
aVhaving
p586
aVhealth
p587
aVinsurance
p588
aVhttps://t.co/vrjt3w1xwe
p589
aVvia
p590
aV@politicususa
p591
aV#p2
p592
aV#p2b
p593
aV#ctl
p594
asg16
g17
(S'\x07\xe0\x01\x17\x11\x0c!\x00\x00\x00'
tRp595
sg19
Nsg20
Vvtknitboy
p596
sa(dp597
g3
(lp598
Vrt
p599
aV@citystitchette
p600
aV:
aVa
aVbit
p601
aVof
p602
aVa
aVwhiteout
p603
aVat
p604
aVtimes
p605
aV,
aVbut
p606
aVwe
p607
aVenjoyed
p608
aVour
p609
aVsnowy
p610
aVwalk
p611
aV.
aV#centralpark
p612
aV#snowmaggedon2016
p613
aVhttps://t.co/n2ti41xj4z
p614
asg16
g17
(S'\x07\xe0\x01\x17\x11\x036\x00\x00\x00'
tRp615
sg19
Nsg20
Vvtknitboy
p616
sa(dp617
g3
(lp618
Vtigger
p619
aVenjoying
p620
aVa
aV74
p621
aVdegree
p622
aVsunny
p623
aVroom
p624
aV(
aVwoodstove
p625
aVgoing
p626
aV)
aV.
aVwas
p627
aV-
aV3
aVf
aVoutside
p628
aVthis
p629
aVmorning
p630
aV.
aV+
aV5
aVnow
p631
aVhttps://t.co/rxqqlxxxsf
p632
asg16
g17
(S'\x07\xe0\x01\x17\x10(%\x00\x00\x00'
tRp633
sg19
Nsg20
Vvtknitboy
p634
sa(dp635
g3
(lp636
V@kimu
p637
aVwhat
p638
aVdid
p639
aVu
aVguys
p640
aVdo
p641
aVtoday
p642
aV?
aV!
asg16
g17
(S'\x07\xe0\x01\x17\x10\x1a\x13\x00\x00\x00'
tRp643
sg19
Nsg20
Vvtknitboy
p644
sa(dp645
g3
(lp646
Vrt
p647
aV@nationalzoo
p648
aV:
aVtian
p649
aVtian
p650
aVwoke
p651
aVup
p652
aVthis
p653
aVmorning
p654
aVto
p655
aVa
aVlot
p656
aVof
p657
aVsnow
p658
aV,
aVand
p659
aVhe
p660
aVwas
p661
aVpretty
p662
aVexcited
p663
aVabout
p664
aVit
p665
aV.
aV\U0001f43c
aV\U0001f328
aV#blizzard2016
p666
aVhttps://t.co/grhi9t1
p667
aV\u2026
asg16
g17
(S'\x07\xe0\x01\x17\x10\x17 \x00\x00\x00'
tRp668
sg19
Nsg20
Vvtknitboy
p669
sa(dp670
g3
(lp671
V@druchunas
p672
aV@michaelpagewx
p673
aVhttps://t.co/bxirkropvl
p674
asg16
g17
(S'\x07\xe0\x01\x17\x0c8\x1e\x00\x00\x00'
tRp675
sg19
Nsg20
Vvtknitboy
p676
sa(dp677
g3
(lp678
V@druchunas
p679
aVlol
p680
aV.
aVno
p681
aVdriving
p682
aVto
p683
aVli
p684
aVtil
p685
aVsunday
p686
aV!
asg16
g17
(S'\x07\xe0\x01\x17\x0c8\x04\x00\x00\x00'
tRp687
sg19
Nsg20
Vvtknitboy
p688
sa(dp689
g3
(lp690
V@danriversitv
p691
aVc
aVor
p692
aVf
aV?
asg16
g17
(S'\x07\xe0\x01\x17\x0c\n\x1b\x00\x00\x00'
tRp693
sg19
Nsg20
Vvtknitboy
p694
sa(dp695
g3
(lp696
Vrt
p697
aV@cnnbrk
p698
aV:
aVstorm
p699
aVcauses
p700
aV35
p701
aV-
aVmile
p702
aVbackup
p703
aVon
p704
aVsouthbound
p705
aVi
aV-
aV75
p706
aVin
p707
aVkentucky
p708
aV,
aVstate
p709
aVtrooper
p710
aVtold
p711
aVcnn
p712
aV.
aVhttps://t.co/yapguvrooe
p713
aVhttps://t.co/3bxfqi
p714
aV\u2026
asg16
g17
(S'\x07\xe0\x01\x17\x0b,\r\x00\x00\x00'
tRp715
sg19
Nsg20
Vvtknitboy
p716
sa(dp717
g3
(lp718
V@edencottage
p719
aV@edinyarnfest
p720
aVahh
p721
aV.
aVjust
p722
aVmeant
p723
aVthat
p724
aVthe
p725
aV@
aVand
p726
aVmidwinter
p727
aVas
p728
aVa
aVtwitter
p729
aVhandle
p730
aVis
p731
aV.
aVtaken
p732
aVas
p733
aVa
aVmovie
p734
aVstudio
p735
aVin
p736
aVcalifornia
p737
asg16
g17
(S'\x07\xe0\x01\x17\x0b\x15\x1e\x00\x00\x00'
tRp738
sg19
Nsg20
Vvtknitboy
p739
sa(dp740
g3
(lp741
Vrt
p742
aV@shibaguyz
p743
aV:
aVno
p744
aVmore
p745
aVwonky
p746
aV#crochet
p747
aVedges
p748
aVwith
p749
aVthis
p750
aVsimple
p751
aVtechnique
p752
aV:
aVhttps://t.co/m9so7grz00
p753
aVhttps://t.co/yrpdngkiy8
p754
asg16
g17
(S'\x07\xe0\x01\x17\t97\x00\x00\x00'
tRp755
sg19
Nsg20
Vvtknitboy
p756
sa(dp757
g3
(lp758
Vrt
p759
aV@mahamosa
p760
aV:
aVhow
p761
aVand
p762
aVwhen
p763
aVto
p764
aVvote
p765
aVfor
p766
aVbernie
p767
aV(
aVby
p768
aVstate
p769
aV)
aVhttps://t.co/k7qiom9d7z
p770
aV#wearebernie
p771
aV#iowa
p772
aV#southcarolina
p773
aV#nevada
p774
aV#nh
p775
aVhttps://t
p776
aV\u2026
asg16
g17
(S"\x07\xe0\x01\x17\t('\x00\x00\x00"
tRp777
sg19
Nsg20
Vvtknitboy
p778
sa(dp779
g3
(lp780
Vrt
p781
aV@euobs
p782
aV:
aV#denmark
p783
aVto
p784
aVseize
p785
aVanything
p786
aVworth
p787
aVmore
p788
aVthan
p789
aV\u20ac
aV1,340,
p790
aVincluding
p791
aVcash
p792
aV,
aVfrom
p793
aV#refugees
p794
aV.
aVhttps://t.co/ddjeliyq66
p795
asg16
g17
(S'\x07\xe0\x01\x17\t(\x1d\x00\x00\x00'
tRp796
sg19
Nsg20
Vvtknitboy
p797
sa(dp798
g3
(lp799
V@edinyarnfest
p800
aV@edencottage
p801
aVwho
p802
aVis
p803
aVhe
p804
aV?
aV!
aV@
aVmidwinter
p805
aVis
p806
aVa
aVstudio
p807
aVin
p808
aVsanta
p809
aVmonica
p810
aVca
p811
asg16
g17
(S'\x07\xe0\x01\x17\t\x15,\x00\x00\x00'
tRp812
sg19
Nsg20
Vvtknitboy
p813
sa(dp814
g3
(lp815
Vrt
p816
aV@tommessner
p817
aV:
aVa
aVfew
p818
aVsnow
p819
aVamounts
p820
aVfrom
p821
aVthe
p822
aVhuge
p823
aVstorm
p824
aV.
aVit
p825
aVis
p826
aVvery
p827
aVearly
p828
aVin
p829
aVthe
p830
aVgame
p831
aV.
aVhttps://t.co/jrgjnzga2n
p832
asg16
g17
(S'\x07\xe0\x01\x17\x03\x1f6\x00\x00\x00'
tRp833
sg19
Nsg20
Vvtknitboy
p834
sa(dp835
g3
(lp836
Vrt
p837
aV@wcax
p838
aV:
aV#vt
p839
aVutilities
p840
aVhead
p841
aVsouth
p842
aVto
p843
aVhelp
p844
aVwith
p845
aVstorm
p846
aVoutages
p847
aVhttps://t.co/pdu8tqymsk
p848
aVhttps://t.co/bmoogxc512
p849
asg16
g17
(S'\x07\xe0\x01\x17\x03\n1\x00\x00\x00'
tRp850
sg19
Nsg20
Vvtknitboy
p851
sa(dp852
g3
(lp853
Vrt
p854
aV@cirincione
p855
aV:
aVi
aVlike
p856
aVhillary
p857
aV.
aVbut
p858
aVthis
p859
aVattack
p860
aVon
p861
aVbernie
p862
aVfor
p863
aVhis
p864
aVcommon
p865
aVsense
p866
aVdiplomacy
p867
aVwith
p868
aViran
p869
aVis
p870
aVugly
p871
aV&
aVamp
p872
aV;
aVdishonest
p873
aV.
aVhttps://t.co/1mgqvw
p874
aV\u2026
asg16
g17
(S'\x07\xe0\x01\x17\x03\x005\x00\x00\x00'
tRp875
sg19
Nsg20
Vvtknitboy
p876
sa(dp877
g3
(lp878
Vrt
p879
aV@cnn
p880
aV:
aVas
p881
aVsnow
p882
aVfalls
p883
aV,
aV@the_old_guard
p884
aVstands
p885
aVwatch
p886
aVat
p887
aVthe
p888
aVtomb
p889
aVof
p890
aVthe
p891
aVunknown
p892
aVsoldier
p893
aVhttps://t.co/az2vpihmdk
p894
aV#blizzard2016
p895
aVhttps://t.co/1
p896
aV\u2026
asg16
g17
(S'\x07\xe0\x01\x17\x02;.\x00\x00\x00'
tRp897
sg19
Nsg20
Vvtknitboy
p898
sa(dp899
g3
(lp900
Vrt
p901
aV@patbagley
p902
aV:
aVall
p903
aVthese
p904
aVpeople
p905
aVyelling
p906
aVthat
p907
aVsocialist
p908
aVbernie
p909
aVsanders
p910
aVwants
p911
aVto
p912
aVtake
p913
aVtheir
p914
aVstuff
p915
aVwhile
p916
aVwall
p917
aVst
p918
aV.
aVschemes
p919
aVto
p920
aVdo
p921
aVjust
p922
aVthat
p923
aV.
asg16
g17
(S'\x07\xe0\x01\x17\x02;\x1d\x00\x00\x00'
tRp924
sg19
Nsg20
Vvtknitboy
p925
sa(dp926
g3
(lp927
V@kimu
p928
aVno
p929
aVway
p930
aV!
aVwhat
p931
aVdo
p932
aVyou
p933
aVdo
p934
aVthere
p935
aV?
aV!
aVcool
p936
asg16
g17
(S'\x07\xe0\x01\x17\x01:"\x00\x00\x00'
tRp937
sg19
Nsg20
Vvtknitboy
p938
sa(dp939
g3
(lp940
V@kimu
p941
aVwhat
p942
aVsection
p943
aVdo
p944
aVu
aVlive
p945
aVin
p946
aV?
asg16
g17
(S'\x07\xe0\x01\x17\x01,\x0e\x00\x00\x00'
tRp947
sg19
Nsg20
Vvtknitboy
p948
sa(dp949
g3
(lp950
V@kimu
p951
aVdid
p952
aVi
aVtell
p953
aVu
aVmy
p954
aVhubby
p955
aVwent
p956
aVto
p957
aVvandy
p958
aV?
aV!
aV'
aV82
p959
asg16
g17
(S'\x07\xe0\x01\x17\x01+0\x00\x00\x00'
tRp960
sg19
Nsg20
Vvtknitboy
p961
sa(dp962
g3
(lp963
Vwoah
p964
aV!
aV10
p965
aV"
aVin
p966
aVnashville
p967
aV?
aV!
aV@kimu
p968
asg16
g17
(S"\x07\xe0\x01\x17\x01'\x15\x00\x00\x00"
tRp969
sg19
Nsg20
Vvtknitboy
p970
sa(dp971
g3
(lp972
Vwell
p973
aV,
aVchessie
p974
aVis
p975
aVacting
p976
aVpoorly
p977
aVagain
p978
aV.
aVhe
p979
aVpulled
p980
aVthru
p981
aVfrom
p982
aV2
aVweeks
p983
aVago
p984
aV,
aVbut
p985
aVhe's
p986
aVacting
p987
aVquite
p988
aVlethargic
p989
aVagain
p990
aV.
aVpreparing
p991
aVmyself
p992
aV.
asg16
g17
(S'\x07\xe0\x01\x17\x004\x0e\x00\x00\x00'
tRp993
sg19
Nsg20
Vvtknitboy
p994
sa(dp995
g3
(lp996
V@organicgay
p997
aVlol
p998
aVi
aVdon't
p999
aVcap
p1000
aVany
p1001
aVgod
p1002
aV/
aVdess
p1003
asg16
g17
(S"\x07\xe0\x01\x16\x17\x15'\x00\x00\x00"
tRp1004
sg19
Nsg20
Vvtknitboy
p1005
sa(dp1006
g3
(lp1007
Vand
p1008
aVthe
p1009
aVcloak
p1010
aVof
p1011
aVthe
p1012
aVgoddess
p1013
aVswoops
p1014
aVover
p1015
aVthe
p1016
aVevil
p1017
aVcity
p1018
aV.
aV.
aV.
aVhttps://t.co/fmw9rv1ryt
p1019
asg16
g17
(S'\x07\xe0\x01\x16\x11\x040\x00\x00\x00'
tRp1020
sg19
Nsg20
Vvtknitboy
p1021
sa(dp1022
g3
(lp1023
Vrt
p1024
aV@watchdogsniffer
p1025
aV:
aVhillary
p1026
aVclinton
p1027
aV-
aVignores
p1028
aVthe
p1029
aVfact
p1030
aVobamacare
p1031
aV(
aVprivate
p1032
aVhealth
p1033
aVinsurance
p1034
aV)
aVremains
p1035
aVunaffordable
p1036
aVfor
p1037
aV30
p1038
aV+
aVmillion
p1039
aVamericans
p1040
aV.
aV\u2026
asg16
g17
(S'\x07\xe0\x01\x16\x10#/\x00\x00\x00'
tRp1041
sg19
Nsg20
Vvtknitboy
p1042
sa(dp1043
g3
(lp1044
Vrt
p1045
aV@philiptortora
p1046
aV:
aVoscar
p1047
aVnominee
p1048
aVcharlotte
p1049
aVrampling
p1050
aV:
aVdiversity
p1051
aVoutcry
p1052
aVis
p1053
aV'
aVracist
p1054
aVto
p1055
aVwhites
p1056
aV'
aVhttps://t.co/bzzpzv1nsd
p1057
aVvia
p1058
aV@usatoday
p1059
asg16
g17
(S'\x07\xe0\x01\x16\x10#\x16\x00\x00\x00'
tRp1060
sg19
Nsg20
Vvtknitboy
p1061
sa(dp1062
g3
(lp1063
Vrt
p1064
aV@shibaguyz
p1065
aV:
aVlearn
p1066
aVflawless
p1067
aV#crochet
p1068
aVfinishing
p1069
aVwith
p1070
aVour
p1071
aVspecial
p1072
aVend
p1073
aVcap
p1074
aVfinishing
p1075
aVstitch
p1076
aVhttps://t.co/m0kwea9sjc
p1077
aVhttps://t.co/whswmhtwcd
p1078
asg16
g17
(S'\x07\xe0\x01\x16\x10#\t\x00\x00\x00'
tRp1079
sg19
Nsg20
Vvtknitboy
p1080
sa(dp1081
g3
(lp1082
Vrt
p1083
aV@igorvolsky
p1084
aV:
aVtweeted
p1085
aVby
p1086
aVcongresswoman
p1087
aVwho
p1088
aVsupported
p1089
aVbudget
p1090
aVthat
p1091
aVwould
p1092
aVcut
p1093
aVfood
p1094
aVstamps
p1095
aVby
p1096
aV34
p1097
aV%
aVhttps://t.co/0i5gorbd8b
p1098
aVhttps://t.co/jkhgi3
p1099
aV\u2026
asg16
g17
(S'\x07\xe0\x01\x16\x10"\t\x00\x00\x00'
tRp1100
sg19
Nsg20
Vvtknitboy
p1101
sa(dp1102
g3
(lp1103
Vrt
p1104
aV@watchdogsniffer
p1105
aV:
aVhillary
p1106
aVclinton
p1107
aV-
aVagainst
p1108
aVthe
p1109
aV#fightfor15
p1110
aV-
aVbut
p1111
aVinstead
p1112
aVsupports
p1113
aV$
aV12
p1114
aVan
p1115
aVhour
p1116
aVas
p1117
aVenough
p1118
aVfor
p1119
aVthe
p1120
aVeveryday
p1121
aVamerican
p1122
aV.
aV#ou
p1123
aV\u2026
asg16
g17
(S'\x07\xe0\x01\x16\x10 \x19\x00\x00\x00'
tRp1124
sg19
Nsg20
Vvtknitboy
p1125
sa(dp1126
g3
(lp1127
Vrt
p1128
aV@franklinhabit
p1129
aV:
aVit's
p1130
aVfriday
p1131
aV,
aVand
p1132
aVit's
p1133
aVa
aVfridays
p1134
aVwith
p1135
aVfranklin
p1136
aVfriday
p1137
aV.
aVhttps://t.co/krhbbduzoq
p1138
asg16
g17
(S'\x07\xe0\x01\x16\x10 \x04\x00\x00\x00'
tRp1139
sg19
Nsg20
Vvtknitboy
p1140
sa(dp1141
g3
(lp1142
Vrt
p1143
aV@urbanbohemian
p1144
aV:
aVand
p1145
aVpossibly
p1146
aVmichael
p1147
aVcaine
p1148
aV\u2019
aVs
aVas
p1149
aVwell
p1150
aV.
aVhttps://t.co/gn3chtzd2y
p1151
asg16
g17
(S'\x07\xe0\x01\x16\x10\x1f\x11\x00\x00\x00'
tRp1152
sg19
Nsg20
Vvtknitboy
p1153
sa(dp1154
g3
(lp1155
Vrt
p1156
aV@watchdogsniffer
p1157
aV:
aVhillary
p1158
aVclinton
p1159
aV-
aVat
p1160
aVa
aVtime
p1161
aVwhen
p1162
aVthe
p1163
aV#tbtf
p1164
aVbanks
p1165
aVare
p1166
aVstill
p1167
aVinvolved
p1168
aVin
p1169
aVrisky
p1170
aVderivatives
p1171
aV-
aVwill
p1172
aVnot
p1173
aVsupport
p1174
aVreinstatin
p1175
aV\u2026
asg16
g17
(S'\x07\xe0\x01\x16\x10\x1f\x08\x00\x00\x00'
tRp1176
sg19
Nsg20
Vvtknitboy
p1177
sa(dp1178
g3
(lp1179
Vrt
p1180
aV@mattison
p1181
aV:
aV#flintwatercrisis
p1182
aVexemplifies
p1183
aVrepublican
p1184
aVanti-science
p1185
aV,
aVprofit
p1186
aVat
p1187
aVany
p1188
aVcost
p1189
aVideology
p1190
aV.
aVit
p1191
aVis
p1192
aVimmoral
p1193
aV.
aVhttps://t.co/xl8gstfzx7
p1194
aV#
aVt
aV\u2026
asg16
g17
(S'\x07\xe0\x01\x16\x10\x1e:\x00\x00\x00'
tRp1195
sg19
Nsg20
Vvtknitboy
p1196
sa(dp1197
g3
(lp1198
Vrt
p1199
aV@igorvolsky
p1200
aV:
aVevery
p1201
aVlife
p1202
aVprecious
p1203
aVexcept
p1204
aVfor
p1205
aV17.6
p1206
aVm
aVuninsured
p1207
aVwho've
p1208
aVgained
p1209
aVhealth
p1210
aVcoverage
p1211
aVthrough
p1212
aVobamacare
p1213
aVlaw
p1214
aVu
aVwant
p1215
aVto
p1216
aVrepeal
p1217
aVhttps
p1218
aV:/
p1219
aV\u2026
asg16
g17
(S'\x07\xe0\x01\x16\x10\x1e%\x00\x00\x00'
tRp1220
sg19
Nsg20
Vvtknitboy
p1221
sa(dp1222
g3
(lp1223
V@urbanbohemian
p1224
aVreally
p1225
aV.
aVi
aVwas
p1226
aVlike
p1227
aV.
aVwtfc
p1228
asg16
g17
(S'\x07\xe0\x01\x16\x10\x17\x08\x00\x00\x00'
tRp1229
sg19
Nsg20
Vvtknitboy
p1230
sa(dp1231
g3
(lp1232
Vrt
p1233
aV@urbanbohemian
p1234
aV:
aVso
p1235
aV\u2026
aVis
p1236
aVthe
p1237
aVnew
p1238
aVthing
p1239
aVgonna
p1240
aVbe
p1241
aVasking
p1242
aVold
p1243
aVwhite
p1244
aVactors
p1245
aVtheir
p1246
aVthoughts
p1247
aVon
p1248
aVthe
p1249
aVacademy
p1250
aV&
aVamp
p1251
aV;
aVindustry
p1252
aV\u2019
aVs
aVlack
p1253
aVof
p1254
aVdiversity
p1255
aV/
aVrepre
p1256
aV\u2026
asg16
g17
(S'\x07\xe0\x01\x16\x10\x16&\x00\x00\x00'
tRp1257
sg19
Nsg20
Vvtknitboy
p1258
sa(dp1259
g3
(lp1260
V@romidesigns
p1261
aV@jellidonut
p1262
aVno
p1263
aVway
p1264
aV!
aVu
aVmet
p1265
aV?
aV!
aV!
aV!
asg16
g17
(S'\x07\xe0\x01\x16\x10\x141\x00\x00\x00'
tRp1266
sg19
Nsg20
Vvtknitboy
p1267
sa(dp1268
g3
(lp1269
V.
aV@jimcantore
p1270
aVget
p1271
aVbuffalo
p1272
aVbison
p1273
aVsocks
p1274
aVfrom
p1275
aVmy
p1276
aV.
aVfriends
p1277
aVat
p1278
aV@buffalowoolco
p1279
aVron
p1280
aV:
aVjim
p1281
aVis
p1282
aVbig
p1283
aVguy
p1284
aVon
p1285
aVthe
p1286
aVweather
p1287
aVchannel
p1288
aV!
aV!
aV!
asg16
g17
(S'\x07\xe0\x01\x16\x10\x0f\x16\x00\x00\x00'
tRp1289
sg19
Nsg20
Vvtknitboy
p1290
sa(dp1291
g3
(lp1292
Vrt
p1293
aV@thetaskforce
p1294
aV:
aVmissed
p1295
aVlast
p1296
aVnight's
p1297
aV"
aVblack
p1298
aVfeminism
p1299
aV&
aVamp
p1300
aV;
aVmovement
p1301
aVfor
p1302
aVblack
p1303
aVlives
p1304
aV"
aVpanel
p1305
aV?
aVview
p1306
aVit
p1307
aVhere
p1308
aV:
aVhttps://t.co/xl7mpyinn6
p1309
aV#cc16
p1310
aVhttps
p1311
aV\u2026
asg16
g17
(S'\x07\xe0\x01\x16\x10\x0c\x05\x00\x00\x00'
tRp1312
sg19
Nsg20
Vvtknitboy
p1313
sa(dp1314
g3
(lp1315
Vwhat
p1316
aVa
aVhypocrite
p1317
aV.
aVdefending
p1318
aVthe
p1319
aVindefensible
p1320
aV.
aV@berniesanders
p1321
aV#feelthebern
p1322
aVhttps://t.co/ixpqljycbz
p1323
asg16
g17
(S'\x07\xe0\x01\x16\x10\x0b\x1a\x00\x00\x00'
tRp1324
sg19
Nsg20
Vvtknitboy
p1325
sa(dp1326
g3
(lp1327
V@urbanbohemian
p1328
aVwas
p1329
aVjust
p1330
aVlol-ing
p1331
aVgood
p1332
aVhumorously
p1333
asg16
g17
(S'\x07\xe0\x01\x16\x10\x08\x16\x00\x00\x00'
tRp1334
sg19
Nsg20
Vvtknitboy
p1335
sa(dp1336
g3
(lp1337
V@urbanbohemian
p1338
aVlol
p1339
aV.
aVi
aVdidn't
p1340
aVsay
p1341
aVit
p1342
aVwas
p1343
aVsilly
p1344
aV.
aVi
aVlove
p1345
aVit
p1346
aVlpl
p1347
asg16
g17
(S'\x07\xe0\x01\x16\x10\x06+\x00\x00\x00'
tRp1348
sg19
Nsg20
Vvtknitboy
p1349
sa(dp1350
g3
(lp1351
V@urbanbohemian
p1352
aVdo
p1353
aVlike
p1354
aVone
p1355
aVan
p1356
aVhour
p1357
aVat
p1358
aVthe
p1359
aVsame
p1360
aVspot
p1361
aVfor
p1362
aVsnow
p1363
aVtime
p1364
aVlapse
p1365
aV.
aVlol
p1366
asg16
g17
(S'\x07\xe0\x01\x16\x0f0.\x00\x00\x00'
tRp1367
sg19
Nsg20
Vvtknitboy
p1368
sa(dp1369
g3
(lp1370
Vrt
p1371
aV@chicagotribune
p1372
aV:
aVmichael
p1373
aVmoore
p1374
aV:
aV"
aVit's
p1375
aVnot
p1376
aVjust
p1377
aVa
aVwater
p1378
aVcrisis
p1379
aV.
aVit's
p1380
aVa
aVracial
p1381
aVcrisis
p1382
aV.
aVit's
p1383
aVa
aVpoverty
p1384
aVcrisis
p1385
aV.
aV"
aVhttps://t.co/fqyzuznu6z
p1386
aVhtt
p1387
aV\u2026
asg16
g17
(S'\x07\xe0\x01\x16\x0f+\x06\x00\x00\x00'
tRp1388
sg19
Nsg20
Vvtknitboy
p1389
sa(dp1390
g3
(lp1391
Vrt
p1392
aV@nerdytogether
p1393
aV:
aVhorrible
p1394
aV.
aVhow
p1395
aVdoes
p1396
aVa
aVname
p1397
aVaffect
p1398
aVthe
p1399
aVsport
p1400
aVin
p1401
aVany
p1402
aVway
p1403
aV?
aVchange
p1404
aVit
p1405
aVand
p1406
aVstop
p1407
aVbeing
p1408
aVracist
p1409
aV.
aV\U0001f622
aV\U0001f622
aV\U0001f622
aV\U0001f622
aV\U0001f622
aVhttps://t.co/8xpcmzzxv2
p1410
asg16
g17
(S'\x07\xe0\x01\x16\x0f\x1e\x13\x00\x00\x00'
tRp1411
sg19
Nsg20
Vvtknitboy
p1412
sa(dp1413
g3
(lp1414
Vrt
p1415
aV@treyyingst
p1416
aV:
aVgrocery
p1417
aVstores
p1418
aVin
p1419
aVdc
p1420
aVhave
p1421
aVlines
p1422
aVthat
p1423
aVare
p1424
aV30
p1425
aV+
aVpeople
p1426
aVlong
p1427
aV#blizzard2016
p1428
aVhttps://t.co/0ugb3zxv21
p1429
asg16
g17
(S'\x07\xe0\x01\x16\x0f\x17)\x00\x00\x00'
tRp1430
sg19
Nsg20
Vvtknitboy
p1431
sa(dp1432
g3
(lp1433
Vrt
p1434
aV@katrinanation
p1435
aV:
aVclinton
p1436
aVknocks
p1437
aVsanders
p1438
aVon
p1439
aVforeign
p1440
aVpolicy
p1441
aVexperience
p1442
aV-
aV-
aVbut
p1443
aVwhat's
p1444
aVexperience
p1445
aVif
p1446
aVleads
p1447
aVto
p1448
aVpoor
p1449
aVjudgment
p1450
aV/
aVwrong
p1451
aVlessons--htt
p1452
aV\u2026
asg16
g17
(S'\x07\xe0\x01\x16\x0f\x152\x00\x00\x00'
tRp1453
sg19
Nsg20
Vvtknitboy
p1454
sa(dp1455
g3
(lp1456
Vrt
p1457
aV@pdaclimate
p1458
aV:
aVhillary
p1459
aVclinton
p1460
aVrakes
p1461
aVin
p1462
aVmoney
p1463
aVfrom
p1464
aVfossil
p1465
aVfuel
p1466
aVinterests
p1467
aVhttps://t.co/fpgkthqn1d
p1468
asg16
g17
(S'\x07\xe0\x01\x16\x0f\x15\x1e\x00\x00\x00'
tRp1469
sg19
Nsg20
Vvtknitboy
p1470
sa(dp1471
g3
(lp1472
Vrt
p1473
aV@igorvolsky
p1474
aV:
aVgop
p1475
aVafter
p1476
aV'
aV08
p1477
aVloss
p1478
aV:
aVwe
p1479
aVmust
p1480
aVappeal
p1481
aVto
p1482
aVnew
p1483
aVdemographic
p1484
aVgroups
p1485
aVgop
p1486
aVafter
p1487
aV'
aV12
p1488
aVloss
p1489
aV:
aVwe
p1490
aVmust
p1491
aVappeal
p1492
aVto
p1493
aVnew
p1494
aVdemographic
p1495
aVgop
p1496
aVin
p1497
aV\u2026
asg16
g17
(S'\x07\xe0\x01\x16\x0f\x15\x0e\x00\x00\x00'
tRp1498
sg19
Nsg20
Vvtknitboy
p1499
sa(dp1500
g3
(lp1501
V@latimes
p1502
aVwhile
p1503
aVhe
p1504
aVwas
p1505
aVdrunk
p1506
aV.
aV.
aV.
asg16
g17
(S'\x07\xe0\x01\x16\x0e6\t\x00\x00\x00'
tRp1507
sg19
Nsg20
Vvtknitboy
p1508
sa(dp1509
g3
(lp1510
V@kimu
p1511
aVis
p1512
aVe
aVexcited
p1513
aV?
aV!
aVsnow
p1514
aVday
p1515
aVplans
p1516
aV?
asg16
g17
(S'\x07\xe0\x01\x16\x0e-\x1f\x00\x00\x00'
tRp1517
sg19
Nsg20
Vvtknitboy
p1518
sa(dp1519
g3
(lp1520
Vrt
p1521
aV@latentexistence
p1522
aV:
aV"
aVspecifically
p1523
aVdirected
p1524
aVto
p1525
aVexclude
p1526
aVthe
p1527
aVrey
p1528
aVcharacter
p1529
aVfrom
p1530
aVall
p1531
aVstar
p1532
aVwars-related
p1533
aVmerchandise
p1534
aV"
aVhttps://t.co/f06fjwbrq5
p1535
aVht
p1536
aV\u2026
asg16
g17
(S'\x07\xe0\x01\x16\x0e%\x1f\x00\x00\x00'
tRp1537
sg19
Nsg20
Vvtknitboy
p1538
sa(dp1539
g3
(lp1540
V.
aV@kimu
p1541
aVhttps://t.co/w5alz6dqec
p1542
asg16
g17
(S'\x07\xe0\x01\x16\x0e$5\x00\x00\x00'
tRp1543
sg19
Nsg20
Vvtknitboy
p1544
sa(dp1545
g3
(lp1546
Vrt
p1547
aV@jvplive
p1548
aV:
aVwhy
p1549
aVwe
p1550
aVneed
p1551
aVto
p1552
aVfight
p1553
aVfor
p1554
aV#bds
p1555
aVand
p1556
aVrally
p1557
aVagainst
p1558
aVupcoming
p1559
aVlegislation
p1560
aVtrying
p1561
aVto
p1562
aVblock
p1563
aVit
p1564
aV.
aV#bds
p1565
aVyes
p1566
aV.
aVhttps://t.co/yyr8pxziqw
p1567
asg16
g17
(S'\x07\xe0\x01\x16\x0e$\x02\x00\x00\x00'
tRp1568
sg19
Nsg20
Vvtknitboy
p1569
sa(dp1570
g3
(lp1571
Vrt
p1572
aV@kyle_feldscher
p1573
aV:
aVno
p1574
aVjoke
p1575
aV,
aVthe
p1576
aVentire
p1577
aVfirst
p1578
aVemail
p1579
aVreleased
p1580
aVby
p1581
aVmichigan
p1582
aVgov
p1583
aV.
aVrick
p1584
aVsnyder
p1585
aVis
p1586
aVredacted
p1587
aV.
aVhttps://t.co/rzpif77uet
p1588
asg16
g17
(S'\x07\xe0\x01\x16\x0e#,\x00\x00\x00'
tRp1589
sg19
Nsg20
Vvtknitboy
p1590
sa(dp1591
g3
(lp1592
Vrt
p1593
aV@bluedupage
p1594
aV:
aVclinton
p1595
aVin
p1596
aV2008
p1597
aV:
aV\u201c
aVsince
p1598
aVwhen
p1599
aVdemocrats
p1600
aVattack
p1601
aVone
p1602
aVanother
p1603
aVon
p1604
aVuniversal
p1605
aVhealth
p1606
aVcare
p1607
aV?
aV\u201d
aVhttps://t.co/fpok2uqlnv
p1608
aVhttps://t.co/
p1609
aV\u2026
asg16
g17
(S'\x07\xe0\x01\x16\x0e\t\x16\x00\x00\x00'
tRp1610
sg19
Nsg20
Vvtknitboy
p1611
sa(dp1612
g3
(lp1613
Vwow
p1614
aV.
aVeye-opening
p1615
aVarticle
p1616
aVon
p1617
aVhillary's
p1618
aVforeign
p1619
aVpolicy
p1620
aV"
aVexperience
p1621
aV"
aVvs
p1622
aVjudgment
p1623
aVhttps://t.co/e1z8ovgh0z.
p1624
aV#feelthebern
p1625
asg16
g17
(S'\x07\xe0\x01\x16\x0e\x01%\x00\x00\x00'
tRp1626
sg19
Nsg20
Vvtknitboy
p1627
sa(dp1628
g3
(lp1629
Vrt
p1630
aV@nicola_evans_ph
p1631
aV:
aVlunch
p1632
aVtoday
p1633
aV#veggie
p1634
aVmixed
p1635
aVbean
p1636
aVchilli
p1637
aV&
aVamp
p1638
aV;
aVsweet
p1639
aVcorn
p1640
aVfritter
p1641
aV,
aVinspired
p1642
aVby
p1643
aV@vegsoc_cookery
p1644
aVmexican
p1645
aVday
p1646
aVhttps://t.co/rij9f
p1647
aV\u2026
asg16
g17
(S'\x07\xe0\x01\x16\r/\x1e\x00\x00\x00'
tRp1648
sg19
Nsg20
Vvtknitboy
p1649
sa(dp1650
g3
(lp1651
V@shibaguyz
p1652
aVfor
p1653
aVme
p1654
aV,
aVit's
p1655
aVearly
p1656
aVmorning
p1657
aV!
aVstill
p1658
aVup
p1659
aVat
p1660
aV8
aV:
aV46
p1661
aVam
p1662
aV.
aV.
aV.
aValmost
p1663
aVbedtime
p1664
aV.
aVlol
p1665
asg16
g17
(S'\x07\xe0\x01\x16\r.%\x00\x00\x00'
tRp1666
sg19
Nsg20
Vvtknitboy
p1667
sa(dp1668
g3
(lp1669
Vrt
p1670
aV@jricole
p1671
aV:
aVnetanyahu
p1672
aVdemands
p1673
aVmore
p1674
aVbillions
p1675
aVfrom
p1676
aVus
p1677
aVafter
p1678
aViran
p1679
aVdeal
p1680
aV,
aVinsults
p1681
aVus
p1682
aVenvoy
p1683
aV,
aVsteals
p1684
aV.
aV.
aV.
aV-
aVhttps://t.co/excjireyow
p1685
aVhttps://t.co/c
p1686
aV\u2026
asg16
g17
(S'\x07\xe0\x01\x16\r\x12!\x00\x00\x00'
tRp1687
sg19
Nsg20
Vvtknitboy
p1688
sa(dp1689
g3
(lp1690
Vrt
p1691
aV@guardian
p1692
aV:
aVhillary
p1693
aVclinton
p1694
aVangers
p1695
aViowa
p1696
aVfans
p1697
aVwho
p1698
aVwaited
p1699
aVhours
p1700
aVfor
p1701
aVfive-minute
p1702
aVspeech
p1703
aVhttps://t.co/3jjlx4ppq0
p1704
asg16
g17
(S'\x07\xe0\x01\x16\r\x06\x12\x00\x00\x00'
tRp1705
sg19
Nsg20
Vvtknitboy
p1706
sa(dp1707
g3
(lp1708
V#roundchurch
p1709
aVin
p1710
aVrichmond
p1711
aV#vermont
p1712
aVhttps://t.co/er3i8xyyoy
p1713
asg16
g17
(S'\x07\xe0\x01\x16\x0c5\x12\x00\x00\x00'
tRp1714
sg19
Nsg20
Vvtknitboy
p1715
sa(dp1716
g3
(lp1717
V@shibaguyz
p1718
aVlol
p1719
aV.
aVmaybe
p1720
aVcuz
p1721
aVi'm
p1722
aVup
p1723
aVat
p1724
aV3
aV-
aV7
aVam
p1725
aVmy
p1726
aVtime
p1727
aV?
asg16
g17
(S'\x07\xe0\x01\x16\x0b),\x00\x00\x00'
tRp1728
sg19
Nsg20
Vvtknitboy
p1729
sa(dp1730
g3
(lp1731
V.
aV@axsinvt
p1732
aVhillary's
p1733
aVtake
p1734
aVon
p1735
aV3
aVpolls
p1736
aVwhere
p1737
aVbernie
p1738
aVgoes
p1739
aVup
p1740
aV7
aV-
aV10
p1741
aV%
aV.
aVemail
p1742
aV$
aVraiser
p1743
aV.
aV#feelthebern
p1744
aVhttps://t.co/qwwpeir08u
p1745
asg16
g17
(S'\x07\xe0\x01\x16\n3\x06\x00\x00\x00'
tRp1746
sg19
Nsg20
Vvtknitboy
p1747
sa(dp1748
g3
(lp1749
V@axsinvt
p1750
aVthat's
p1751
aVinteresting
p1752
aV.
aVi
aVsaw
p1753
aVa
aVpost
p1754
aV.
aVthat
p1755
aVsaid
p1756
aVshe
p1757
aV.
aVdidn't
p1758
aVmention
p1759
aVhim
p1760
aV.
aVyesterday
p1761
aV.
aVshe
p1762
aV.
aVdid
p1763
aV.
aVthe
p1764
aVday
p1765
aVbefore
p1766
aVtho
p1767
aV.
asg16
g17
(S'\x07\xe0\x01\x16\n/-\x00\x00\x00'
tRp1768
sg19
Nsg20
Vvtknitboy
p1769
sa(dp1770
g3
(lp1771
V@shibaguyz
p1772
aVfigured
p1773
aVit
p1774
aVwas
p1775
aVdue
p1776
aVto
p1777
aVpolitics
p1778
aVlol
p1779
aV.
aVfeel
p1780
aVfree
p1781
aVto
p1782
aVunfoll
p1783
aVme
p1784
aV.
aVi
aVthink
p1785
aVi
aVgot
p1786
aVyou
p1787
aVon
p1788
aVfb
p1789
asg16
g17
(S'\x07\xe0\x01\x16\n\x16 \x00\x00\x00'
tRp1790
sg19
Nsg20
Vvtknitboy
p1791
sa(dp1792
g3
(lp1793
V@shibaguyz
p1794
aVhey
p1795
aV!
aVdid
p1796
aVyou
p1797
aVguys
p1798
aVmute
p1799
aVme
p1800
aVor
p1801
aVturn
p1802
aVmy
p1803
aVretweets
p1804
aVoff
p1805
aV?
aVcuz
p1806
aVu
aVused
p1807
aVto
p1808
aVthank
p1809
aVme
p1810
aVwhen
p1811
aVi
aVrt
p1812
aVur
p1813
aVstuff
p1814
aVand
p1815
aVall
p1816
aVof
p1817
aVa
aVsudden
p1818
aVit
p1819
aVstopped
p1820
asg16
g17
(S'\x07\xe0\x01\x16\n\x15\x04\x00\x00\x00'
tRp1821
sg19
Nsg20
Vvtknitboy
p1822
sa(dp1823
g3
(lp1824
Vrt
p1825
aV@hughnaylor
p1826
aV:
aVthe
p1827
aVpaper
p1828
aVof
p1829
aVrecord
p1830
aVin
p1831
aVisrael
p1832
aVcalling
p1833
aVown
p1834
aVcounty
p1835
aVapartheid
p1836
aVstate
p1837
aVand
p1838
aVfor
p1839
aVeffective
p1840
aVsanctions
p1841
aVto
p1842
aVend
p1843
aVits
p1844
aVoccupation
p1845
aVhttps
p1846
aV:/
p1847
aV\u2026
asg16
g17
(S'\x07\xe0\x01\x16\x084\x04\x00\x00\x00'
tRp1848
sg19
Nsg20
Vvtknitboy
p1849
sa(dp1850
g3
(lp1851
Vrt
p1852
aV@derekmarkham
p1853
aV:
aVso
p1854
aVwhat
p1855
aVexactly
p1856
aVis
p1857
aVthe
p1858
aVholdup
p1859
aVwith
p1860
aVthe
p1861
aVfeds
p1862
aVremoving
p1863
aVthe
p1864
aVasshat
p1865
aVarmed
p1866
aVoccupiers
p1867
aVfrom
p1868
aVmalheur
p1869
aV?
aVi
aVhave
p1870
aVyet
p1871
aVto
p1872
aVread
p1873
aVa
aVclear
p1874
aV\u2026
asg16
g17
(S'\x07\xe0\x01\x16\x04$5\x00\x00\x00'
tRp1875
sg19
Nsg20
Vvtknitboy
p1876
sa(dp1877
g3
(lp1878
V@msnbc
p1879
aVhow
p1880
aV.
aVis
p1881
aVthis
p1882
aVnews
p1883
aV?
asg16
g17
(S'\x07\xe0\x01\x16\x04"\x1c\x00\x00\x00'
tRp1884
sg19
Nsg20
Vvtknitboy
p1885
sa(dp1886
g3
(lp1887
Vrt
p1888
aV@bernieshomie
p1889
aV:
aVbernie's
p1890
aVcongressional
p1891
aVreport
p1892
aVcard
p1893
aV:
aV#feelthebern
p1894
aVhttps://t.co/3udzayuuqr
p1895
asg16
g17
(S'\x07\xe0\x01\x16\x03\x14\x1e\x00\x00\x00'
tRp1896
sg19
Nsg20
Vvtknitboy
p1897
sa(dp1898
g3
(lp1899
Vrt
p1900
aV@yamiche
p1901
aV:
aVhere's
p1902
aVmy
p1903
aVstory
p1904
aVagain
p1905
aVon
p1906
aVwhat
p1907
aV@sensanders
p1908
aVis
p1909
aVdoing
p1910
aVto
p1911
aVget
p1912
aVmore
p1913
aVblacks
p1914
aVto
p1915
aVsupport
p1916
aVhim
p1917
aV.
aVsuper
p1918
aVrelevant
p1919
aVin
p1920
aVrecent
p1921
aVdays
p1922
aV.
aVhttps://t
p1923
aV\u2026
asg16
g17
(S'\x07\xe0\x01\x16\x022"\x00\x00\x00'
tRp1924
sg19
Nsg20
Vvtknitboy
p1925
sa(dp1926
g3
(lp1927
Vrt
p1928
aV@ktnicoll87
p1929
aV:
aV@maddow
p1930
aV@berniesanders
p1931
aV@ppact
p1932
aV@naral
p1933
aV@hrc
p1934
aVwhen
p1935
aVthe
p1936
aVboard
p1937
aVmembers
p1938
aVmake
p1939
aVthe
p1940
aVendorsement
p1941
aVwithout
p1942
aVconsidering
p1943
aVtheir
p1944
aVmembers
p1945
aVtha
p1946
aV\u2026
asg16
g17
(S'\x07\xe0\x01\x16\x02\x1c$\x00\x00\x00'
tRp1947
sg19
Nsg20
Vvtknitboy
p1948
sa(dp1949
g3
(lp1950
Vrt
p1951
aV@ktnicoll87
p1952
aV:
aV@maddow
p1953
aV@berniesanders
p1954
aV@ppact
p1955
aV@naral
p1956
aV@hrc
p1957
aVbecause
p1958
aVof
p1959
aVthe
p1960
aVties
p1961
aVto
p1962
aVclinton
p1963
aVeach
p1964
aVendorsement
p1965
aVis
p1966
aVa
aVconflict
p1967
aVof
p1968
aVinterest
p1969
aV!
aV#feelt
p1970
aV\u2026
asg16
g17
(S'\x07\xe0\x01\x16\x02\x1b"\x00\x00\x00'
tRp1971
sg19
Nsg20
Vvtknitboy
p1972
sa(dp1973
g3
(lp1974
Vrt
p1975
aV@andrewcicchetti
p1976
aV:
aV.
aV@mitchellreports
p1977
aVthe
p1978
aVbernie
p1979
aVsanders
p1980
aVad
p1981
aVeveryone
p1982
aVis
p1983
aVtalking
p1984
aVabout
p1985
aVand
p1986
aVthat
p1987
aVhillary
p1988
aVdoesn't
p1989
aVwant
p1990
aVyou
p1991
aVto
p1992
aVsee
p1993
aV:
aVamerica
p1994
aVh
aV\u2026
asg16
g17
(S'\x07\xe0\x01\x15\x13)%\x00\x00\x00'
tRp1995
sg19
Nsg20
Vvtknitboy
p1996
sa(dp1997
g3
(lp1998
Vrt
p1999
aV@ajstream
p2000
aV:
aVflint's
p2001
aVwater
p2002
aVsmells
p2003
aV"
aVlike
p2004
aVan
p2005
aVopen
p2006
aVsewer
p2007
aV.
aV.
aVmy
p2008
aVhand
p2009
aVstarted
p2010
aVto
p2011
aVswell
p2012
aVafter
p2013
aVwashing
p2014
aVdishes
p2015
aV"
aV,
aVsays
p2016
aV@nayyirahshariff
p2017
aV.
aV#flintwaterc
p2018
aV\u2026
asg16
g17
(S'\x07\xe0\x01\x15\x13)\x1f\x00\x00\x00'
tRp2019
sg19
Nsg20
Vvtknitboy
p2020
sa(dp2021
g3
(lp2022
Vastute
p2023
aVanalysis
p2024
aVwhy
p2025
aV@hrc
p2026
aVproves
p2027
aV(
aVand
p2028
aVcontinues
p2029
aV)
aV@berniesanders
p2030
aVpoint
p2031
aV.
aVhttps://t.co/vxbuw5nyfv
p2032
aV#feelthebern
p2033
asg16
g17
(S'\x07\xe0\x01\x15\x13(,\x00\x00\x00'
tRp2034
sg19
Nsg20
Vvtknitboy
p2035
sa(dp2036
g3
(lp2037
V.
aV@ppact
p2038
aVso
p2039
aVhow
p2040
aVdid
p2041
aVyou
p2042
aVdecide
p2043
aVur
p2044
aVendorsement
p2045
aV?
aVonline
p2046
aVpoll
p2047
aV,
aVdonor
p2048
aVmail-in
p2049
aV,
aVa
aVmember
p2050
aVsurvey
p2051
aV?
aVa
aVcorp
p2052
aVestablishment
p2053
aVbod
p2054
aVvote
p2055
aV?
aV#feelthebern
p2056
asg16
g17
(S'\x07\xe0\x01\x15\x13 \x1a\x00\x00\x00'
tRp2057
sg19
Nsg20
Vvtknitboy
p2058
sa(dp2059
g3
(lp2060
V.
aV@hrc
p2061
aVso
p2062
aVhow
p2063
aVdid
p2064
aVyou
p2065
aVdecide
p2066
aVur
p2067
aVendorsement
p2068
aV?
aVonline
p2069
aVpoll
p2070
aV,
aVdonor
p2071
aVmail-in
p2072
aV,
aVa
aVmember
p2073
aVsurvey
p2074
aV?
aVa
aVcorp
p2075
aVestablishment
p2076
aVbod
p2077
aVvote
p2078
aV?
aV#feelthebern
p2079
asg16
g17
(S'\x07\xe0\x01\x15\x13\x1f,\x00\x00\x00'
tRp2080
sg19
Nsg20
Vvtknitboy
p2081
sa(dp2082
g3
(lp2083
Vrt
p2084
aV@treehugger1605
p2085
aV:
aV@pdx_for_bernie
p2086
aV@hrc
p2087
aVi
aVdon't
p2088
aVunderstand
p2089
aV?
aVdid
p2090
aVthe
p2091
aV1.5
p2092
aVm
aVmembers
p2093
aVof
p2094
aVhumanrights
p2095
aVdecide
p2096
aVwho
p2097
aVto
p2098
aVendorse
p2099
aV?
asg16
g17
(S'\x07\xe0\x01\x15\x13\x18\x15\x00\x00\x00'
tRp2100
sg19
Nsg20
Vvtknitboy
p2101
sa(dp2102
g3
(lp2103
V@labellabodycare
p2104
aVur
p2105
aVgoing
p2106
aVout
p2107
aVof
p2108
aVbiz
p2109
aV,
aVright
p2110
aV?
aVsurprised
p2111
aVat
p2112
aVthe
p2113
aVflurry
p2114
aVof
p2115
aVads
p2116
aVpromoting
p2117
aVmore
p2118
aVsales
p2119
aV.
aVnothing
p2120
aVwill
p2121
aVbe
p2122
aVavailable
p2123
aV.
aVrgt
p2124
aV?
asg16
g17
(S'\x07\xe0\x01\x15\x13\x06\x0c\x00\x00\x00'
tRp2125
sg19
Nsg20
Vvtknitboy
p2126
sa(dp2127
g3
(lp2128
V@citystitchette
p2129
aV@lunaraven13
p2130
aV@heatherhal
p2131
aVjust
p2132
aVrealized
p2133
aVwas
p2134
aV2014
p2135
asg16
g17
(S'\x07\xe0\x01\x15\x13\x03\t\x00\x00\x00'
tRp2136
sg19
Nsg20
Vvtknitboy
p2137
sa(dp2138
g3
(lp2139
Vrt
p2140
aV@latimes
p2141
aV:
aVno
p2142
aVasian
p2143
aVactress
p2144
aVhas
p2145
aVwon
p2146
aVan
p2147
aV#oscar
p2148
aVin
p2149
aV58
p2150
aVyears
p2151
aV,
aVand
p2152
aVit
p2153
aV\u2019
aVs
aVbeen
p2154
aV54
p2155
aVyears
p2156
aVsince
p2157
aVa
aVlatina
p2158
aVtook
p2159
aVhome
p2160
aVan
p2161
aVacademy
p2162
aVaward
p2163
aVhttps://t.co/
p2164
aV\u2026
asg16
g17
(S'\x07\xe0\x01\x15\x123\r\x00\x00\x00'
tRp2165
sg19
Nsg20
Vvtknitboy
p2166
sa(dp2167
g3
(lp2168
V@rebelcapitalist
p2169
aV@bluedupage
p2170
aV@nationofchange
p2171
aVapril
p2172
aV2015
p2173
aVfor
p2174
aVher
p2175
aVsuperpac
p2176
aV.
aVi
aVcan't
p2177
aVstand
p2178
aVher
p2179
aV,
aVbut
p2180
aVcheck
p2181
aVthe
p2182
aVdates
p2183
asg16
g17
(S'\x07\xe0\x01\x15\x120-\x00\x00\x00'
tRp2184
sg19
Nsg20
Vvtknitboy
p2185
sa(dp2186
g3
(lp2187
Vas
p2188
aVa
aV#vermonter
p2189
aV,
aVthis
p2190
aVis
p2191
aVa
aVsellout
p2192
aVand
p2193
aVa
aVdisappointment
p2194
aV@govhowarddean
p2195
aV.
aV@shaytotten
p2196
aV#btv
p2197
aV#feelthebern
p2198
aVhttps://t.co/qkh9mmkrqf
p2199
asg16
g17
(S"\x07\xe0\x01\x15\x12'\x08\x00\x00\x00"
tRp2200
sg19
Nsg20
Vvtknitboy
p2201
sa(dp2202
g3
(lp2203
Vrt
p2204
aV@sahilkapur
p2205
aV:
aVin
p2206
aVemail
p2207
aV,
aV@emilyslist
p2208
aVattacks
p2209
aVsanders
p2210
aVwith
p2211
aVrhetoric
p2212
aVthey
p2213
aVnormally
p2214
aVreserve
p2215
aVfor
p2216
aVrepublicans
p2217
aV:
aV\u201c
aVto
p2218
aVsanders
p2219
aVwomen
p2220
aV\u2019
aVs
aVhealth
p2221
aVis
p2222
aVan
p2223
aV\u2026
asg16
g17
(S'\x07\xe0\x01\x15\x12 \x15\x00\x00\x00'
tRp2224
sg19
Nsg20
Vvtknitboy
p2225
sa(dp2226
g3
(lp2227
Vrt
p2228
aV@sahilkapur
p2229
aV:
aV@rachelsklar
p2230
aVi
aVthink
p2231
aVhe
p2232
aVstepped
p2233
aVin
p2234
aVit
p2235
aVrhetorically
p2236
aV,
aVbut
p2237
aVhe's
p2238
aVnot
p2239
aVwrong
p2240
aVthat
p2241
aVppfa
p2242
aVis
p2243
aVensconced
p2244
aVin
p2245
aVa
aVdem
p2246
aVhierarchy
p2247
aVthat's
p2248
aVbac
p2249
aV\u2026
asg16
g17
(S'\x07\xe0\x01\x15\x12\x1f8\x00\x00\x00'
tRp2250
sg19
Nsg20
Vvtknitboy
p2251
sa(dp2252
g3
(lp2253
Vrt
p2254
aV@keeponpolling
p2255
aV:
aV@sahilkapur
p2256
aV@emilyslist
p2257
aVthis
p2258
aVis
p2259
aVa
aVnasty
p2260
aV,
aVdivisive
p2261
aVthing
p2262
aVto
p2263
aVsay
p2264
aV.
aVhe
p2265
aVhas
p2266
aVa
aVperfect
p2267
aVrecord
p2268
aVon
p2269
aVwomen's
p2270
aVhealth
p2271
aVissues
p2272
aV.
aVdisgus
p2273
aV\u2026
asg16
g17
(S'\x07\xe0\x01\x15\x12\x1c\x08\x00\x00\x00'
tRp2274
sg19
Nsg20
Vvtknitboy
p2275
sa(dp2276
g3
(lp2277
Vrt
p2278
aV@yeayourite
p2279
aV:
aV@sahilkapur
p2280
aVare
p2281
aVpeople
p2282
aVgoing
p2283
aVto
p2284
aVargue
p2285
aV@emilyslist
p2286
aVisn't
p2287
aVestablishment
p2288
aVnow
p2289
aV?
asg16
g17
(S'\x07\xe0\x01\x15\x12\x1b;\x00\x00\x00'
tRp2290
sg19
Nsg20
Vvtknitboy
p2291
sa(dp2292
g3
(lp2293
Vrt
p2294
aV@chicago4bernie
p2295
aV:
aV.
aV@sahilkapur
p2296
aV@emilyslist
p2297
aVbullshit
p2298
aV.
aVbernie
p2299
aVhas
p2300
aVa
aV100
p2301
aV%
aVrating
p2302
aVfrom
p2303
aVplanned
p2304
aVparenthood
p2305
aV.
aVthis
p2306
aVis
p2307
aVa
aVflat
p2308
aVout
p2309
aVlie
p2310
aVand
p2311
aVclear
p2312
aVs
aV\u2026
asg16
g17
(S'\x07\xe0\x01\x15\x12\x1b \x00\x00\x00'
tRp2313
sg19
Nsg20
Vvtknitboy
p2314
sa(dp2315
g3
(lp2316
Vrt
p2317
aV@judgenathan
p2318
aV:
aV@rachelsklar
p2319
aV@sahilkapur
p2320
aV@ppfa
p2321
aVhe
p2322
aVmeant
p2323
aV"
aVdem
p2324
aV.
aVparty
p2325
aV/
aVelectability
p2326
aV/
aVetc
p2327
aV"
aVestablishment
p2328
aV.
aVit's
p2329
aVobvious
p2330
aVhe
p2331
aVor
p2332
aVhillary
p2333
aVwld
p2334
aVbe
p2335
aVmos
p2336
aV\u2026
asg16
g17
(S'\x07\xe0\x01\x15\x12\x1b\x0b\x00\x00\x00'
tRp2337
sg19
Nsg20
Vvtknitboy
p2338
sa(dp2339
g3
(lp2340
Vrt
p2341
aV@lapared
p2342
aV:
aV@sahilkapur
p2343
aV@emilyslist
p2344
aV-
aVtotal
p2345
aVbs
p2346
aV.
aVsanders's
p2347
aVwork
p2348
aVon
p2349
aVaca
p2350
aVmade
p2351
aVbill
p2352
aVstronger
p2353
aV&
aVamp
p2354
aV;
aVincreased
p2355
aVwomen's
p2356
aVaccess
p2357
aVto
p2358
aVhealthcare
p2359
aV.
asg16
g17
(S'\x07\xe0\x01\x15\x12\x1b\x05\x00\x00\x00'
tRp2360
sg19
Nsg20
Vvtknitboy
p2361
sa(dp2362
g3
(lp2363
Vrt
p2364
aV@breenewsome
p2365
aV:
aVobserve
p2366
aVwhere
p2367
aVthis
p2368
aVnation
p2369
aVplaces
p2370
aVits
p2371
aVpriorities
p2372
aV.
aVcan't
p2373
aVfind
p2374
aVmoney
p2375
aVfor
p2376
aVschools
p2377
aV,
aVhealth
p2378
aVcare
p2379
aVor
p2380
aVwater
p2381
aVbut
p2382
aVendless
p2383
aVfunds
p2384
aVfor
p2385
aV\u2026
asg16
g17
(S'\x07\xe0\x01\x15\x12\x126\x00\x00\x00'
tRp2386
sg19
Nsg20
Vvtknitboy
p2387
sa(dp2388
g3
(lp2389
Vrt
p2390
aV@breenewsome
p2391
aV:
aVpoverty
p2392
aVmake
p2393
aVme
p2394
aVsooooooo
p2395
aVangry
p2396
aV.
aV.
aV.
aVlike
p2397
aVto
p2398
aVthe
p2399
aVmarrow
p2400
aVof
p2401
aVmy
p2402
aVbones
p2403
aV.
aVthe
p2404
aVsituation
p2405
aVin
p2406
aVmichigan
p2407
aVis
p2408
aVa
aVdisgrace
p2409
aVto
p2410
aVthe
p2411
aVentire
p2412
aVna
p2413
aV\u2026
asg16
g17
(S'\x07\xe0\x01\x15\x114/\x00\x00\x00'
tRp2414
sg19
Nsg20
Vvtknitboy
p2415
sa(dp2416
g3
(lp2417
V.
aV@citystitchette
p2418
aVdid
p2419
aVu
aVsee
p2420
aVthis
p2421
aV?
aVhttps://t.co/rriobgsmyp
p2422
asg16
g17
(S'\x07\xe0\x01\x15\x113\x03\x00\x00\x00'
tRp2423
sg19
Nsg20
Vvtknitboy
p2424
sa(dp2425
g3
(lp2426
V@axsinvt
p2427
aVi
aVdon't
p2428
aVknow
p2429
aVif
p2430
aVmika
p2431
aVcould
p2432
aVreally
p2433
aVever
p2434
aVhave
p2435
aVher
p2436
aVown
p2437
aVshow
p2438
aV.
aVshe'll
p2439
aValways
p2440
aVbe
p2441
aVseen
p2442
aVas
p2443
aVthe
p2444
aVwimp
p2445
aVwho
p2446
aVwouldn't
p2447
aVstand
p2448
aVup
p2449
aV.
aVto
p2450
aVdouchebag
p2451
aVjoke
p2452
asg16
g17
(S'\x07\xe0\x01\x15\x0b4\x1b\x00\x00\x00'
tRp2453
sg19
Nsg20
Vvtknitboy
p2454
sa(dp2455
g3
(lp2456
V@axsinvt
p2457
aVlolol
p2458
aV.
aVmy
p2459
aVbp
p2460
aVwould
p2461
aVbe
p2462
aVthrough
p2463
aVth
p2464
aVroof
p2465
aV.
asg16
g17
(S'\x07\xe0\x01\x15\x0b2"\x00\x00\x00'
tRp2466
sg19
Nsg20
Vvtknitboy
p2467
sa(dp2468
g3
(lp2469
V@axsinvt
p2470
aVdoes
p2471
aVshe
p2472
aVhear
p2473
aVu
aVyelling
p2474
aVat
p2475
aVmorning
p2476
aVjoke
p2477
aVevery
p2478
aVday
p2479
aV?
aV!
asg16
g17
(S'\x07\xe0\x01\x15\x0b,\x11\x00\x00\x00'
tRp2480
sg19
Nsg20
Vvtknitboy
p2481
sa(dp2482
g3
(lp2483
V@axsinvt
p2484
aVdid
p2485
aVshe
p2486
aVsee
p2487
aVthat
p2488
aVpalin
p2489
aVclip
p2490
aVwith
p2491
aVdonald
p2492
aVtrump
p2493
aV?
aV!
asg16
g17
(S'\x07\xe0\x01\x15\x0b+/\x00\x00\x00'
tRp2494
sg19
Nsg20
Vvtknitboy
p2495
sa(dp2496
g3
(lp2497
V@axsinvt
p2498
aVwho
p2499
aVdoes
p2500
aVur
p2501
aVmom
p2502
aVlike
p2503
aV?
asg16
g17
(S'\x07\xe0\x01\x15\x0b*:\x00\x00\x00'
tRp2504
sg19
Nsg20
Vvtknitboy
p2505
sa(dp2506
g3
(lp2507
V@axsinvt
p2508
aVjust
p2509
aVthink
p2510
aVit's
p2511
aVunnecessary
p2512
aVfor
p2513
aVthem
p2514
aVto
p2515
aVjump
p2516
aVin
p2517
aVat
p2518
aVall
p2519
asg16
g17
(S'\x07\xe0\x01\x15\x0b*\x13\x00\x00\x00'
tRp2520
sg19
Nsg20
Vvtknitboy
p2521
sa(dp2522
g3
(lp2523
V@axsinvt
p2524
aVor
p2525
aVnot
p2526
aVat
p2527
aVall
p2528
aV.
aVnot
p2529
aVlike
p2530
aVcompeting
p2531
aVagainst
p2532
aVthose
p2533
aVlog
p2534
aVcabin
p2535
aVrepugs
p2536
aV.
aVlol
p2537
asg16
g17
(S'\x07\xe0\x01\x15\x0b)/\x00\x00\x00'
tRp2538
sg19
Nsg20
Vvtknitboy
p2539
sa(dp2540
g3
(lp2541
V.
aV@axsinvt
p2542
aV@hrc
p2543
aV&
aVlt
p2544
aV;
aV-
aV-
aVslander
p2545
aVattacks
p2546
aVwill
p2547
aVdrive
p2548
aVaway
p2549
aVbernie
p2550
aVbots
p2551
aV"
aVshould
p2552
aV"
aVshe
p2553
aVwin
p2554
aVnom
p2555
aV.
aVcan't
p2556
aVwin
p2557
aVge
p2558
aVw
aV/
aV20
p2559
aV%
aVloss
p2560
aVof
p2561
aVhis
p2562
aVvoters
p2563
aV.
aVnot
p2564
aVsmart
p2565
aVplan
p2566
asg16
g17
(S'\x07\xe0\x01\x15\x0b(1\x00\x00\x00'
tRp2567
sg19
Nsg20
Vvtknitboy
p2568
sa(dp2569
g3
(lp2570
Vrt
p2571
aV@axsinvt
p2572
aV:
aV@vtknitboy
p2573
aVand
p2574
aVyet
p2575
aV@hrc
p2576
aVis
p2577
aVmad
p2578
aVabout
p2579
aVbeing
p2580
aVcalled
p2581
aVestablishment
p2582
aV.
aVyou
p2583
aVare
p2584
aV,
aVblanche
p2585
aV.
aVyou
p2586
aVare
p2587
aVthe
p2588
aVestablishment
p2589
aV.
aV#hrc
p2590
aV#hillary
p2591
aV#
aVb
aV\u2026
asg16
g17
(S'\x07\xe0\x01\x15\x0b#\x0e\x00\x00\x00'
tRp2592
sg19
Nsg20
Vvtknitboy
p2593
sa(dp2594
g3
(lp2595
V@axsinvt
p2596
aVu
aVcan
p2597
aVrt
p2598
aVmy
p2599
aVlast
p2600
aVtweets
p2601
aVand
p2602
aVadd
p2603
aV@berniesanders
p2604
aVand
p2605
aVhrc
p2606
aV.
aVtags
p2607
aVif
p2608
aVu
aVwant
p2609
aV.
aVfuk
p2610
aV.
aVem
p2611
aVlol
p2612
asg16
g17
(S'\x07\xe0\x01\x15\x0b#\x02\x00\x00\x00'
tRp2613
sg19
Nsg20
Vvtknitboy
p2614
sa(dp2615
g3
(lp2616
V,
aV@axsinvt
p2617
aVright
p2618
aV.
aVand
p2619
aVsome
p2620
aVgays
p2621
aVhave
p2622
aVbeen
p2623
aVcomplaining
p2624
aVabout
p2625
aV@hrc
p2626
aVfor
p2627
aVyears
p2628
asg16
g17
(S'\x07\xe0\x01\x15\x0b!0\x00\x00\x00'
tRp2629
sg19
Nsg20
Vvtknitboy
p2630
sa(dp2631
g3
(lp2632
V@axsinvt
p2633
aVand
p2634
aVtheir
p2635
aVbod
p2636
aVis
p2637
aVmade
p2638
aVup
p2639
aVof
p2640
aVcorp
p2641
aVamerica
p2642
asg16
g17
(S'\x07\xe0\x01\x15\x0b \x1d\x00\x00\x00'
tRp2643
sg19
Nsg20
Vvtknitboy
p2644
sa(dp2645
g3
(lp2646
V@axsinvt
p2647
aVestablishment
p2648
aV.
aVit's
p2649
aVstill
p2650
aVabout
p2651
aVmoney
p2652
aVand
p2653
aVorg
p2654
asg16
g17
(S'\x07\xe0\x01\x15\x0b\x1f+\x00\x00\x00'
tRp2655
sg19
Nsg20
Vvtknitboy
p2656
sa(dp2657
g3
(lp2658
V@axsinvt
p2659
aVi
aVfollowed
p2660
aVsome
p2661
aVof
p2662
aVth
p2663
aVtwitter
p2664
aVwars
p2665
aVth
p2666
aVfirst
p2667
aVnight
p2668
aV.
aVthey
p2669
aVare
p2670
aVclueless
p2671
aV.
aVeven
p2672
aVif
p2673
aVthey
p2674
aVbacked
p2675
aVbernie
p2676
aVthey
p2677
aVwould
p2678
aVbe
p2679
aVpart
p2680
aVof
p2681
aVth
p2682
aVpolitical
p2683
asg16
g17
(S'\x07\xe0\x01\x15\x0b\x1e*\x00\x00\x00'
tRp2684
sg19
Nsg20
Vvtknitboy
p2685
sa(dp2686
g3
(lp2687
V@axsinvt
p2688
aVtwitter
p2689
aVwar
p2690
asg16
g17
(S'\x07\xe0\x01\x15\x0b\x19(\x00\x00\x00'
tRp2691
sg19
Nsg20
Vvtknitboy
p2692
sa(dp2693
g3
(lp2694
Vrt
p2695
aV@angryredhead86
p2696
aV:
aV@thehill
p2697
aVshe
p2698
aVis
p2699
aVhurting
p2700
aVthe
p2701
aVparty
p2702
aVand
p2703
aValso
p2704
aVis
p2705
aVdoing
p2706
aVher
p2707
aVbest
p2708
aVto
p2709
aVhand
p2710
aVthe
p2711
aVnomination
p2712
aVto
p2713
aVhillary
p2714
aVclinton
p2715
aV.
asg16
g17
(S'\x07\xe0\x01\x15\x0b\x18\x1d\x00\x00\x00'
tRp2716
sg19
Nsg20
Vvtknitboy
p2717
sa(dp2718
g3
(lp2719
Vhill's
p2720
aVshill
p2721
aV~
aVgotta
p2722
aVgo
p2723
aV.
aV.
aV.
aVhttps://t.co/cg8tcfjx5c
p2724
asg16
g17
(S'\x07\xe0\x01\x15\x0b\x18\x14\x00\x00\x00'
tRp2725
sg19
Nsg20
Vvtknitboy
p2726
sa(dp2727
g3
(lp2728
V@axsinvt
p2729
aVlol
p2730
aV.
aVthey
p2731
aVdon't
p2732
aVrealize
p2733
aVthat
p2734
aVby
p2735
aVjumping
p2736
aVin
p2737
aVthey
p2738
aVprove
p2739
aVbernie
p2740
aVright
p2741
aVand
p2742
aVby
p2743
aV.
aVengaging
p2744
aVin
p2745
aVcontinuous
p2746
aVtwitter
p2747
aVwas
p2748
aVthey
p2749
aVr
aVmaking
p2750
aVit
p2751
aVworse
p2752
asg16
g17
(S'\x07\xe0\x01\x15\x0b\x15\x1d\x00\x00\x00'
tRp2753
sg19
Nsg20
Vvtknitboy
p2754
sa(dp2755
g3
(lp2756
V.
aV@hrc
p2757
aV@hillaryclinton
p2758
aVu
aVknow
p2759
aV,
aVbcuz
p2760
aVu
aVjumped
p2761
aVin
p2762
aVthis
p2763
aVu
aVproved
p2764
aV@berniesanders
p2765
aVright
p2766
aV?
aVevery
p2767
aVtweet
p2768
aVcontinues
p2769
aVto
p2770
aVdo
p2771
aVso
p2772
aV.
aV#feelthebern
p2773
asg16
g17
(S'\x07\xe0\x01\x15\x0b\x112\x00\x00\x00'
tRp2774
sg19
Nsg20
Vvtknitboy
p2775
sa(dp2776
g3
(lp2777
Vrt
p2778
aV@axsinvt
p2779
aV:
aV@hrc
p2780
aV@hillaryclinton
p2781
aVrecently
p2782
aV,
aVyes
p2783
aV.
aV#bernie
p2784
aVwas
p2785
aVwith
p2786
aVus
p2787
aVin
p2788
aV#vt
p2789
aVin
p2790
aV1985
p2791
aV.
aVwhere
p2792
aVwas
p2793
aVshe
p2794
aVthen
p2795
aV?
aVhttps://t.co/xacs13rh1v
p2796
asg16
g17
(S'\x07\xe0\x01\x15\x0b\x10\x0f\x00\x00\x00'
tRp2797
sg19
Nsg20
Vvtknitboy
p2798
sa(dp2799
g3
(lp2800
V.
aV@hrc
p2801
aV@hillaryclinton
p2802
aVlol
p2803
aV,
aV@sensanders
p2804
aV'
aVs
aVtrack
p2805
aV.
aVrecord
p2806
aVof
p2807
aVgay
p2808
aV.
aVrgts
p2809
aV.
aVsupports
p2810
aVsince
p2811
aVthe
p2812
aV1980
p2813
aVs
aV.
aVu
aVshould
p2814
aV.
aVhv
p2815
aVstayed
p2816
aVout
p2817
aVof
p2818
aVthis
p2819
aV.
asg16
g17
(S'\x07\xe0\x01\x15\x0b\x10\x01\x00\x00\x00'
tRp2820
sg19
Nsg20
Vvtknitboy
p2821
sa(dp2822
g3
(lp2823
Vrt
p2824
aV@nobiggovduh
p2825
aV:
aV@hrc
p2826
aV@hillaryclinton
p2827
aVa
aVrecord
p2828
aVof
p2829
aV4
aVyears
p2830
aVinstead
p2831
aVof
p2832
aVdecades
p2833
aV.
asg16
g17
(S'\x07\xe0\x01\x15\x0b\r2\x00\x00\x00'
tRp2834
sg19
Nsg20
Vvtknitboy
p2835
sa(dp2836
g3
(lp2837
Vrt
p2838
aV@jerryod
p2839
aV:
aV@hrc
p2840
aV@hillaryclinton
p2841
aVhere
p2842
aV\u2019
aVs
aVbernie
p2843
aVsanders
p2844
aVstanding
p2845
aVup
p2846
aVfor
p2847
aVgay
p2848
aVsoldiers
p2849
aVback
p2850
aVin
p2851
aV1995
p2852
aV.
aVimpressive
p2853
aV.
aVhttps://t.co/olkkwvsu0e
p2854
aV\u2026
asg16
g17
(S'\x07\xe0\x01\x15\x0b\r,\x00\x00\x00'
tRp2855
sg19
Nsg20
Vvtknitboy
p2856
sa(dp2857
g3
(lp2858
Vrt
p2859
aV@goobersnattch
p2860
aV:
aV@hrc
p2861
aVsuffers
p2862
aVfrom
p2863
aVamnesia
p2864
aV.
aVit
p2865
aVwas
p2866
aV@hillaryclinton
p2867
aVwho
p2868
aVwas
p2869
aVagainst
p2870
aVmarriage
p2871
aVand
p2872
aVpro
p2873
aVmarriage
p2874
aVwhen
p2875
aVit
p2876
aVwas
p2877
aVconvenient
p2878
aVto
p2879
aVdo
p2880
aV\u2026
asg16
g17
(S'\x07\xe0\x01\x15\x0b\r(\x00\x00\x00'
tRp2881
sg19
Nsg20
Vvtknitboy
p2882
sa(dp2883
g3
(lp2884
Vrt
p2885
aV@omanreagan
p2886
aV:
aV@hrc
p2887
aVhahahahhahahahahhhahaha
p2888
aV.
aVoh
p2889
aVgosh
p2890
aV,
aVlet
p2891
aVme
p2892
aVcatch
p2893
aVmy
p2894
aVbreath
p2895
aV.
aVhahahhahahahahhahahahaha
p2896
aV.
aVoh
p2897
aV,
aVgood
p2898
aVone
p2899
aV,
aVhahha
p2900
aV.
aV\U0001f602
asg16
g17
(S'\x07\xe0\x01\x15\x0b\r"\x00\x00\x00'
tRp2901
sg19
Nsg20
Vvtknitboy
p2902
sa(dp2903
g3
(lp2904
Vrt
p2905
aV@setjeff
p2906
aV:
aV@hrc
p2907
aV@hillaryclinton
p2908
aVsure
p2909
aV.
aVyou
p2910
aVguys
p2911
aVhave
p2912
aVcompletely
p2913
aVsold
p2914
aVout
p2915
aVor
p2916
aVhave
p2917
aVvery
p2918
aVshort
p2919
aVmemories
p2920
aV.
aVlikely
p2921
aVthe
p2922
aVformer
p2923
aV.
aV.
aVhttps://t.co/drv
p2924
aV\u2026
asg16
g17
(S'\x07\xe0\x01\x15\x0b\r\x1d\x00\x00\x00'
tRp2925
sg19
Nsg20
Vvtknitboy
p2926
sa(dp2927
g3
(lp2928
Vrt
p2929
aV@thesfgresearch
p2930
aV:
aV@hrc
p2931
aV@marcylauren
p2932
aV@hillaryclinton
p2933
aVsnds
p2934
aVlik
p2935
aVmore
p2936
aVspeechifying
p2937
aVto
p2938
aVme
p2939
aV,
aVhrc
p2940
aV.
asg16
g17
(S'\x07\xe0\x01\x15\x0b\r\x19\x00\x00\x00'
tRp2941
sg19
Nsg20
Vvtknitboy
p2942
sa(dp2943
g3
(lp2944
Vrt
p2945
aV@ronworthdubbs
p2946
aV:
aV@hrc
p2947
aV@hillaryclinton
p2948
aVi
aVwonder
p2949
aVhow
p2950
aVmuch
p2951
aV$
aVshe
p2952
aVpaid
p2953
aVyou
p2954
aVguys
p2955
aV.
asg16
g17
(S'\x07\xe0\x01\x15\x0b\r\x16\x00\x00\x00'
tRp2956
sg19
Nsg20
Vvtknitboy
p2957
sa(dp2958
g3
(lp2959
Vrt
p2960
aV@joshuakconnelly
p2961
aV:
aV@hrc
p2962
aV@hillaryclinton
p2963
aVhillary
p2964
aVdidn't
p2965
aVsupport
p2966
aVsame-sex
p2967
aVmarriage
p2968
aVuntil
p2969
aV2013
p2970
aV.
asg16
g17
(S'\x07\xe0\x01\x15\x0b\r\x13\x00\x00\x00'
tRp2971
sg19
Nsg20
Vvtknitboy
p2972
sa(dp2973
g3
(lp2974
Vrt
p2975
aV@vprnet
p2976
aV:
aVsanders
p2977
aVsupporters
p2978
aV'
aVchallenge
p2979
aVof
p2980
aVdnc
p2981
aVleadership
p2982
aVreflects
p2983
aVa
aVgrowing
p2984
aVparty
p2985
aVdivide
p2986
aVhttps://t.co/g86gxuahja
p2987
aV#vprnews
p2988
aVhttps://t.co/u
p2989
aV\u2026
asg16
g17
(S'\x07\xe0\x01\x15\n\x17\x0f\x00\x00\x00'
tRp2990
sg19
Nsg20
Vvtknitboy
p2991
sa(dp2992
g3
(lp2993
Vrt
p2994
aV@nbcnews
p2995
aV:
aVvets
p2996
aVto
p2997
aV@sarahpalinusa
p2998
aV:
aVdon't
p2999
aVblame
p3000
aVobama
p3001
aVfor
p3002
aVson's
p3003
aVbehavior
p3004
aVhttps://t.co/8v0k8szkji
p3005
aVhttps://t.co/bi4gcm4xl9
p3006
asg16
g17
(S'\x07\xe0\x01\x15\n\x139\x00\x00\x00'
tRp3007
sg19
Nsg20
Vvtknitboy
p3008
sa(dp3009
g3
(lp3010
V.
aV@samkalidi
p3011
aVdivide
p3012
aV&
aVamp
p3013
aV;
aVconquer
p3014
aV.
aVpit
p3015
aV1
aVgroup
p3016
aVvs
p3017
aVanother
p3018
aV.
aVnot
p3019
aVjust
p3020
aVracial
p3021
aV~
aVdowntrodden
p3022
aV.
aVgays
p3023
aV.
aVpoor
p3024
aV.
aValways
p3025
aVsomeone
p3026
aVto
p3027
aVsee
p3028
aV"
aVbeneath
p3029
aV"
aVu
asg16
g17
(S'\x07\xe0\x01\x15\t\x02\x1a\x00\x00\x00'
tRp3030
sg19
Nsg20
Vvtknitboy
p3031
sa(dp3032
g3
(lp3033
Vthe
p3034
aV'
aVmurican
p3035
aVthing
p3036
aV-
aVconquer
p3037
aVand
p3038
aVdivide
p3039
aV.
aVby
p3040
aVpitting
p3041
aVone
p3042
aVdisadvantaged
p3043
aVgroup
p3044
aVvs
p3045
aVanother
p3046
aVhttps://t.co/qzqzsj2bxj
p3047
asg16
g17
(S'\x07\xe0\x01\x15\x08:\x12\x00\x00\x00'
tRp3048
sg19
Nsg20
Vvtknitboy
p3049
sa(dp3050
g3
(lp3051
V@lawrence
p3052
aV@bwdoherty
p3053
aVhave
p3054
aVu
aVseen
p3055
aVthis
p3056
aVharvard
p3057
aVlaw
p3058
aVreview
p3059
aVmar
p3060
aV2015
p3061
aV?
aVsays
p3062
aVcruz
p3063
aVis
p3064
aVelig
p3065
aV.
aVhttps://t.co/l3n9oshgxc
p3066
asg16
g17
(S'\x07\xe0\x01\x15\x06(\x05\x00\x00\x00'
tRp3067
sg19
Nsg20
Vvtknitboy
p3068
sa(dp3069
g3
(lp3070
V@zebrafinch
p3071
aV@adrianmayer
p3072
aV@peterjholley
p3073
aVin
p3074
aVthe
p3075
aVarticle
p3076
aVhe
p3077
aVdoesn't
p3078
aVreally
p3079
aVsay
p3080
aVit's
p3081
aVa
aVhoax
p3082
aV.
aVbut
p3083
aVthat
p3084
aV100
p3085
aV%
aVof
p3086
aVflint
p3087
aVisn't
p3088
aVpoisoned
p3089
aV,
aV.
aVmaybe
p3090
aV3
aV%
asg16
g17
(S'\x07\xe0\x01\x15\x06\x00\n\x00\x00\x00'
tRp3091
sg19
Nsg20
Vvtknitboy
p3092
sa(dp3093
g3
(lp3094
Vrt
p3095
aV@adrianmayer
p3096
aV:
aVnewest
p3097
aVbatch
p3098
aVof
p3099
aVgop
p3100
aVwhack
p3101
aVjobs
p3102
aVagain
p3103
aVignore
p3104
aVscience
p3105
aV:
aVsome
p3106
aVmichigan
p3107
aVpoliticians
p3108
aVsay
p3109
aVthe
p3110
aVflint
p3111
aVwater
p3112
aVcrisis
p3113
aVis
p3114
aVa
aVhoax
p3115
aVhttps
p3116
aV:
aV\u2026
asg16
g17
(S'\x07\xe0\x01\x15\x057\x1f\x00\x00\x00'
tRp3117
sg19
Nsg20
Vvtknitboy
p3118
sa(dp3119
g3
(lp3120
Vrt
p3121
aV@gmoinside
p3122
aV:
aVdr
p3123
aV.
aVhuber
p3124
aVexplains
p3125
aVwhy
p3126
aV#gmo
p3127
aVcrops
p3128
aVstart
p3129
aVout
p3130
aVproducing
p3131
aVwell
p3132
aVfor
p3133
aVchemical
p3134
aVfarmers
p3135
aVbut
p3136
aVdecrease
p3137
aVover
p3138
aVtime
p3139
aV#ecofarm2016
p3140
aVhttps
p3141
aV:/
p3142
aV/
aV\u2026
asg16
g17
(S'\x07\xe0\x01\x15\x0569\x00\x00\x00'
tRp3143
sg19
Nsg20
Vvtknitboy
p3144
sa(dp3145
g3
(lp3146
Vrt
p3147
aV@mahamosa
p3148
aV:
aV"
aVi
aVgot
p3149
aVadopted
p3150
aV!
aV"
aV:)
p3151
aVuse
p3152
aVcode
p3153
aVadopt
p3154
aV@
aVhttps://t.co/17eb84xast
p3155
aV&
aVamp
p3156
aV;
aV15
p3157
aV%
aVof
p3158
aV#tea
p3159
aVsale
p3160
aVgoes
p3161
aVto
p3162
aV#animal
p3163
aVshelters
p3164
aV!
aV#cats
p3165
aV#cat
p3166
aVhttps
p3167
aV:/
p3168
aV/
aV\u2026
asg16
g17
(S'\x07\xe0\x01\x15\x05\x1f"\x00\x00\x00'
tRp3169
sg19
Nsg20
Vvtknitboy
p3170
sa(dp3171
g3
(lp3172
Vrt
p3173
aV@cascamike
p3174
aV:
aV.
aV@berniesanders
p3175
aValso
p3176
aVraised
p3177
aVbetween
p3178
aVthose
p3179
aVamounts
p3180
aVtoday
p3181
aV,
aVbut
p3182
aVfrom
p3183
aVworking
p3184
aVpeople
p3185
aVgiving
p3186
aVan
p3187
aVaverage
p3188
aVof
p3189
aV$
aV29.58
p3190
aV.
aVhttps://t.co/a
p3191
aV\u2026
asg16
g17
(S'\x07\xe0\x01\x15\x05\x17\x08\x00\x00\x00'
tRp3192
sg19
Nsg20
Vvtknitboy
p3193
sa(dp3194
g3
(lp3195
V.
aV@lawrence
p3196
aV@1mdteacher
p3197
aVwhy
p3198
aV?
aV@sensanders
p3199
aVhs
p3200
aVa
aV40
p3201
aVyr
p3202
aVtrack
p3203
aVrec
p3204
aVworking
p3205
aVtoward
p3206
aVracial
p3207
aV/
aVsoc
p3208
aV/
aVecon
p3209
aVjustice
p3210
aV.
aVhrc
p3211
aVdoesn't
p3212
asg16
g17
(S'\x07\xe0\x01\x15\x05\x0f\x14\x00\x00\x00'
tRp3213
sg19
Nsg20
Vvtknitboy
p3214
sa(dp3215
g3
(lp3216
Vrt
p3217
aV@lawrence
p3218
aV:
aV.
aV@kperry4
p3219
aVhmmm
p3220
aVi
aVguess
p3221
aVthat
p3222
aVexplains
p3223
aVwhy
p3224
aVbernie
p3225
aVhas
p3226
aVnever
p3227
aVbeen
p3228
aVon
p3229
aVmy
p3230
aVshow
p3231
aV.
asg16
g17
(S'\x07\xe0\x01\x15\x05\x033\x00\x00\x00'
tRp3232
sg19
Nsg20
Vvtknitboy
p3233
sa(dp3234
g3
(lp3235
Vrt
p3236
aV@sfcount
p3237
aV:
aV@calicobayfarm
p3238
aV@bettybowers
p3239
aVdon't
p3240
aVbe
p3241
aVabsurd
p3242
aV.
aVnow
p3243
aVblaming
p3244
aVthe
p3245
aVpres
p3246
aVfor
p3247
aVyour
p3248
aVown
p3249
aVfailings
p3250
aVas
p3251
aVa
aVmother
p3252
aV-
aVthat's
p3253
aVgoing
p3254
aVtoo
p3255
aVfar
p3256
aV!
asg16
g17
(S"\x07\xe0\x01\x15\x05\x02'\x00\x00\x00"
tRp3257
sg19
Nsg20
Vvtknitboy
p3258
sa(dp3259
g3
(lp3260
V@zebrafinch
p3261
aV@traditionalhome
p3262
aVomg
p3263
aV.
aVi
aVthought
p3264
aVit
p3265
aVwas
p3266
aVvictorian
p3267
aV!
aVsure
p3268
aV!
aVlet
p3269
aVkid
p3270
aVamd
p3271
aVcats
p3272
aV/
aVdogs
p3273
aVtorture
p3274
aVthe
p3275
aVbirds
p3276
aV!
asg16
g17
(S'\x07\xe0\x01\x15\x049\x1d\x00\x00\x00'
tRp3277
sg19
Nsg20
Vvtknitboy
p3278
sa(dp3279
g3
(lp3280
V.
aV@dougdilg
p3281
aV@lawrence
p3282
aVkey
p3283
aVis
p3284
aV,
aVeligibility
p3285
aVmust
p3286
aVbe
p3287
aVdecided
p3288
aVbefore
p3289
aV.
aV.
aV.
aVthen
p3290
aV,
aVmoot
p3291
aVpoint
p3292
aV.
aVbecuz
p3293
aV,
aVif
p3294
aVhe
p3295
aV.
aVwas
p3296
aVnull
p3297
aV,
aVthe
p3298
aVcandidacy
p3299
aVwas
p3300
aVnull
p3301
aVretro
p3302
asg16
g17
(S'\x07\xe0\x01\x15\x046\x14\x00\x00\x00'
tRp3303
sg19
Nsg20
Vvtknitboy
p3304
sa(dp3305
g3
(lp3306
Vbwahahahahaha
p3307
aV#jokeoftheday
p3308
aVhttps://t.co/kwak160ocm
p3309
asg16
g17
(S'\x07\xe0\x01\x15\x03)%\x00\x00\x00'
tRp3310
sg19
Nsg20
Vvtknitboy
p3311
sa(dp3312
g3
(lp3313
V.
aV@mairead_sayre
p3314
aVhttps://t.co/vw3ymo7pa3
p3315
aVhttps://t.co/cjjrzd3vne
p3316
asg16
g17
(S'\x07\xe0\x01\x15\x03(\x14\x00\x00\x00'
tRp3317
sg19
Nsg20
Vvtknitboy
p3318
sa(dp3319
g3
(lp3320
V.
aV@mairead_sayre
p3321
aVi
aVget
p3322
aVmy
p3323
aVlarger
p3324
aVbags
p3325
aVof
p3326
aVbeans
p3327
aVhere
p3328
aV.
aVrancho
p3329
aVhas
p3330
aV$
aV$
aVbeans
p3331
aVbut
p3332
aVheirloom
p3333
aVhttps://t.co/vw3ymo7pa3
p3334
asg16
g17
(S'\x07\xe0\x01\x15\x03%\x1c\x00\x00\x00'
tRp3335
sg19
Nsg20
Vvtknitboy
p3336
sa(dp3337
g3
(lp3338
V@harajukuroxy
p3339
aVhttps://t.co/nf8esnroma
p3340
asg16
g17
(S'\x07\xe0\x01\x15\x03 \x1e\x00\x00\x00'
tRp3341
sg19
Nsg20
Vvtknitboy
p3342
sa(dp3343
g3
(lp3344
Vsquee
p3345
aV!
aVfrom
p3346
aV@ranchogordo
p3347
aVhttps://t.co/klu1cklf80
p3348
asg16
g17
(S'\x07\xe0\x01\x15\x03\x11\x1d\x00\x00\x00'
tRp3349
sg19
Nsg20
Vvtknitboy
p3350
sa(dp3351
g3
(lp3352
Vrt
p3353
aV@anomaly100
p3354
aV:
aVlook
p3355
aV,
aVsarah
p3356
aVpalin
p3357
aVcompleted
p3358
aVher
p3359
aVfirst
p3360
aVcrossword
p3361
aVpuzzle
p3362
aV.
aVcongrats
p3363
aV!
aVhttps://t.co/lzo2q2kr0m
p3364
asg16
g17
(S'\x07\xe0\x01\x15\x03\x065\x00\x00\x00'
tRp3365
sg19
Nsg20
Vvtknitboy
p3366
sa(dp3367
g3
(lp3368
V@citystitchette
p3369
aV@erinefarley
p3370
aVwhat
p3371
aVelse
p3372
aVu
aVaallergic
p3373
aVto
p3374
aV?
asg16
g17
(S'\x07\xe0\x01\x15\x03\x06\x02\x00\x00\x00'
tRp3375
sg19
Nsg20
Vvtknitboy
p3376
sa(dp3377
g3
(lp3378
V@citystitchette
p3379
aV@erinefarley
p3380
aVcarrots
p3381
aVonions
p3382
aVginger
p3383
aVbroccoli
p3384
aVred
p3385
aVpeppers
p3386
aV.
aVreplace
p3387
aVwith
p3388
aVwhatever
p3389
aVu
aVcan
p3390
aVdo
p3391
aV.
aVmushrooms
p3392
aV,
asg16
g17
(S'\x07\xe0\x01\x15\x03\x05\x17\x00\x00\x00'
tRp3393
sg19
Nsg20
Vvtknitboy
p3394
sa(dp3395
g3
(lp3396
V@citystitchette
p3397
aV@erinefarley
p3398
aVlol
p3399
aV.
aVwell
p3400
aV,
aVnot
p3401
aVfor
p3402
aV.
aVu
aV,
aVso
p3403
aVuh
p3404
aV,
aV.
aVadjust
p3405
aVit
p3406
aV,
aV:-)
p3407
asg16
g17
(S'\x07\xe0\x01\x15\x03\x03\x1d\x00\x00\x00'
tRp3408
sg19
Nsg20
Vvtknitboy
p3409
sa(dp3410
g3
(lp3411
Vrt
p3412
aV@ecochateas
p3413
aV:
aVaged
p3414
aVteas
p3415
aVstored
p3416
aVin
p3417
aVthis
p3418
aVshop
p3419
aVfor
p3420
aVcustomers
p3421
aV.
aVcome
p3422
aVback
p3423
aVin
p3424
aV20
p3425
aVyears
p3426
aV.
aV.
aV.
aVhttps://t.co/dy2jc1gh5h
p3427
asg16
g17
(S'\x07\xe0\x01\x15\x03\x02\x0c\x00\x00\x00'
tRp3428
sg19
Nsg20
Vvtknitboy
p3429
sa(dp3430
g3
(lp3431
V@erinefarley
p3432
aV@citystitchette
p3433
aVi
aV.
aVusually
p3434
aVdon't
p3435
aVjust
p3436
aVdump
p3437
aVthem
p3438
aVon
p3439
aVfor
p3440
aVphoto
p3441
aV,
aVbut
p3442
aVthought
p3443
aVhad
p3444
aV.
aValready
p3445
aVtaken
p3446
aVphoto
p3447
aV.
aVlol
p3448
asg16
g17
(S'\x07\xe0\x01\x15\x03\x01\n\x00\x00\x00'
tRp3449
sg19
Nsg20
Vvtknitboy
p3450
sa(dp3451
g3
(lp3452
V@erinefarley
p3453
aV@citystitchette
p3454
aVthese
p3455
aVweren't
p3456
aVtoasted
p3457
aVcuz
p3458
aVi
aVran
p3459
aVout
p3460
aV.
aVbut
p3461
aVjust
p3462
aVtoasted
p3463
aVa
aVbatch
p3464
aV.
aVtotally
p3465
aVdiff
p3466
aVflavor
p3467
aV!
asg16
g17
(S'\x07\xe0\x01\x15\x02;-\x00\x00\x00'
tRp3468
sg19
Nsg20
Vvtknitboy
p3469
sa(dp3470
g3
(lp3471
V@erinefarley
p3472
aV@citystitchette
p3473
aVwith
p3474
aVlo
p3475
aVmein
p3476
aV,
aVpan
p3477
aVfried
p3478
aVtofu
p3479
aVother
p3480
aVveggies
p3481
aVhttps://t.co/djabrbquw5
p3482
asg16
g17
(S'\x07\xe0\x01\x15\x024\x12\x00\x00\x00'
tRp3483
sg19
Nsg20
Vvtknitboy
p3484
sa(dp3485
g3
(lp3486
V@druchunas
p3487
aV@nerdytogether
p3488
aVlolol
p3489
aV!
aV!
aVexcept
p3490
aVthe
p3491
aVhot
p3492
aVoil
p3493
aVpart
p3494
asg16
g17
(S'\x07\xe0\x01\x15\x02\x1a$\x00\x00\x00'
tRp3495
sg19
Nsg20
Vvtknitboy
p3496
sa(dp3497
g3
(lp3498
V@nerdytogether
p3499
aVi
aVhave
p3500
aVa
aVgreat
p3501
aVenamel
p3502
aVcast
p3503
aViron
p3504
aV.
aVset
p3505
asg16
g17
(S'\x07\xe0\x01\x15\x02\x06\x04\x00\x00\x00'
tRp3506
sg19
Nsg20
Vvtknitboy
p3507
sa(dp3508
g3
(lp3509
V@nerdytogether
p3510
aVlol
p3511
aV.
aVi
aVthrew
p3512
aVaway
p3513
aVmy
p3514
aVolder
p3515
aVscratched
p3516
aVones
p3517
aVlol
p3518
asg16
g17
(S'\x07\xe0\x01\x15\x02\x00\x01\x00\x00\x00'
tRp3519
sg19
Nsg20
Vvtknitboy
p3520
sa(dp3521
g3
(lp3522
V@erinefarley
p3523
aV@citystitchette
p3524
aVu
aVwould
p3525
aVhv
p3526
aVloved
p3527
aVm
aVbroc
p3528
aVdish
p3529
aVtonight
p3530
aVhttps://t.co/ei59nqx5yj
p3531
asg16
g17
(S'\x07\xe0\x01\x15\x01;\r\x00\x00\x00'
tRp3532
sg19
Nsg20
Vvtknitboy
p3533
sa(dp3534
g3
(lp3535
V@erinefarley
p3536
aV@citystitchette
p3537
aVroasted
p3538
aVcauliflower
p3539
aVmuch
p3540
aVdifferent
p3541
aV.
aV.
aV.
aVyum
p3542
aV!
asg16
g17
(S'\x07\xe0\x01\x15\x01:)\x00\x00\x00'
tRp3543
sg19
Nsg20
Vvtknitboy
p3544
sa(dp3545
g3
(lp3546
V@nerdytogether
p3547
aVlol
p3548
aV.
aVme
p3549
aVtoo
p3550
aV.
aVi
aVmeant
p3551
aVnot
p3552
aVpc
p3553
aVcuz
p3554
aVthey
p3555
aVbreak
p3556
aVdown
p3557
aVand
p3558
aVr
aVtoxic
p3559
aV.
aVlol
p3560
aV.
asg16
g17
(S'\x07\xe0\x01\x15\x010\x12\x00\x00\x00'
tRp3561
sg19
Nsg20
Vvtknitboy
p3562
sa(dp3563
g3
(lp3564
V@nerdytogether
p3565
aVso
p3566
aVit
p3567
aVdoesn't
p3568
aVstick
p3569
aV.
aVdo
p3570
aVthis
p3571
aV.
aVperiodically
p3572
aVin
p3573
aVthis
p3574
aVfirst
p3575
aVminute
p3576
aVtil
p3577
aVit
p3578
aVseals
p3579
asg16
g17
(S'\x07\xe0\x01\x15\x01.\x03\x00\x00\x00'
tRp3580
sg19
Nsg20
Vvtknitboy
p3581
sa(dp3582
g3
(lp3583
V@nerdytogether
p3584
aVhave
p3585
aVhot
p3586
aVoil
p3587
aVbut
p3588
aVnot
p3589
aVsmoking
p3590
aV.
aVnon
p3591
aVstick
p3592
aVpan
p3593
aV(
aVi
aVknow
p3594
aVthey
p3595
aVr
aVnot
p3596
aVpc
p3597
aVthese
p3598
aVdays
p3599
aVlol
p3600
aV)
aV.
aVput
p3601
aVin
p3602
aV.
aVmove
p3603
aVaround
p3604
aVa
aVcouple
p3605
aVtimes
p3606
asg16
g17
(S'\x07\xe0\x01\x15\x01-\x0c\x00\x00\x00'
tRp3607
sg19
Nsg20
Vvtknitboy
p3608
sa(dp3609
g3
(lp3610
V@nerdytogether
p3611
aVanother
p3612
aV(
aVuse
p3613
aVa
aVcotton
p3614
aVtowel
p3615
aV,
aVnot
p3616
aVa
aVthin
p3617
aVone
p3618
aV,
aVwant
p3619
aVto
p3620
aVabsorb
p3621
aVall
p3622
aVthe
p3623
aVmoisture
p3624
aV)
aVpress
p3625
aVfirmly
p3626
aVbut
p3627
aVnot
p3628
aVto
p3629
aVbreak
p3630
aV.
aVpat
p3631
aVaround
p3632
aV)
asg16
g17
(S'\x07\xe0\x01\x15\x01%\x05\x00\x00\x00'
tRp3633
sg19
Nsg20
Vvtknitboy
p3634
sa(dp3635
g3
(lp3636
V@nerdytogether
p3637
aVtake
p3638
aVit
p3639
aVout
p3640
aVrinse
p3641
aVit
p3642
aV.
aVlet
p3643
aVit
p3644
aVdrain
p3645
aV/
aVrest
p3646
aVlike
p3647
aV5
aV-
aV10
p3648
aVmins
p3649
aVthen
p3650
aVpat
p3651
aVdry
p3652
aV.
aVslice
p3653
aV.
aVlay
p3654
aVslices
p3655
aVon
p3656
aVreally
p3657
aVabsorbent
p3658
aVtowel
p3659
aVcover
p3660
aVwith
p3661
asg16
g17
(S'\x07\xe0\x01\x15\x01#\x1d\x00\x00\x00'
tRp3662
sg19
Nsg20
Vvtknitboy
p3663
sa.