(lp1
(dp2
S'text'
p3
(lp4
Vquick
p5
aVlittle
p6
aVribbed
p7
aVcowl
p8
aVof
p9
aVmerino
p10
aVpaca
p11
aVwith
p12
aVhandspun
p13
aVbunny
p14
aVhttps://t.co/wujwrglhzi
p15
asS'created_at'
p16
cdatetime
datetime
p17
(S'\x07\xe0\x01\x18\n\x14\x01\x00\x00\x00'
tRp18
sS'lat/long'
p19
Nsa(dp20
g3
(lp21
Vbrrr
p22
aV.
aV-
aV8
aVf
aV.
aVnot
p23
aVwindchill
p24
aV.
aV74
p25
aVinside
p26
aV.
aVwoodstove
p27
aVtoasty
p28
aVhttps://t.co/rb5jg5gqdt
p29
asg16
g17
(S'\x07\xe0\x01\x18\t%\x05\x00\x00\x00'
tRp30
sg19
Nsa(dp31
g3
(lp32
Vrt
p33
aV@darjeelingtea
p34
aV:
aVwhile
p35
aV#touring
p36
aVa
aVdarjeeling
p37
aV#tea
p38
aVestate
p39
aV,
aVone
p40
aVfinds
p41
aVsuch
p42
aVrocks
p43
aVwhich
p44
aVis
p45
aVperfect
p46
aVto
p47
aVtake
p48
aVrest
p49
aVand
p50
aVmove
p51
aVon
p52
aV.
aVhttps://t.co/jz
p53
aV\u2026
asg16
g17
(S'\x07\xe0\x01\x18\x06\x10*\x00\x00\x00'
tRp54
sg19
Nsa(dp55
g3
(lp56
V@heatherhal
p57
aV@whats4dinnermom
p58
aV@lunaraven13
p59
aVthink
p60
aVanything
p61
aVwas
p62
aVup
p63
asg16
g17
(S'\x07\xe0\x01\x18\x06\t\x1f\x00\x00\x00'
tRp64
sg19
Nsa(dp65
g3
(lp66
V@heatherhal
p67
aV@whats4dinnermom
p68
aV@lunaraven13
p69
aVi
aVthought
p70
aVth
p71
aVcough
p72
aVwas
p73
aVstrep
p74
aVit
p75
aVwas
p76
aVgetting
p77
aVnasty
p78
aV.
aVbut
p79
aVi
aVhad
p80
aVa
aVphysical
p81
aVlast
p82
aVweek
p83
aVand
p84
aVshe
p85
aVdidn't
p86
asg16
g17
(S'\x07\xe0\x01\x18\x06\t\x11\x00\x00\x00'
tRp87
sg19
Nsa(dp88
g3
(lp89
V@heatherhal
p90
aV@whats4dinnermom
p91
aV@lunaraven13
p92
aVe
aVcigs
p93
aVthe
p94
aVsmokeless
p95
aVthings
p96
asg16
g17
(S'\x07\xe0\x01\x18\x06\x07\n\x00\x00\x00'
tRp97
sg19
Nsa(dp98
g3
(lp99
V@whats4dinnermom
p100
aV@heatherhal
p101
aV@lunaraven13
p102
aVmullein
p103
aVleaf
p104
aVor
p105
aVflower
p106
aV?
asg16
g17
(S'\x07\xe0\x01\x18\x06\x02\x12\x00\x00\x00'
tRp107
sg19
Nsa(dp108
g3
(lp109
V@whats4dinnermom
p110
aV@lunaraven13
p111
aV@heatherhal
p112
aVin
p113
aVhot
p114
aVwater
p115
aVand
p116
aVthis
p117
aVhttps://t.co/ktlqykrvly
p118
asg16
g17
(S'\x07\xe0\x01\x18\x06\x01 \x00\x00\x00'
tRp119
sg19
Nsa(dp120
g3
(lp121
V@whats4dinnermom
p122
aV@lunaraven13
p123
aV@heatherhal
p124
aVdoing
p125
aVthis
p126
aV.
aVhttps://t.co/awpfyia1ff
p127
asg16
g17
(S'\x07\xe0\x01\x18\x06\x01\x11\x00\x00\x00'
tRp128
sg19
Nsa(dp129
g3
(lp130
V@whats4dinnermom
p131
aV@lunaraven13
p132
aV@heatherhal
p133
aVplus
p134
aV,
aVhad
p135
aV.
aVsick
p136
aVbunny
p137
aVwas
p138
aVup
p139
aV36
p140
aVhrs
p141
aV.
aVfinally
p142
aV.
aVsleep
p143
aV.
aVtonight
p144
asg16
g17
(S'\x07\xe0\x01\x18\x056/\x00\x00\x00'
tRp145
sg19
Nsa(dp146
g3
(lp147
V@whats4dinnermom
p148
aV@lunaraven13
p149
aV@heatherhal
p150
aVso
p151
aVit's
p152
aVa
aVnever
p153
aVending
p154
aV.
aVcycle
p155
aV,
aVso
p156
aVmaybe
p157
aVnot
p158
aVreally
p159
aVa
aVvirus
p160
aV.
aVplus
p161
aVi
aVdon't
p162
aVsleep
p163
aVso
p164
aVhard
p165
aVto
p166
aVrecoup
p167
asg16
g17
(S'\x07\xe0\x01\x18\x056\x01\x00\x00\x00'
tRp168
sg19
Nsa(dp169
g3
(lp170
V@whats4dinnermom
p171
aV@lunaraven13
p172
aV@heatherhal
p173
aVi've
p174
aVdone
p175
aVall
p176
aVth
p177
aVherbal
p178
aVhome
p179
aVstuff
p180
aV.
aVbut
p181
aVthink
p182
aVth
p183
aVcough
p184
aVstressed
p185
aVth
p186
aVvocal
p187
aVchords
p188
aV/
aVneck
p189
aVmuscles
p190
asg16
g17
(S'\x07\xe0\x01\x18\x055\x10\x00\x00\x00'
tRp191
sg19
Nsa(dp192
g3
(lp193
V@lunaraven13
p194
aV@heatherhal
p195
aVi've
p196
aVhad
p197
aVthis
p198
aVannoying
p199
aVcough
p200
aVfor
p201
aV4
aVweeks
p202
aVnow
p203
aVcan't
p204
aVget
p205
aVrid
p206
aV.
aVof
p207
aV.
aVthought
p208
aVit
p209
aVwas
p210
aVflu
p211
aVish
p212
aVthen
p213
aVjust
p214
aVcough
p215
asg16
g17
(S'\x07\xe0\x01\x18\x05-\x0b\x00\x00\x00'
tRp216
sg19
Nsa(dp217
g3
(lp218
V@heatherhal
p219
aV@lunaraven13
p220
aVor
p221
aVjust
p222
aVa
aVmug
p223
aVof
p224
aVfresh
p225
aVginger
p226
aVjuice
p227
aVhoney
p228
aVrosemary
p229
aVhot
p230
aVwater
p231
aVsoothing
p232
aV!
asg16
g17
(S'\x07\xe0\x01\x18\x046\x11\x00\x00\x00'
tRp233
sg19
Nsa(dp234
g3
(lp235
V@heatherhal
p236
aV@lunaraven13
p237
aVhmmm
p238
aVrosemary
p239
aVthyme
p240
aVhave
p241
aVantibacterial
p242
aVproperties
p243
aV.
aVmore
p244
aVhelpful
p245
asg16
g17
(S'\x07\xe0\x01\x18\x044\x03\x00\x00\x00'
tRp246
sg19
Nsa(dp247
g3
(lp248
Vrt
p249
aV@mattison
p250
aV:
aVsociopath-in-chief
p251
aV.
aVshades
p252
aVof
p253
aVcheney
p254
aV.
aVhttps://t.co/g6f8fvnjyf
p255
aV#tcot
p256
asg16
g17
(S'\x07\xe0\x01\x17\x140+\x00\x00\x00'
tRp257
sg19
Nsa(dp258
g3
(lp259
Vrt
p260
aV@mashablenews
p261
aV:
aVsledders
p262
aVhave
p263
aVinvaded
p264
aVcapitol
p265
aVhill
p266
aVhttps://t.co/wy7euocojd
p267
aV(
aV\U0001f4f8
aV:
aV@scottwongdc
p268
aV)
aV#blizzard2016
p269
aVhttps://t.co/gqt8httw0m
p270
asg16
g17
(S'\x07\xe0\x01\x17\x140\x1b\x00\x00\x00'
tRp271
sg19
Nsa(dp272
g3
(lp273
Vrt
p274
aV@bluedupage
p275
aV:
aVhalf
p276
aVthe
p277
aVforeign
p278
aVpolicy
p279
aVexperts
p280
aVbehind
p281
aVclinton
p282
aV\u2019
aVs
aVanti-sanders
p283
aVletter
p284
aVhave
p285
aVmilitary
p286
aVindustry
p287
aVties
p288
aVhttps://t.co/il1lmnceme
p289
asg16
g17
(S'\x07\xe0\x01\x17\x140\x10\x00\x00\x00'
tRp290
sg19
Nsa(dp291
g3
(lp292
Vrt
p293
aV@yesmrgilbert
p294
aV:
aV@nbcnightlynews
p295
aVdisgusting
p296
aVarrogance
p297
aV,
aVhis
p298
aVsupport
p299
aVlies
p300
aVin
p301
aVthe
p302
aVuneducated
p303
aVamerican
p304
aVpopulation
p305
asg16
g17
(S'\x07\xe0\x01\x17\x14.;\x00\x00\x00'
tRp306
sg19
Nsa(dp307
g3
(lp308
V@trumpetite
p309
aVsent
p310
aVu
aVdm
p311
aV.
aVhttps://t.co/oqtkgdd3fx
p312
aVgo
p313
aV.
aVto
p314
aVbed
p315
aV.
aVup
p316
aVall
p317
aVnight
p318
aVwith
p319
aVsick
p320
aVbunny
p321
aV.
aVok
p322
aV.
aVso
p323
aVfar
p324
aV.
aVxoxo
p325
asg16
g17
(S'\x07\xe0\x01\x17\x1387\x00\x00\x00'
tRp326
sg19
Nsa(dp327
g3
(lp328
V@trumpetite
p329
aVand
p330
aVmuch
p331
aVof
p332
aVtrump's
p333
aVamerica
p334
aV.
aV.
aV.
aVbetter
p335
aVdm
p336
aVu
aVthis
p337
aV.
aV.
aV.
asg16
g17
(S'\x07\xe0\x01\x17\x135)\x00\x00\x00'
tRp338
sg19
Nsa(dp339
g3
(lp340
V@trumpetite
p341
aVit's
p342
aVjust
p343
aVhard
p344
aVwhen
p345
aVonce
p346
aVu
aVelect
p347
aVsomeone
p348
aVthey
p349
aVgo
p350
aV.
aVto
p351
aV.
aVdc
p352
aVand
p353
aVbecome
p354
aVbeholden
p355
aVto
p356
aVlobbyists
p357
aV.
aVso
p358
aVmuch
p359
aVfor
p360
aVdemocracy
p361
asg16
g17
(S'\x07\xe0\x01\x17\x1344\x00\x00\x00'
tRp362
sg19
Nsa(dp363
g3
(lp364
V@trumpetite
p365
aVpeople
p366
aVlike
p367
aVme
p368
aVr
aVquite
p369
aVaware
p370
aVof
p371
aVour
p372
aVfaults
p373
aV.
aVlol
p374
aV.
asg16
g17
(S'\x07\xe0\x01\x17\x133(\x00\x00\x00'
tRp375
sg19
Nsa(dp376
g3
(lp377
V@trumpetite
p378
aVi
aV.
aVget
p379
aVth
p380
aVreligious
p381
aVdistinction
p382
aVlol
p383
aV.
aVsorry
p384
aVabout
p385
aVth
p386
aVoverreaction
p387
aV.
aVi
aVjust
p388
aVget
p389
aVtired
p390
aVof
p391
aVcanadians
p392
aVshitting
p393
aVon
p394
aVamerica
p395
aV.
asg16
g17
(S'\x07\xe0\x01\x17\x133\n\x00\x00\x00'
tRp396
sg19
Nsa(dp397
g3
(lp398
V@trumpetite
p399
aVwell
p400
aV.
aVthat
p401
aVpart
p402
aVis
p403
aVtrue
p404
aV.
asg16
g17
(S'\x07\xe0\x01\x17\x13-\x02\x00\x00\x00'
tRp405
sg19
Nsa(dp406
g3
(lp407
V@trumpetite
p408
aVie
p409
aVwould
p410
aVsay
p411
aVharper
p412
aVwas
p413
aVa
aVtotal
p414
aVdouche
p415
aVbag
p416
aV,
aVnot
p417
aVcanadians
p418
aV.
aV.
aV.
asg16
g17
(S'\x07\xe0\x01\x17\x13)9\x00\x00\x00'
tRp419
sg19
Nsa(dp420
g3
(lp421
V@trumpetite
p422
aVand
p423
aVit's
p424
aVusually
p425
aVnot
p426
aVthe
p427
aVpeople
p428
aV,
aVrather
p429
aVthe
p430
aVpowerful
p431
asg16
g17
(S'\x07\xe0\x01\x17\x13)\x06\x00\x00\x00'
tRp432
sg19
Nsa(dp433
g3
(lp434
V@trumpetite
p435
aVi
aVtry
p436
aVnot
p437
aVto
p438
aVmake
p439
aVdisparaging
p440
aVremarks
p441
aVabout
p442
aVcountries
p443
aVin
p444
aVgeneral
p445
aVas
p446
aVi
aVhave
p447
aVfriends
p448
aVin
p449
aVmany
p450
aVlands
p451
aV.
asg16
g17
(S'\x07\xe0\x01\x17\x13(\x1a\x00\x00\x00'
tRp452
sg19
Nsa(dp453
g3
(lp454
V@trumpetite
p455
aVit's
p456
aVnot
p457
aVall
p458
aVamericans
p459
aV.
aV.
aV.
aVand
p460
aVkinda
p461
aVhurtful
p462
aVto
p463
aVthose
p464
aVof
p465
aVus
p466
aVr
aVur
p467
aVfriends
p468
aV.
aV.
aV.
asg16
g17
(S'\x07\xe0\x01\x17\x13&*\x00\x00\x00'
tRp469
sg19
Nsa(dp470
g3
(lp471
V@trumpetite
p472
aVc'mon
p473
aV,
aVenuf
p474
aVwith
p475
aVthe
p476
aVshitting
p477
aVon
p478
aVamericans
p479
aV.
aVthere's
p480
aVonly
p481
aV30
p482
aV%
aVok
p483
aV,
aV40
p484
aV%
aVwe
p485
aVwant
p486
aVto
p487
aVkick
p488
aVout
p489
aV.
asg16
g17
(S'\x07\xe0\x01\x17\x13$\x00\x00\x00\x00'
tRp490
sg19
Nsa(dp491
g3
(lp492
V@kimu
p493
aVhttps://t.co/uz4zghkbfm
p494
asg16
g17
(S'\x07\xe0\x01\x17\x12\x1f\x10\x00\x00\x00'
tRp495
sg19
Nsa(dp496
g3
(lp497
V@kimu
p498
aVcan
p499
aValso
p500
aVget
p501
aVa
aVlb
p502
aVof
p503
aVit
p504
aVlooseleaf
p505
aVonline
p506
aV.
aV1
aV/
aV8
aVth
p507
aVcost
p508
aV/
aVbag
p509
asg16
g17
(S'\x07\xe0\x01\x17\x12\x0c\x0e\x00\x00\x00'
tRp510
sg19
Nsa(dp511
g3
(lp512
V@kimu
p513
aVu
aVgotta
p514
aVtry
p515
aVthis
p516
aVhttps://t.co/ue4lgkc0ho
p517
asg16
g17
(S'\x07\xe0\x01\x17\x12\x0b\x02\x00\x00\x00'
tRp518
sg19
Nsa(dp519
g3
(lp520
V@kimu
p521
aVahhhh
p522
aV!
aVtisanes
p523
aV!
asg16
g17
(S'\x07\xe0\x01\x17\x12\n\x07\x00\x00\x00'
tRp524
sg19
Nsa(dp525
g3
(lp526
V@kimu
p527
aVwhat
p528
aVabout
p529
aVe
aV?
aV!
asg16
g17
(S'\x07\xe0\x01\x17\x12\t\x1a\x00\x00\x00'
tRp530
sg19
Nsa(dp531
g3
(lp532
V@kimu
p533
aVhot
p534
aVchocolate
p535
aVday
p536
aV?
aV!
asg16
g17
(S'\x07\xe0\x01\x17\x12\x08%\x00\x00\x00'
tRp537
sg19
Nsa(dp538
g3
(lp539
Vrt
p540
aV@politicususa
p541
aV:
aVted
p542
aVcruz
p543
aVbusted
p544
aVfor
p545
aVlying
p546
aVabout
p547
aVnot
p548
aVhaving
p549
aVhealth
p550
aVinsurance
p551
aVhttps://t.co/vrjt3w1xwe
p552
aVvia
p553
aV@politicususa
p554
aV#p2
p555
aV#p2b
p556
aV#ctl
p557
asg16
g17
(S'\x07\xe0\x01\x17\x11\x0c!\x00\x00\x00'
tRp558
sg19
Nsa(dp559
g3
(lp560
Vrt
p561
aV@citystitchette
p562
aV:
aVa
aVbit
p563
aVof
p564
aVa
aVwhiteout
p565
aVat
p566
aVtimes
p567
aV,
aVbut
p568
aVwe
p569
aVenjoyed
p570
aVour
p571
aVsnowy
p572
aVwalk
p573
aV.
aV#centralpark
p574
aV#snowmaggedon2016
p575
aVhttps://t.co/n2ti41xj4z
p576
asg16
g17
(S'\x07\xe0\x01\x17\x11\x036\x00\x00\x00'
tRp577
sg19
Nsa(dp578
g3
(lp579
Vtigger
p580
aVenjoying
p581
aVa
aV74
p582
aVdegree
p583
aVsunny
p584
aVroom
p585
aV(
aVwoodstove
p586
aVgoing
p587
aV)
aV.
aVwas
p588
aV-
aV3
aVf
aVoutside
p589
aVthis
p590
aVmorning
p591
aV.
aV+
aV5
aVnow
p592
aVhttps://t.co/rxqqlxxxsf
p593
asg16
g17
(S'\x07\xe0\x01\x17\x10(%\x00\x00\x00'
tRp594
sg19
Nsa(dp595
g3
(lp596
V@kimu
p597
aVwhat
p598
aVdid
p599
aVu
aVguys
p600
aVdo
p601
aVtoday
p602
aV?
aV!
asg16
g17
(S'\x07\xe0\x01\x17\x10\x1a\x13\x00\x00\x00'
tRp603
sg19
Nsa(dp604
g3
(lp605
Vrt
p606
aV@nationalzoo
p607
aV:
aVtian
p608
aVtian
p609
aVwoke
p610
aVup
p611
aVthis
p612
aVmorning
p613
aVto
p614
aVa
aVlot
p615
aVof
p616
aVsnow
p617
aV,
aVand
p618
aVhe
p619
aVwas
p620
aVpretty
p621
aVexcited
p622
aVabout
p623
aVit
p624
aV.
aV\U0001f43c
aV\U0001f328
aV#blizzard2016
p625
aVhttps://t.co/grhi9t1
p626
aV\u2026
asg16
g17
(S'\x07\xe0\x01\x17\x10\x17 \x00\x00\x00'
tRp627
sg19
Nsa(dp628
g3
(lp629
V@druchunas
p630
aV@michaelpagewx
p631
aVhttps://t.co/bxirkropvl
p632
asg16
g17
(S'\x07\xe0\x01\x17\x0c8\x1e\x00\x00\x00'
tRp633
sg19
Nsa(dp634
g3
(lp635
V@druchunas
p636
aVlol
p637
aV.
aVno
p638
aVdriving
p639
aVto
p640
aVli
p641
aVtil
p642
aVsunday
p643
aV!
asg16
g17
(S'\x07\xe0\x01\x17\x0c8\x04\x00\x00\x00'
tRp644
sg19
Nsa(dp645
g3
(lp646
V@danriversitv
p647
aVc
aVor
p648
aVf
aV?
asg16
g17
(S'\x07\xe0\x01\x17\x0c\n\x1b\x00\x00\x00'
tRp649
sg19
Nsa(dp650
g3
(lp651
Vrt
p652
aV@cnnbrk
p653
aV:
aVstorm
p654
aVcauses
p655
aV35
p656
aV-
aVmile
p657
aVbackup
p658
aVon
p659
aVsouthbound
p660
aVi
aV-
aV75
p661
aVin
p662
aVkentucky
p663
aV,
aVstate
p664
aVtrooper
p665
aVtold
p666
aVcnn
p667
aV.
aVhttps://t.co/yapguvrooe
p668
aVhttps://t.co/3bxfqi
p669
aV\u2026
asg16
g17
(S'\x07\xe0\x01\x17\x0b,\r\x00\x00\x00'
tRp670
sg19
Nsa(dp671
g3
(lp672
V@edencottage
p673
aV@edinyarnfest
p674
aVahh
p675
aV.
aVjust
p676
aVmeant
p677
aVthat
p678
aVthe
p679
aV@
aVand
p680
aVmidwinter
p681
aVas
p682
aVa
aVtwitter
p683
aVhandle
p684
aVis
p685
aV.
aVtaken
p686
aVas
p687
aVa
aVmovie
p688
aVstudio
p689
aVin
p690
aVcalifornia
p691
asg16
g17
(S'\x07\xe0\x01\x17\x0b\x15\x1e\x00\x00\x00'
tRp692
sg19
Nsa(dp693
g3
(lp694
Vrt
p695
aV@shibaguyz
p696
aV:
aVno
p697
aVmore
p698
aVwonky
p699
aV#crochet
p700
aVedges
p701
aVwith
p702
aVthis
p703
aVsimple
p704
aVtechnique
p705
aV:
aVhttps://t.co/m9so7grz00
p706
aVhttps://t.co/yrpdngkiy8
p707
asg16
g17
(S'\x07\xe0\x01\x17\t97\x00\x00\x00'
tRp708
sg19
Nsa(dp709
g3
(lp710
Vrt
p711
aV@mahamosa
p712
aV:
aVhow
p713
aVand
p714
aVwhen
p715
aVto
p716
aVvote
p717
aVfor
p718
aVbernie
p719
aV(
aVby
p720
aVstate
p721
aV)
aVhttps://t.co/k7qiom9d7z
p722
aV#wearebernie
p723
aV#iowa
p724
aV#southcarolina
p725
aV#nevada
p726
aV#nh
p727
aVhttps://t
p728
aV\u2026
asg16
g17
(S"\x07\xe0\x01\x17\t('\x00\x00\x00"
tRp729
sg19
Nsa(dp730
g3
(lp731
Vrt
p732
aV@euobs
p733
aV:
aV#denmark
p734
aVto
p735
aVseize
p736
aVanything
p737
aVworth
p738
aVmore
p739
aVthan
p740
aV\u20ac
aV1,340,
p741
aVincluding
p742
aVcash
p743
aV,
aVfrom
p744
aV#refugees
p745
aV.
aVhttps://t.co/ddjeliyq66
p746
asg16
g17
(S'\x07\xe0\x01\x17\t(\x1d\x00\x00\x00'
tRp747
sg19
Nsa(dp748
g3
(lp749
V@edinyarnfest
p750
aV@edencottage
p751
aVwho
p752
aVis
p753
aVhe
p754
aV?
aV!
aV@
aVmidwinter
p755
aVis
p756
aVa
aVstudio
p757
aVin
p758
aVsanta
p759
aVmonica
p760
aVca
p761
asg16
g17
(S'\x07\xe0\x01\x17\t\x15,\x00\x00\x00'
tRp762
sg19
Nsa(dp763
g3
(lp764
Vrt
p765
aV@tommessner
p766
aV:
aVa
aVfew
p767
aVsnow
p768
aVamounts
p769
aVfrom
p770
aVthe
p771
aVhuge
p772
aVstorm
p773
aV.
aVit
p774
aVis
p775
aVvery
p776
aVearly
p777
aVin
p778
aVthe
p779
aVgame
p780
aV.
aVhttps://t.co/jrgjnzga2n
p781
asg16
g17
(S'\x07\xe0\x01\x17\x03\x1f6\x00\x00\x00'
tRp782
sg19
Nsa(dp783
g3
(lp784
Vrt
p785
aV@wcax
p786
aV:
aV#vt
p787
aVutilities
p788
aVhead
p789
aVsouth
p790
aVto
p791
aVhelp
p792
aVwith
p793
aVstorm
p794
aVoutages
p795
aVhttps://t.co/pdu8tqymsk
p796
aVhttps://t.co/bmoogxc512
p797
asg16
g17
(S'\x07\xe0\x01\x17\x03\n1\x00\x00\x00'
tRp798
sg19
Nsa(dp799
g3
(lp800
Vrt
p801
aV@cirincione
p802
aV:
aVi
aVlike
p803
aVhillary
p804
aV.
aVbut
p805
aVthis
p806
aVattack
p807
aVon
p808
aVbernie
p809
aVfor
p810
aVhis
p811
aVcommon
p812
aVsense
p813
aVdiplomacy
p814
aVwith
p815
aViran
p816
aVis
p817
aVugly
p818
aV&
aVamp
p819
aV;
aVdishonest
p820
aV.
aVhttps://t.co/1mgqvw
p821
aV\u2026
asg16
g17
(S'\x07\xe0\x01\x17\x03\x005\x00\x00\x00'
tRp822
sg19
Nsa(dp823
g3
(lp824
Vrt
p825
aV@cnn
p826
aV:
aVas
p827
aVsnow
p828
aVfalls
p829
aV,
aV@the_old_guard
p830
aVstands
p831
aVwatch
p832
aVat
p833
aVthe
p834
aVtomb
p835
aVof
p836
aVthe
p837
aVunknown
p838
aVsoldier
p839
aVhttps://t.co/az2vpihmdk
p840
aV#blizzard2016
p841
aVhttps://t.co/1
p842
aV\u2026
asg16
g17
(S'\x07\xe0\x01\x17\x02;.\x00\x00\x00'
tRp843
sg19
Nsa(dp844
g3
(lp845
Vrt
p846
aV@patbagley
p847
aV:
aVall
p848
aVthese
p849
aVpeople
p850
aVyelling
p851
aVthat
p852
aVsocialist
p853
aVbernie
p854
aVsanders
p855
aVwants
p856
aVto
p857
aVtake
p858
aVtheir
p859
aVstuff
p860
aVwhile
p861
aVwall
p862
aVst
p863
aV.
aVschemes
p864
aVto
p865
aVdo
p866
aVjust
p867
aVthat
p868
aV.
asg16
g17
(S'\x07\xe0\x01\x17\x02;\x1d\x00\x00\x00'
tRp869
sg19
Nsa(dp870
g3
(lp871
V@kimu
p872
aVno
p873
aVway
p874
aV!
aVwhat
p875
aVdo
p876
aVyou
p877
aVdo
p878
aVthere
p879
aV?
aV!
aVcool
p880
asg16
g17
(S'\x07\xe0\x01\x17\x01:"\x00\x00\x00'
tRp881
sg19
Nsa(dp882
g3
(lp883
V@kimu
p884
aVwhat
p885
aVsection
p886
aVdo
p887
aVu
aVlive
p888
aVin
p889
aV?
asg16
g17
(S'\x07\xe0\x01\x17\x01,\x0e\x00\x00\x00'
tRp890
sg19
Nsa(dp891
g3
(lp892
V@kimu
p893
aVdid
p894
aVi
aVtell
p895
aVu
aVmy
p896
aVhubby
p897
aVwent
p898
aVto
p899
aVvandy
p900
aV?
aV!
aV'
aV82
p901
asg16
g17
(S'\x07\xe0\x01\x17\x01+0\x00\x00\x00'
tRp902
sg19
Nsa(dp903
g3
(lp904
Vwoah
p905
aV!
aV10
p906
aV"
aVin
p907
aVnashville
p908
aV?
aV!
aV@kimu
p909
asg16
g17
(S"\x07\xe0\x01\x17\x01'\x15\x00\x00\x00"
tRp910
sg19
Nsa(dp911
g3
(lp912
Vwell
p913
aV,
aVchessie
p914
aVis
p915
aVacting
p916
aVpoorly
p917
aVagain
p918
aV.
aVhe
p919
aVpulled
p920
aVthru
p921
aVfrom
p922
aV2
aVweeks
p923
aVago
p924
aV,
aVbut
p925
aVhe's
p926
aVacting
p927
aVquite
p928
aVlethargic
p929
aVagain
p930
aV.
aVpreparing
p931
aVmyself
p932
aV.
asg16
g17
(S'\x07\xe0\x01\x17\x004\x0e\x00\x00\x00'
tRp933
sg19
Nsa(dp934
g3
(lp935
V@organicgay
p936
aVlol
p937
aVi
aVdon't
p938
aVcap
p939
aVany
p940
aVgod
p941
aV/
aVdess
p942
asg16
g17
(S"\x07\xe0\x01\x16\x17\x15'\x00\x00\x00"
tRp943
sg19
Nsa(dp944
g3
(lp945
Vand
p946
aVthe
p947
aVcloak
p948
aVof
p949
aVthe
p950
aVgoddess
p951
aVswoops
p952
aVover
p953
aVthe
p954
aVevil
p955
aVcity
p956
aV.
aV.
aV.
aVhttps://t.co/fmw9rv1ryt
p957
asg16
g17
(S'\x07\xe0\x01\x16\x11\x040\x00\x00\x00'
tRp958
sg19
Nsa(dp959
g3
(lp960
Vrt
p961
aV@watchdogsniffer
p962
aV:
aVhillary
p963
aVclinton
p964
aV-
aVignores
p965
aVthe
p966
aVfact
p967
aVobamacare
p968
aV(
aVprivate
p969
aVhealth
p970
aVinsurance
p971
aV)
aVremains
p972
aVunaffordable
p973
aVfor
p974
aV30
p975
aV+
aVmillion
p976
aVamericans
p977
aV.
aV\u2026
asg16
g17
(S'\x07\xe0\x01\x16\x10#/\x00\x00\x00'
tRp978
sg19
Nsa(dp979
g3
(lp980
Vrt
p981
aV@philiptortora
p982
aV:
aVoscar
p983
aVnominee
p984
aVcharlotte
p985
aVrampling
p986
aV:
aVdiversity
p987
aVoutcry
p988
aVis
p989
aV'
aVracist
p990
aVto
p991
aVwhites
p992
aV'
aVhttps://t.co/bzzpzv1nsd
p993
aVvia
p994
aV@usatoday
p995
asg16
g17
(S'\x07\xe0\x01\x16\x10#\x16\x00\x00\x00'
tRp996
sg19
Nsa(dp997
g3
(lp998
Vrt
p999
aV@shibaguyz
p1000
aV:
aVlearn
p1001
aVflawless
p1002
aV#crochet
p1003
aVfinishing
p1004
aVwith
p1005
aVour
p1006
aVspecial
p1007
aVend
p1008
aVcap
p1009
aVfinishing
p1010
aVstitch
p1011
aVhttps://t.co/m0kwea9sjc
p1012
aVhttps://t.co/whswmhtwcd
p1013
asg16
g17
(S'\x07\xe0\x01\x16\x10#\t\x00\x00\x00'
tRp1014
sg19
Nsa(dp1015
g3
(lp1016
Vrt
p1017
aV@igorvolsky
p1018
aV:
aVtweeted
p1019
aVby
p1020
aVcongresswoman
p1021
aVwho
p1022
aVsupported
p1023
aVbudget
p1024
aVthat
p1025
aVwould
p1026
aVcut
p1027
aVfood
p1028
aVstamps
p1029
aVby
p1030
aV34
p1031
aV%
aVhttps://t.co/0i5gorbd8b
p1032
aVhttps://t.co/jkhgi3
p1033
aV\u2026
asg16
g17
(S'\x07\xe0\x01\x16\x10"\t\x00\x00\x00'
tRp1034
sg19
Nsa(dp1035
g3
(lp1036
Vrt
p1037
aV@watchdogsniffer
p1038
aV:
aVhillary
p1039
aVclinton
p1040
aV-
aVagainst
p1041
aVthe
p1042
aV#fightfor15
p1043
aV-
aVbut
p1044
aVinstead
p1045
aVsupports
p1046
aV$
aV12
p1047
aVan
p1048
aVhour
p1049
aVas
p1050
aVenough
p1051
aVfor
p1052
aVthe
p1053
aVeveryday
p1054
aVamerican
p1055
aV.
aV#ou
p1056
aV\u2026
asg16
g17
(S'\x07\xe0\x01\x16\x10 \x19\x00\x00\x00'
tRp1057
sg19
Nsa(dp1058
g3
(lp1059
Vrt
p1060
aV@franklinhabit
p1061
aV:
aVit's
p1062
aVfriday
p1063
aV,
aVand
p1064
aVit's
p1065
aVa
aVfridays
p1066
aVwith
p1067
aVfranklin
p1068
aVfriday
p1069
aV.
aVhttps://t.co/krhbbduzoq
p1070
asg16
g17
(S'\x07\xe0\x01\x16\x10 \x04\x00\x00\x00'
tRp1071
sg19
Nsa(dp1072
g3
(lp1073
Vrt
p1074
aV@urbanbohemian
p1075
aV:
aVand
p1076
aVpossibly
p1077
aVmichael
p1078
aVcaine
p1079
aV\u2019
aVs
aVas
p1080
aVwell
p1081
aV.
aVhttps://t.co/gn3chtzd2y
p1082
asg16
g17
(S'\x07\xe0\x01\x16\x10\x1f\x11\x00\x00\x00'
tRp1083
sg19
Nsa(dp1084
g3
(lp1085
Vrt
p1086
aV@watchdogsniffer
p1087
aV:
aVhillary
p1088
aVclinton
p1089
aV-
aVat
p1090
aVa
aVtime
p1091
aVwhen
p1092
aVthe
p1093
aV#tbtf
p1094
aVbanks
p1095
aVare
p1096
aVstill
p1097
aVinvolved
p1098
aVin
p1099
aVrisky
p1100
aVderivatives
p1101
aV-
aVwill
p1102
aVnot
p1103
aVsupport
p1104
aVreinstatin
p1105
aV\u2026
asg16
g17
(S'\x07\xe0\x01\x16\x10\x1f\x08\x00\x00\x00'
tRp1106
sg19
Nsa(dp1107
g3
(lp1108
Vrt
p1109
aV@mattison
p1110
aV:
aV#flintwatercrisis
p1111
aVexemplifies
p1112
aVrepublican
p1113
aVanti-science
p1114
aV,
aVprofit
p1115
aVat
p1116
aVany
p1117
aVcost
p1118
aVideology
p1119
aV.
aVit
p1120
aVis
p1121
aVimmoral
p1122
aV.
aVhttps://t.co/xl8gstfzx7
p1123
aV#
aVt
aV\u2026
asg16
g17
(S'\x07\xe0\x01\x16\x10\x1e:\x00\x00\x00'
tRp1124
sg19
Nsa(dp1125
g3
(lp1126
Vrt
p1127
aV@igorvolsky
p1128
aV:
aVevery
p1129
aVlife
p1130
aVprecious
p1131
aVexcept
p1132
aVfor
p1133
aV17.6
p1134
aVm
aVuninsured
p1135
aVwho've
p1136
aVgained
p1137
aVhealth
p1138
aVcoverage
p1139
aVthrough
p1140
aVobamacare
p1141
aVlaw
p1142
aVu
aVwant
p1143
aVto
p1144
aVrepeal
p1145
aVhttps
p1146
aV:/
p1147
aV\u2026
asg16
g17
(S'\x07\xe0\x01\x16\x10\x1e%\x00\x00\x00'
tRp1148
sg19
Nsa(dp1149
g3
(lp1150
V@urbanbohemian
p1151
aVreally
p1152
aV.
aVi
aVwas
p1153
aVlike
p1154
aV.
aVwtfc
p1155
asg16
g17
(S'\x07\xe0\x01\x16\x10\x17\x08\x00\x00\x00'
tRp1156
sg19
Nsa(dp1157
g3
(lp1158
Vrt
p1159
aV@urbanbohemian
p1160
aV:
aVso
p1161
aV\u2026
aVis
p1162
aVthe
p1163
aVnew
p1164
aVthing
p1165
aVgonna
p1166
aVbe
p1167
aVasking
p1168
aVold
p1169
aVwhite
p1170
aVactors
p1171
aVtheir
p1172
aVthoughts
p1173
aVon
p1174
aVthe
p1175
aVacademy
p1176
aV&
aVamp
p1177
aV;
aVindustry
p1178
aV\u2019
aVs
aVlack
p1179
aVof
p1180
aVdiversity
p1181
aV/
aVrepre
p1182
aV\u2026
asg16
g17
(S'\x07\xe0\x01\x16\x10\x16&\x00\x00\x00'
tRp1183
sg19
Nsa(dp1184
g3
(lp1185
V@romidesigns
p1186
aV@jellidonut
p1187
aVno
p1188
aVway
p1189
aV!
aVu
aVmet
p1190
aV?
aV!
aV!
aV!
asg16
g17
(S'\x07\xe0\x01\x16\x10\x141\x00\x00\x00'
tRp1191
sg19
Nsa(dp1192
g3
(lp1193
V.
aV@jimcantore
p1194
aVget
p1195
aVbuffalo
p1196
aVbison
p1197
aVsocks
p1198
aVfrom
p1199
aVmy
p1200
aV.
aVfriends
p1201
aVat
p1202
aV@buffalowoolco
p1203
aVron
p1204
aV:
aVjim
p1205
aVis
p1206
aVbig
p1207
aVguy
p1208
aVon
p1209
aVthe
p1210
aVweather
p1211
aVchannel
p1212
aV!
aV!
aV!
asg16
g17
(S'\x07\xe0\x01\x16\x10\x0f\x16\x00\x00\x00'
tRp1213
sg19
Nsa(dp1214
g3
(lp1215
Vrt
p1216
aV@thetaskforce
p1217
aV:
aVmissed
p1218
aVlast
p1219
aVnight's
p1220
aV"
aVblack
p1221
aVfeminism
p1222
aV&
aVamp
p1223
aV;
aVmovement
p1224
aVfor
p1225
aVblack
p1226
aVlives
p1227
aV"
aVpanel
p1228
aV?
aVview
p1229
aVit
p1230
aVhere
p1231
aV:
aVhttps://t.co/xl7mpyinn6
p1232
aV#cc16
p1233
aVhttps
p1234
aV\u2026
asg16
g17
(S'\x07\xe0\x01\x16\x10\x0c\x05\x00\x00\x00'
tRp1235
sg19
Nsa(dp1236
g3
(lp1237
Vwhat
p1238
aVa
aVhypocrite
p1239
aV.
aVdefending
p1240
aVthe
p1241
aVindefensible
p1242
aV.
aV@berniesanders
p1243
aV#feelthebern
p1244
aVhttps://t.co/ixpqljycbz
p1245
asg16
g17
(S'\x07\xe0\x01\x16\x10\x0b\x1a\x00\x00\x00'
tRp1246
sg19
Nsa(dp1247
g3
(lp1248
V@urbanbohemian
p1249
aVwas
p1250
aVjust
p1251
aVlol-ing
p1252
aVgood
p1253
aVhumorously
p1254
asg16
g17
(S'\x07\xe0\x01\x16\x10\x08\x16\x00\x00\x00'
tRp1255
sg19
Nsa(dp1256
g3
(lp1257
V@urbanbohemian
p1258
aVlol
p1259
aV.
aVi
aVdidn't
p1260
aVsay
p1261
aVit
p1262
aVwas
p1263
aVsilly
p1264
aV.
aVi
aVlove
p1265
aVit
p1266
aVlpl
p1267
asg16
g17
(S'\x07\xe0\x01\x16\x10\x06+\x00\x00\x00'
tRp1268
sg19
Nsa(dp1269
g3
(lp1270
V@urbanbohemian
p1271
aVdo
p1272
aVlike
p1273
aVone
p1274
aVan
p1275
aVhour
p1276
aVat
p1277
aVthe
p1278
aVsame
p1279
aVspot
p1280
aVfor
p1281
aVsnow
p1282
aVtime
p1283
aVlapse
p1284
aV.
aVlol
p1285
asg16
g17
(S'\x07\xe0\x01\x16\x0f0.\x00\x00\x00'
tRp1286
sg19
Nsa(dp1287
g3
(lp1288
Vrt
p1289
aV@chicagotribune
p1290
aV:
aVmichael
p1291
aVmoore
p1292
aV:
aV"
aVit's
p1293
aVnot
p1294
aVjust
p1295
aVa
aVwater
p1296
aVcrisis
p1297
aV.
aVit's
p1298
aVa
aVracial
p1299
aVcrisis
p1300
aV.
aVit's
p1301
aVa
aVpoverty
p1302
aVcrisis
p1303
aV.
aV"
aVhttps://t.co/fqyzuznu6z
p1304
aVhtt
p1305
aV\u2026
asg16
g17
(S'\x07\xe0\x01\x16\x0f+\x06\x00\x00\x00'
tRp1306
sg19
Nsa(dp1307
g3
(lp1308
Vrt
p1309
aV@nerdytogether
p1310
aV:
aVhorrible
p1311
aV.
aVhow
p1312
aVdoes
p1313
aVa
aVname
p1314
aVaffect
p1315
aVthe
p1316
aVsport
p1317
aVin
p1318
aVany
p1319
aVway
p1320
aV?
aVchange
p1321
aVit
p1322
aVand
p1323
aVstop
p1324
aVbeing
p1325
aVracist
p1326
aV.
aV\U0001f622
aV\U0001f622
aV\U0001f622
aV\U0001f622
aV\U0001f622
aVhttps://t.co/8xpcmzzxv2
p1327
asg16
g17
(S'\x07\xe0\x01\x16\x0f\x1e\x13\x00\x00\x00'
tRp1328
sg19
Nsa(dp1329
g3
(lp1330
Vrt
p1331
aV@treyyingst
p1332
aV:
aVgrocery
p1333
aVstores
p1334
aVin
p1335
aVdc
p1336
aVhave
p1337
aVlines
p1338
aVthat
p1339
aVare
p1340
aV30
p1341
aV+
aVpeople
p1342
aVlong
p1343
aV#blizzard2016
p1344
aVhttps://t.co/0ugb3zxv21
p1345
asg16
g17
(S'\x07\xe0\x01\x16\x0f\x17)\x00\x00\x00'
tRp1346
sg19
Nsa(dp1347
g3
(lp1348
Vrt
p1349
aV@katrinanation
p1350
aV:
aVclinton
p1351
aVknocks
p1352
aVsanders
p1353
aVon
p1354
aVforeign
p1355
aVpolicy
p1356
aVexperience
p1357
aV-
aV-
aVbut
p1358
aVwhat's
p1359
aVexperience
p1360
aVif
p1361
aVleads
p1362
aVto
p1363
aVpoor
p1364
aVjudgment
p1365
aV/
aVwrong
p1366
aVlessons--htt
p1367
aV\u2026
asg16
g17
(S'\x07\xe0\x01\x16\x0f\x152\x00\x00\x00'
tRp1368
sg19
Nsa(dp1369
g3
(lp1370
Vrt
p1371
aV@pdaclimate
p1372
aV:
aVhillary
p1373
aVclinton
p1374
aVrakes
p1375
aVin
p1376
aVmoney
p1377
aVfrom
p1378
aVfossil
p1379
aVfuel
p1380
aVinterests
p1381
aVhttps://t.co/fpgkthqn1d
p1382
asg16
g17
(S'\x07\xe0\x01\x16\x0f\x15\x1e\x00\x00\x00'
tRp1383
sg19
Nsa(dp1384
g3
(lp1385
Vrt
p1386
aV@igorvolsky
p1387
aV:
aVgop
p1388
aVafter
p1389
aV'
aV08
p1390
aVloss
p1391
aV:
aVwe
p1392
aVmust
p1393
aVappeal
p1394
aVto
p1395
aVnew
p1396
aVdemographic
p1397
aVgroups
p1398
aVgop
p1399
aVafter
p1400
aV'
aV12
p1401
aVloss
p1402
aV:
aVwe
p1403
aVmust
p1404
aVappeal
p1405
aVto
p1406
aVnew
p1407
aVdemographic
p1408
aVgop
p1409
aVin
p1410
aV\u2026
asg16
g17
(S'\x07\xe0\x01\x16\x0f\x15\x0e\x00\x00\x00'
tRp1411
sg19
Nsa(dp1412
g3
(lp1413
V@latimes
p1414
aVwhile
p1415
aVhe
p1416
aVwas
p1417
aVdrunk
p1418
aV.
aV.
aV.
asg16
g17
(S'\x07\xe0\x01\x16\x0e6\t\x00\x00\x00'
tRp1419
sg19
Nsa(dp1420
g3
(lp1421
V@kimu
p1422
aVis
p1423
aVe
aVexcited
p1424
aV?
aV!
aVsnow
p1425
aVday
p1426
aVplans
p1427
aV?
asg16
g17
(S'\x07\xe0\x01\x16\x0e-\x1f\x00\x00\x00'
tRp1428
sg19
Nsa(dp1429
g3
(lp1430
Vrt
p1431
aV@latentexistence
p1432
aV:
aV"
aVspecifically
p1433
aVdirected
p1434
aVto
p1435
aVexclude
p1436
aVthe
p1437
aVrey
p1438
aVcharacter
p1439
aVfrom
p1440
aVall
p1441
aVstar
p1442
aVwars-related
p1443
aVmerchandise
p1444
aV"
aVhttps://t.co/f06fjwbrq5
p1445
aVht
p1446
aV\u2026
asg16
g17
(S'\x07\xe0\x01\x16\x0e%\x1f\x00\x00\x00'
tRp1447
sg19
Nsa(dp1448
g3
(lp1449
V.
aV@kimu
p1450
aVhttps://t.co/w5alz6dqec
p1451
asg16
g17
(S'\x07\xe0\x01\x16\x0e$5\x00\x00\x00'
tRp1452
sg19
Nsa(dp1453
g3
(lp1454
Vrt
p1455
aV@jvplive
p1456
aV:
aVwhy
p1457
aVwe
p1458
aVneed
p1459
aVto
p1460
aVfight
p1461
aVfor
p1462
aV#bds
p1463
aVand
p1464
aVrally
p1465
aVagainst
p1466
aVupcoming
p1467
aVlegislation
p1468
aVtrying
p1469
aVto
p1470
aVblock
p1471
aVit
p1472
aV.
aV#bds
p1473
aVyes
p1474
aV.
aVhttps://t.co/yyr8pxziqw
p1475
asg16
g17
(S'\x07\xe0\x01\x16\x0e$\x02\x00\x00\x00'
tRp1476
sg19
Nsa(dp1477
g3
(lp1478
Vrt
p1479
aV@kyle_feldscher
p1480
aV:
aVno
p1481
aVjoke
p1482
aV,
aVthe
p1483
aVentire
p1484
aVfirst
p1485
aVemail
p1486
aVreleased
p1487
aVby
p1488
aVmichigan
p1489
aVgov
p1490
aV.
aVrick
p1491
aVsnyder
p1492
aVis
p1493
aVredacted
p1494
aV.
aVhttps://t.co/rzpif77uet
p1495
asg16
g17
(S'\x07\xe0\x01\x16\x0e#,\x00\x00\x00'
tRp1496
sg19
Nsa(dp1497
g3
(lp1498
Vrt
p1499
aV@bluedupage
p1500
aV:
aVclinton
p1501
aVin
p1502
aV2008
p1503
aV:
aV\u201c
aVsince
p1504
aVwhen
p1505
aVdemocrats
p1506
aVattack
p1507
aVone
p1508
aVanother
p1509
aVon
p1510
aVuniversal
p1511
aVhealth
p1512
aVcare
p1513
aV?
aV\u201d
aVhttps://t.co/fpok2uqlnv
p1514
aVhttps://t.co/
p1515
aV\u2026
asg16
g17
(S'\x07\xe0\x01\x16\x0e\t\x16\x00\x00\x00'
tRp1516
sg19
Nsa(dp1517
g3
(lp1518
Vwow
p1519
aV.
aVeye-opening
p1520
aVarticle
p1521
aVon
p1522
aVhillary's
p1523
aVforeign
p1524
aVpolicy
p1525
aV"
aVexperience
p1526
aV"
aVvs
p1527
aVjudgment
p1528
aVhttps://t.co/e1z8ovgh0z.
p1529
aV#feelthebern
p1530
asg16
g17
(S'\x07\xe0\x01\x16\x0e\x01%\x00\x00\x00'
tRp1531
sg19
Nsa(dp1532
g3
(lp1533
Vrt
p1534
aV@nicola_evans_ph
p1535
aV:
aVlunch
p1536
aVtoday
p1537
aV#veggie
p1538
aVmixed
p1539
aVbean
p1540
aVchilli
p1541
aV&
aVamp
p1542
aV;
aVsweet
p1543
aVcorn
p1544
aVfritter
p1545
aV,
aVinspired
p1546
aVby
p1547
aV@vegsoc_cookery
p1548
aVmexican
p1549
aVday
p1550
aVhttps://t.co/rij9f
p1551
aV\u2026
asg16
g17
(S'\x07\xe0\x01\x16\r/\x1e\x00\x00\x00'
tRp1552
sg19
Nsa(dp1553
g3
(lp1554
V@shibaguyz
p1555
aVfor
p1556
aVme
p1557
aV,
aVit's
p1558
aVearly
p1559
aVmorning
p1560
aV!
aVstill
p1561
aVup
p1562
aVat
p1563
aV8
aV:
aV46
p1564
aVam
p1565
aV.
aV.
aV.
aValmost
p1566
aVbedtime
p1567
aV.
aVlol
p1568
asg16
g17
(S'\x07\xe0\x01\x16\r.%\x00\x00\x00'
tRp1569
sg19
Nsa(dp1570
g3
(lp1571
Vrt
p1572
aV@jricole
p1573
aV:
aVnetanyahu
p1574
aVdemands
p1575
aVmore
p1576
aVbillions
p1577
aVfrom
p1578
aVus
p1579
aVafter
p1580
aViran
p1581
aVdeal
p1582
aV,
aVinsults
p1583
aVus
p1584
aVenvoy
p1585
aV,
aVsteals
p1586
aV.
aV.
aV.
aV-
aVhttps://t.co/excjireyow
p1587
aVhttps://t.co/c
p1588
aV\u2026
asg16
g17
(S'\x07\xe0\x01\x16\r\x12!\x00\x00\x00'
tRp1589
sg19
Nsa(dp1590
g3
(lp1591
Vrt
p1592
aV@guardian
p1593
aV:
aVhillary
p1594
aVclinton
p1595
aVangers
p1596
aViowa
p1597
aVfans
p1598
aVwho
p1599
aVwaited
p1600
aVhours
p1601
aVfor
p1602
aVfive-minute
p1603
aVspeech
p1604
aVhttps://t.co/3jjlx4ppq0
p1605
asg16
g17
(S'\x07\xe0\x01\x16\r\x06\x12\x00\x00\x00'
tRp1606
sg19
Nsa(dp1607
g3
(lp1608
V#roundchurch
p1609
aVin
p1610
aVrichmond
p1611
aV#vermont
p1612
aVhttps://t.co/er3i8xyyoy
p1613
asg16
g17
(S'\x07\xe0\x01\x16\x0c5\x12\x00\x00\x00'
tRp1614
sg19
Nsa(dp1615
g3
(lp1616
V@shibaguyz
p1617
aVlol
p1618
aV.
aVmaybe
p1619
aVcuz
p1620
aVi'm
p1621
aVup
p1622
aVat
p1623
aV3
aV-
aV7
aVam
p1624
aVmy
p1625
aVtime
p1626
aV?
asg16
g17
(S'\x07\xe0\x01\x16\x0b),\x00\x00\x00'
tRp1627
sg19
Nsa(dp1628
g3
(lp1629
V.
aV@axsinvt
p1630
aVhillary's
p1631
aVtake
p1632
aVon
p1633
aV3
aVpolls
p1634
aVwhere
p1635
aVbernie
p1636
aVgoes
p1637
aVup
p1638
aV7
aV-
aV10
p1639
aV%
aV.
aVemail
p1640
aV$
aVraiser
p1641
aV.
aV#feelthebern
p1642
aVhttps://t.co/qwwpeir08u
p1643
asg16
g17
(S'\x07\xe0\x01\x16\n3\x06\x00\x00\x00'
tRp1644
sg19
Nsa(dp1645
g3
(lp1646
V@axsinvt
p1647
aVthat's
p1648
aVinteresting
p1649
aV.
aVi
aVsaw
p1650
aVa
aVpost
p1651
aV.
aVthat
p1652
aVsaid
p1653
aVshe
p1654
aV.
aVdidn't
p1655
aVmention
p1656
aVhim
p1657
aV.
aVyesterday
p1658
aV.
aVshe
p1659
aV.
aVdid
p1660
aV.
aVthe
p1661
aVday
p1662
aVbefore
p1663
aVtho
p1664
aV.
asg16
g17
(S'\x07\xe0\x01\x16\n/-\x00\x00\x00'
tRp1665
sg19
Nsa(dp1666
g3
(lp1667
V@shibaguyz
p1668
aVfigured
p1669
aVit
p1670
aVwas
p1671
aVdue
p1672
aVto
p1673
aVpolitics
p1674
aVlol
p1675
aV.
aVfeel
p1676
aVfree
p1677
aVto
p1678
aVunfoll
p1679
aVme
p1680
aV.
aVi
aVthink
p1681
aVi
aVgot
p1682
aVyou
p1683
aVon
p1684
aVfb
p1685
asg16
g17
(S'\x07\xe0\x01\x16\n\x16 \x00\x00\x00'
tRp1686
sg19
Nsa(dp1687
g3
(lp1688
V@shibaguyz
p1689
aVhey
p1690
aV!
aVdid
p1691
aVyou
p1692
aVguys
p1693
aVmute
p1694
aVme
p1695
aVor
p1696
aVturn
p1697
aVmy
p1698
aVretweets
p1699
aVoff
p1700
aV?
aVcuz
p1701
aVu
aVused
p1702
aVto
p1703
aVthank
p1704
aVme
p1705
aVwhen
p1706
aVi
aVrt
p1707
aVur
p1708
aVstuff
p1709
aVand
p1710
aVall
p1711
aVof
p1712
aVa
aVsudden
p1713
aVit
p1714
aVstopped
p1715
asg16
g17
(S'\x07\xe0\x01\x16\n\x15\x04\x00\x00\x00'
tRp1716
sg19
Nsa(dp1717
g3
(lp1718
Vrt
p1719
aV@hughnaylor
p1720
aV:
aVthe
p1721
aVpaper
p1722
aVof
p1723
aVrecord
p1724
aVin
p1725
aVisrael
p1726
aVcalling
p1727
aVown
p1728
aVcounty
p1729
aVapartheid
p1730
aVstate
p1731
aVand
p1732
aVfor
p1733
aVeffective
p1734
aVsanctions
p1735
aVto
p1736
aVend
p1737
aVits
p1738
aVoccupation
p1739
aVhttps
p1740
aV:/
p1741
aV\u2026
asg16
g17
(S'\x07\xe0\x01\x16\x084\x04\x00\x00\x00'
tRp1742
sg19
Nsa(dp1743
g3
(lp1744
Vrt
p1745
aV@derekmarkham
p1746
aV:
aVso
p1747
aVwhat
p1748
aVexactly
p1749
aVis
p1750
aVthe
p1751
aVholdup
p1752
aVwith
p1753
aVthe
p1754
aVfeds
p1755
aVremoving
p1756
aVthe
p1757
aVasshat
p1758
aVarmed
p1759
aVoccupiers
p1760
aVfrom
p1761
aVmalheur
p1762
aV?
aVi
aVhave
p1763
aVyet
p1764
aVto
p1765
aVread
p1766
aVa
aVclear
p1767
aV\u2026
asg16
g17
(S'\x07\xe0\x01\x16\x04$5\x00\x00\x00'
tRp1768
sg19
Nsa(dp1769
g3
(lp1770
V@msnbc
p1771
aVhow
p1772
aV.
aVis
p1773
aVthis
p1774
aVnews
p1775
aV?
asg16
g17
(S'\x07\xe0\x01\x16\x04"\x1c\x00\x00\x00'
tRp1776
sg19
Nsa(dp1777
g3
(lp1778
Vrt
p1779
aV@bernieshomie
p1780
aV:
aVbernie's
p1781
aVcongressional
p1782
aVreport
p1783
aVcard
p1784
aV:
aV#feelthebern
p1785
aVhttps://t.co/3udzayuuqr
p1786
asg16
g17
(S'\x07\xe0\x01\x16\x03\x14\x1e\x00\x00\x00'
tRp1787
sg19
Nsa(dp1788
g3
(lp1789
Vrt
p1790
aV@yamiche
p1791
aV:
aVhere's
p1792
aVmy
p1793
aVstory
p1794
aVagain
p1795
aVon
p1796
aVwhat
p1797
aV@sensanders
p1798
aVis
p1799
aVdoing
p1800
aVto
p1801
aVget
p1802
aVmore
p1803
aVblacks
p1804
aVto
p1805
aVsupport
p1806
aVhim
p1807
aV.
aVsuper
p1808
aVrelevant
p1809
aVin
p1810
aVrecent
p1811
aVdays
p1812
aV.
aVhttps://t
p1813
aV\u2026
asg16
g17
(S'\x07\xe0\x01\x16\x022"\x00\x00\x00'
tRp1814
sg19
Nsa(dp1815
g3
(lp1816
Vrt
p1817
aV@ktnicoll87
p1818
aV:
aV@maddow
p1819
aV@berniesanders
p1820
aV@ppact
p1821
aV@naral
p1822
aV@hrc
p1823
aVwhen
p1824
aVthe
p1825
aVboard
p1826
aVmembers
p1827
aVmake
p1828
aVthe
p1829
aVendorsement
p1830
aVwithout
p1831
aVconsidering
p1832
aVtheir
p1833
aVmembers
p1834
aVtha
p1835
aV\u2026
asg16
g17
(S'\x07\xe0\x01\x16\x02\x1c$\x00\x00\x00'
tRp1836
sg19
Nsa(dp1837
g3
(lp1838
Vrt
p1839
aV@ktnicoll87
p1840
aV:
aV@maddow
p1841
aV@berniesanders
p1842
aV@ppact
p1843
aV@naral
p1844
aV@hrc
p1845
aVbecause
p1846
aVof
p1847
aVthe
p1848
aVties
p1849
aVto
p1850
aVclinton
p1851
aVeach
p1852
aVendorsement
p1853
aVis
p1854
aVa
aVconflict
p1855
aVof
p1856
aVinterest
p1857
aV!
aV#feelt
p1858
aV\u2026
asg16
g17
(S'\x07\xe0\x01\x16\x02\x1b"\x00\x00\x00'
tRp1859
sg19
Nsa(dp1860
g3
(lp1861
Vrt
p1862
aV@andrewcicchetti
p1863
aV:
aV.
aV@mitchellreports
p1864
aVthe
p1865
aVbernie
p1866
aVsanders
p1867
aVad
p1868
aVeveryone
p1869
aVis
p1870
aVtalking
p1871
aVabout
p1872
aVand
p1873
aVthat
p1874
aVhillary
p1875
aVdoesn't
p1876
aVwant
p1877
aVyou
p1878
aVto
p1879
aVsee
p1880
aV:
aVamerica
p1881
aVh
aV\u2026
asg16
g17
(S'\x07\xe0\x01\x15\x13)%\x00\x00\x00'
tRp1882
sg19
Nsa(dp1883
g3
(lp1884
Vrt
p1885
aV@ajstream
p1886
aV:
aVflint's
p1887
aVwater
p1888
aVsmells
p1889
aV"
aVlike
p1890
aVan
p1891
aVopen
p1892
aVsewer
p1893
aV.
aV.
aVmy
p1894
aVhand
p1895
aVstarted
p1896
aVto
p1897
aVswell
p1898
aVafter
p1899
aVwashing
p1900
aVdishes
p1901
aV"
aV,
aVsays
p1902
aV@nayyirahshariff
p1903
aV.
aV#flintwaterc
p1904
aV\u2026
asg16
g17
(S'\x07\xe0\x01\x15\x13)\x1f\x00\x00\x00'
tRp1905
sg19
Nsa(dp1906
g3
(lp1907
Vastute
p1908
aVanalysis
p1909
aVwhy
p1910
aV@hrc
p1911
aVproves
p1912
aV(
aVand
p1913
aVcontinues
p1914
aV)
aV@berniesanders
p1915
aVpoint
p1916
aV.
aVhttps://t.co/vxbuw5nyfv
p1917
aV#feelthebern
p1918
asg16
g17
(S'\x07\xe0\x01\x15\x13(,\x00\x00\x00'
tRp1919
sg19
Nsa(dp1920
g3
(lp1921
V.
aV@ppact
p1922
aVso
p1923
aVhow
p1924
aVdid
p1925
aVyou
p1926
aVdecide
p1927
aVur
p1928
aVendorsement
p1929
aV?
aVonline
p1930
aVpoll
p1931
aV,
aVdonor
p1932
aVmail-in
p1933
aV,
aVa
aVmember
p1934
aVsurvey
p1935
aV?
aVa
aVcorp
p1936
aVestablishment
p1937
aVbod
p1938
aVvote
p1939
aV?
aV#feelthebern
p1940
asg16
g17
(S'\x07\xe0\x01\x15\x13 \x1a\x00\x00\x00'
tRp1941
sg19
Nsa(dp1942
g3
(lp1943
V.
aV@hrc
p1944
aVso
p1945
aVhow
p1946
aVdid
p1947
aVyou
p1948
aVdecide
p1949
aVur
p1950
aVendorsement
p1951
aV?
aVonline
p1952
aVpoll
p1953
aV,
aVdonor
p1954
aVmail-in
p1955
aV,
aVa
aVmember
p1956
aVsurvey
p1957
aV?
aVa
aVcorp
p1958
aVestablishment
p1959
aVbod
p1960
aVvote
p1961
aV?
aV#feelthebern
p1962
asg16
g17
(S'\x07\xe0\x01\x15\x13\x1f,\x00\x00\x00'
tRp1963
sg19
Nsa(dp1964
g3
(lp1965
Vrt
p1966
aV@treehugger1605
p1967
aV:
aV@pdx_for_bernie
p1968
aV@hrc
p1969
aVi
aVdon't
p1970
aVunderstand
p1971
aV?
aVdid
p1972
aVthe
p1973
aV1.5
p1974
aVm
aVmembers
p1975
aVof
p1976
aVhumanrights
p1977
aVdecide
p1978
aVwho
p1979
aVto
p1980
aVendorse
p1981
aV?
asg16
g17
(S'\x07\xe0\x01\x15\x13\x18\x15\x00\x00\x00'
tRp1982
sg19
Nsa(dp1983
g3
(lp1984
V@labellabodycare
p1985
aVur
p1986
aVgoing
p1987
aVout
p1988
aVof
p1989
aVbiz
p1990
aV,
aVright
p1991
aV?
aVsurprised
p1992
aVat
p1993
aVthe
p1994
aVflurry
p1995
aVof
p1996
aVads
p1997
aVpromoting
p1998
aVmore
p1999
aVsales
p2000
aV.
aVnothing
p2001
aVwill
p2002
aVbe
p2003
aVavailable
p2004
aV.
aVrgt
p2005
aV?
asg16
g17
(S'\x07\xe0\x01\x15\x13\x06\x0c\x00\x00\x00'
tRp2006
sg19
Nsa(dp2007
g3
(lp2008
V@citystitchette
p2009
aV@lunaraven13
p2010
aV@heatherhal
p2011
aVjust
p2012
aVrealized
p2013
aVwas
p2014
aV2014
p2015
asg16
g17
(S'\x07\xe0\x01\x15\x13\x03\t\x00\x00\x00'
tRp2016
sg19
Nsa(dp2017
g3
(lp2018
Vrt
p2019
aV@latimes
p2020
aV:
aVno
p2021
aVasian
p2022
aVactress
p2023
aVhas
p2024
aVwon
p2025
aVan
p2026
aV#oscar
p2027
aVin
p2028
aV58
p2029
aVyears
p2030
aV,
aVand
p2031
aVit
p2032
aV\u2019
aVs
aVbeen
p2033
aV54
p2034
aVyears
p2035
aVsince
p2036
aVa
aVlatina
p2037
aVtook
p2038
aVhome
p2039
aVan
p2040
aVacademy
p2041
aVaward
p2042
aVhttps://t.co/
p2043
aV\u2026
asg16
g17
(S'\x07\xe0\x01\x15\x123\r\x00\x00\x00'
tRp2044
sg19
Nsa(dp2045
g3
(lp2046
V@rebelcapitalist
p2047
aV@bluedupage
p2048
aV@nationofchange
p2049
aVapril
p2050
aV2015
p2051
aVfor
p2052
aVher
p2053
aVsuperpac
p2054
aV.
aVi
aVcan't
p2055
aVstand
p2056
aVher
p2057
aV,
aVbut
p2058
aVcheck
p2059
aVthe
p2060
aVdates
p2061
asg16
g17
(S'\x07\xe0\x01\x15\x120-\x00\x00\x00'
tRp2062
sg19
Nsa(dp2063
g3
(lp2064
Vas
p2065
aVa
aV#vermonter
p2066
aV,
aVthis
p2067
aVis
p2068
aVa
aVsellout
p2069
aVand
p2070
aVa
aVdisappointment
p2071
aV@govhowarddean
p2072
aV.
aV@shaytotten
p2073
aV#btv
p2074
aV#feelthebern
p2075
aVhttps://t.co/qkh9mmkrqf
p2076
asg16
g17
(S"\x07\xe0\x01\x15\x12'\x08\x00\x00\x00"
tRp2077
sg19
Nsa(dp2078
g3
(lp2079
Vrt
p2080
aV@sahilkapur
p2081
aV:
aVin
p2082
aVemail
p2083
aV,
aV@emilyslist
p2084
aVattacks
p2085
aVsanders
p2086
aVwith
p2087
aVrhetoric
p2088
aVthey
p2089
aVnormally
p2090
aVreserve
p2091
aVfor
p2092
aVrepublicans
p2093
aV:
aV\u201c
aVto
p2094
aVsanders
p2095
aVwomen
p2096
aV\u2019
aVs
aVhealth
p2097
aVis
p2098
aVan
p2099
aV\u2026
asg16
g17
(S'\x07\xe0\x01\x15\x12 \x15\x00\x00\x00'
tRp2100
sg19
Nsa(dp2101
g3
(lp2102
Vrt
p2103
aV@sahilkapur
p2104
aV:
aV@rachelsklar
p2105
aVi
aVthink
p2106
aVhe
p2107
aVstepped
p2108
aVin
p2109
aVit
p2110
aVrhetorically
p2111
aV,
aVbut
p2112
aVhe's
p2113
aVnot
p2114
aVwrong
p2115
aVthat
p2116
aVppfa
p2117
aVis
p2118
aVensconced
p2119
aVin
p2120
aVa
aVdem
p2121
aVhierarchy
p2122
aVthat's
p2123
aVbac
p2124
aV\u2026
asg16
g17
(S'\x07\xe0\x01\x15\x12\x1f8\x00\x00\x00'
tRp2125
sg19
Nsa(dp2126
g3
(lp2127
Vrt
p2128
aV@keeponpolling
p2129
aV:
aV@sahilkapur
p2130
aV@emilyslist
p2131
aVthis
p2132
aVis
p2133
aVa
aVnasty
p2134
aV,
aVdivisive
p2135
aVthing
p2136
aVto
p2137
aVsay
p2138
aV.
aVhe
p2139
aVhas
p2140
aVa
aVperfect
p2141
aVrecord
p2142
aVon
p2143
aVwomen's
p2144
aVhealth
p2145
aVissues
p2146
aV.
aVdisgus
p2147
aV\u2026
asg16
g17
(S'\x07\xe0\x01\x15\x12\x1c\x08\x00\x00\x00'
tRp2148
sg19
Nsa(dp2149
g3
(lp2150
Vrt
p2151
aV@yeayourite
p2152
aV:
aV@sahilkapur
p2153
aVare
p2154
aVpeople
p2155
aVgoing
p2156
aVto
p2157
aVargue
p2158
aV@emilyslist
p2159
aVisn't
p2160
aVestablishment
p2161
aVnow
p2162
aV?
asg16
g17
(S'\x07\xe0\x01\x15\x12\x1b;\x00\x00\x00'
tRp2163
sg19
Nsa(dp2164
g3
(lp2165
Vrt
p2166
aV@chicago4bernie
p2167
aV:
aV.
aV@sahilkapur
p2168
aV@emilyslist
p2169
aVbullshit
p2170
aV.
aVbernie
p2171
aVhas
p2172
aVa
aV100
p2173
aV%
aVrating
p2174
aVfrom
p2175
aVplanned
p2176
aVparenthood
p2177
aV.
aVthis
p2178
aVis
p2179
aVa
aVflat
p2180
aVout
p2181
aVlie
p2182
aVand
p2183
aVclear
p2184
aVs
aV\u2026
asg16
g17
(S'\x07\xe0\x01\x15\x12\x1b \x00\x00\x00'
tRp2185
sg19
Nsa(dp2186
g3
(lp2187
Vrt
p2188
aV@judgenathan
p2189
aV:
aV@rachelsklar
p2190
aV@sahilkapur
p2191
aV@ppfa
p2192
aVhe
p2193
aVmeant
p2194
aV"
aVdem
p2195
aV.
aVparty
p2196
aV/
aVelectability
p2197
aV/
aVetc
p2198
aV"
aVestablishment
p2199
aV.
aVit's
p2200
aVobvious
p2201
aVhe
p2202
aVor
p2203
aVhillary
p2204
aVwld
p2205
aVbe
p2206
aVmos
p2207
aV\u2026
asg16
g17
(S'\x07\xe0\x01\x15\x12\x1b\x0b\x00\x00\x00'
tRp2208
sg19
Nsa(dp2209
g3
(lp2210
Vrt
p2211
aV@lapared
p2212
aV:
aV@sahilkapur
p2213
aV@emilyslist
p2214
aV-
aVtotal
p2215
aVbs
p2216
aV.
aVsanders's
p2217
aVwork
p2218
aVon
p2219
aVaca
p2220
aVmade
p2221
aVbill
p2222
aVstronger
p2223
aV&
aVamp
p2224
aV;
aVincreased
p2225
aVwomen's
p2226
aVaccess
p2227
aVto
p2228
aVhealthcare
p2229
aV.
asg16
g17
(S'\x07\xe0\x01\x15\x12\x1b\x05\x00\x00\x00'
tRp2230
sg19
Nsa(dp2231
g3
(lp2232
Vrt
p2233
aV@breenewsome
p2234
aV:
aVobserve
p2235
aVwhere
p2236
aVthis
p2237
aVnation
p2238
aVplaces
p2239
aVits
p2240
aVpriorities
p2241
aV.
aVcan't
p2242
aVfind
p2243
aVmoney
p2244
aVfor
p2245
aVschools
p2246
aV,
aVhealth
p2247
aVcare
p2248
aVor
p2249
aVwater
p2250
aVbut
p2251
aVendless
p2252
aVfunds
p2253
aVfor
p2254
aV\u2026
asg16
g17
(S'\x07\xe0\x01\x15\x12\x126\x00\x00\x00'
tRp2255
sg19
Nsa(dp2256
g3
(lp2257
Vrt
p2258
aV@breenewsome
p2259
aV:
aVpoverty
p2260
aVmake
p2261
aVme
p2262
aVsooooooo
p2263
aVangry
p2264
aV.
aV.
aV.
aVlike
p2265
aVto
p2266
aVthe
p2267
aVmarrow
p2268
aVof
p2269
aVmy
p2270
aVbones
p2271
aV.
aVthe
p2272
aVsituation
p2273
aVin
p2274
aVmichigan
p2275
aVis
p2276
aVa
aVdisgrace
p2277
aVto
p2278
aVthe
p2279
aVentire
p2280
aVna
p2281
aV\u2026
asg16
g17
(S'\x07\xe0\x01\x15\x114/\x00\x00\x00'
tRp2282
sg19
Nsa(dp2283
g3
(lp2284
V.
aV@citystitchette
p2285
aVdid
p2286
aVu
aVsee
p2287
aVthis
p2288
aV?
aVhttps://t.co/rriobgsmyp
p2289
asg16
g17
(S'\x07\xe0\x01\x15\x113\x03\x00\x00\x00'
tRp2290
sg19
Nsa(dp2291
g3
(lp2292
V@axsinvt
p2293
aVi
aVdon't
p2294
aVknow
p2295
aVif
p2296
aVmika
p2297
aVcould
p2298
aVreally
p2299
aVever
p2300
aVhave
p2301
aVher
p2302
aVown
p2303
aVshow
p2304
aV.
aVshe'll
p2305
aValways
p2306
aVbe
p2307
aVseen
p2308
aVas
p2309
aVthe
p2310
aVwimp
p2311
aVwho
p2312
aVwouldn't
p2313
aVstand
p2314
aVup
p2315
aV.
aVto
p2316
aVdouchebag
p2317
aVjoke
p2318
asg16
g17
(S'\x07\xe0\x01\x15\x0b4\x1b\x00\x00\x00'
tRp2319
sg19
Nsa(dp2320
g3
(lp2321
V@axsinvt
p2322
aVlolol
p2323
aV.
aVmy
p2324
aVbp
p2325
aVwould
p2326
aVbe
p2327
aVthrough
p2328
aVth
p2329
aVroof
p2330
aV.
asg16
g17
(S'\x07\xe0\x01\x15\x0b2"\x00\x00\x00'
tRp2331
sg19
Nsa(dp2332
g3
(lp2333
V@axsinvt
p2334
aVdoes
p2335
aVshe
p2336
aVhear
p2337
aVu
aVyelling
p2338
aVat
p2339
aVmorning
p2340
aVjoke
p2341
aVevery
p2342
aVday
p2343
aV?
aV!
asg16
g17
(S'\x07\xe0\x01\x15\x0b,\x11\x00\x00\x00'
tRp2344
sg19
Nsa(dp2345
g3
(lp2346
V@axsinvt
p2347
aVdid
p2348
aVshe
p2349
aVsee
p2350
aVthat
p2351
aVpalin
p2352
aVclip
p2353
aVwith
p2354
aVdonald
p2355
aVtrump
p2356
aV?
aV!
asg16
g17
(S'\x07\xe0\x01\x15\x0b+/\x00\x00\x00'
tRp2357
sg19
Nsa(dp2358
g3
(lp2359
V@axsinvt
p2360
aVwho
p2361
aVdoes
p2362
aVur
p2363
aVmom
p2364
aVlike
p2365
aV?
asg16
g17
(S'\x07\xe0\x01\x15\x0b*:\x00\x00\x00'
tRp2366
sg19
Nsa(dp2367
g3
(lp2368
V@axsinvt
p2369
aVjust
p2370
aVthink
p2371
aVit's
p2372
aVunnecessary
p2373
aVfor
p2374
aVthem
p2375
aVto
p2376
aVjump
p2377
aVin
p2378
aVat
p2379
aVall
p2380
asg16
g17
(S'\x07\xe0\x01\x15\x0b*\x13\x00\x00\x00'
tRp2381
sg19
Nsa(dp2382
g3
(lp2383
V@axsinvt
p2384
aVor
p2385
aVnot
p2386
aVat
p2387
aVall
p2388
aV.
aVnot
p2389
aVlike
p2390
aVcompeting
p2391
aVagainst
p2392
aVthose
p2393
aVlog
p2394
aVcabin
p2395
aVrepugs
p2396
aV.
aVlol
p2397
asg16
g17
(S'\x07\xe0\x01\x15\x0b)/\x00\x00\x00'
tRp2398
sg19
Nsa(dp2399
g3
(lp2400
V.
aV@axsinvt
p2401
aV@hrc
p2402
aV&
aVlt
p2403
aV;
aV-
aV-
aVslander
p2404
aVattacks
p2405
aVwill
p2406
aVdrive
p2407
aVaway
p2408
aVbernie
p2409
aVbots
p2410
aV"
aVshould
p2411
aV"
aVshe
p2412
aVwin
p2413
aVnom
p2414
aV.
aVcan't
p2415
aVwin
p2416
aVge
p2417
aVw
aV/
aV20
p2418
aV%
aVloss
p2419
aVof
p2420
aVhis
p2421
aVvoters
p2422
aV.
aVnot
p2423
aVsmart
p2424
aVplan
p2425
asg16
g17
(S'\x07\xe0\x01\x15\x0b(1\x00\x00\x00'
tRp2426
sg19
Nsa(dp2427
g3
(lp2428
Vrt
p2429
aV@axsinvt
p2430
aV:
aV@vtknitboy
p2431
aVand
p2432
aVyet
p2433
aV@hrc
p2434
aVis
p2435
aVmad
p2436
aVabout
p2437
aVbeing
p2438
aVcalled
p2439
aVestablishment
p2440
aV.
aVyou
p2441
aVare
p2442
aV,
aVblanche
p2443
aV.
aVyou
p2444
aVare
p2445
aVthe
p2446
aVestablishment
p2447
aV.
aV#hrc
p2448
aV#hillary
p2449
aV#
aVb
aV\u2026
asg16
g17
(S'\x07\xe0\x01\x15\x0b#\x0e\x00\x00\x00'
tRp2450
sg19
Nsa(dp2451
g3
(lp2452
V@axsinvt
p2453
aVu
aVcan
p2454
aVrt
p2455
aVmy
p2456
aVlast
p2457
aVtweets
p2458
aVand
p2459
aVadd
p2460
aV@berniesanders
p2461
aVand
p2462
aVhrc
p2463
aV.
aVtags
p2464
aVif
p2465
aVu
aVwant
p2466
aV.
aVfuk
p2467
aV.
aVem
p2468
aVlol
p2469
asg16
g17
(S'\x07\xe0\x01\x15\x0b#\x02\x00\x00\x00'
tRp2470
sg19
Nsa(dp2471
g3
(lp2472
V,
aV@axsinvt
p2473
aVright
p2474
aV.
aVand
p2475
aVsome
p2476
aVgays
p2477
aVhave
p2478
aVbeen
p2479
aVcomplaining
p2480
aVabout
p2481
aV@hrc
p2482
aVfor
p2483
aVyears
p2484
asg16
g17
(S'\x07\xe0\x01\x15\x0b!0\x00\x00\x00'
tRp2485
sg19
Nsa(dp2486
g3
(lp2487
V@axsinvt
p2488
aVand
p2489
aVtheir
p2490
aVbod
p2491
aVis
p2492
aVmade
p2493
aVup
p2494
aVof
p2495
aVcorp
p2496
aVamerica
p2497
asg16
g17
(S'\x07\xe0\x01\x15\x0b \x1d\x00\x00\x00'
tRp2498
sg19
Nsa(dp2499
g3
(lp2500
V@axsinvt
p2501
aVestablishment
p2502
aV.
aVit's
p2503
aVstill
p2504
aVabout
p2505
aVmoney
p2506
aVand
p2507
aVorg
p2508
asg16
g17
(S'\x07\xe0\x01\x15\x0b\x1f+\x00\x00\x00'
tRp2509
sg19
Nsa(dp2510
g3
(lp2511
V@axsinvt
p2512
aVi
aVfollowed
p2513
aVsome
p2514
aVof
p2515
aVth
p2516
aVtwitter
p2517
aVwars
p2518
aVth
p2519
aVfirst
p2520
aVnight
p2521
aV.
aVthey
p2522
aVare
p2523
aVclueless
p2524
aV.
aVeven
p2525
aVif
p2526
aVthey
p2527
aVbacked
p2528
aVbernie
p2529
aVthey
p2530
aVwould
p2531
aVbe
p2532
aVpart
p2533
aVof
p2534
aVth
p2535
aVpolitical
p2536
asg16
g17
(S'\x07\xe0\x01\x15\x0b\x1e*\x00\x00\x00'
tRp2537
sg19
Nsa(dp2538
g3
(lp2539
V@axsinvt
p2540
aVtwitter
p2541
aVwar
p2542
asg16
g17
(S'\x07\xe0\x01\x15\x0b\x19(\x00\x00\x00'
tRp2543
sg19
Nsa(dp2544
g3
(lp2545
Vrt
p2546
aV@angryredhead86
p2547
aV:
aV@thehill
p2548
aVshe
p2549
aVis
p2550
aVhurting
p2551
aVthe
p2552
aVparty
p2553
aVand
p2554
aValso
p2555
aVis
p2556
aVdoing
p2557
aVher
p2558
aVbest
p2559
aVto
p2560
aVhand
p2561
aVthe
p2562
aVnomination
p2563
aVto
p2564
aVhillary
p2565
aVclinton
p2566
aV.
asg16
g17
(S'\x07\xe0\x01\x15\x0b\x18\x1d\x00\x00\x00'
tRp2567
sg19
Nsa(dp2568
g3
(lp2569
Vhill's
p2570
aVshill
p2571
aV~
aVgotta
p2572
aVgo
p2573
aV.
aV.
aV.
aVhttps://t.co/cg8tcfjx5c
p2574
asg16
g17
(S'\x07\xe0\x01\x15\x0b\x18\x14\x00\x00\x00'
tRp2575
sg19
Nsa(dp2576
g3
(lp2577
V@axsinvt
p2578
aVlol
p2579
aV.
aVthey
p2580
aVdon't
p2581
aVrealize
p2582
aVthat
p2583
aVby
p2584
aVjumping
p2585
aVin
p2586
aVthey
p2587
aVprove
p2588
aVbernie
p2589
aVright
p2590
aVand
p2591
aVby
p2592
aV.
aVengaging
p2593
aVin
p2594
aVcontinuous
p2595
aVtwitter
p2596
aVwas
p2597
aVthey
p2598
aVr
aVmaking
p2599
aVit
p2600
aVworse
p2601
asg16
g17
(S'\x07\xe0\x01\x15\x0b\x15\x1d\x00\x00\x00'
tRp2602
sg19
Nsa(dp2603
g3
(lp2604
V.
aV@hrc
p2605
aV@hillaryclinton
p2606
aVu
aVknow
p2607
aV,
aVbcuz
p2608
aVu
aVjumped
p2609
aVin
p2610
aVthis
p2611
aVu
aVproved
p2612
aV@berniesanders
p2613
aVright
p2614
aV?
aVevery
p2615
aVtweet
p2616
aVcontinues
p2617
aVto
p2618
aVdo
p2619
aVso
p2620
aV.
aV#feelthebern
p2621
asg16
g17
(S'\x07\xe0\x01\x15\x0b\x112\x00\x00\x00'
tRp2622
sg19
Nsa(dp2623
g3
(lp2624
Vrt
p2625
aV@axsinvt
p2626
aV:
aV@hrc
p2627
aV@hillaryclinton
p2628
aVrecently
p2629
aV,
aVyes
p2630
aV.
aV#bernie
p2631
aVwas
p2632
aVwith
p2633
aVus
p2634
aVin
p2635
aV#vt
p2636
aVin
p2637
aV1985
p2638
aV.
aVwhere
p2639
aVwas
p2640
aVshe
p2641
aVthen
p2642
aV?
aVhttps://t.co/xacs13rh1v
p2643
asg16
g17
(S'\x07\xe0\x01\x15\x0b\x10\x0f\x00\x00\x00'
tRp2644
sg19
Nsa(dp2645
g3
(lp2646
V.
aV@hrc
p2647
aV@hillaryclinton
p2648
aVlol
p2649
aV,
aV@sensanders
p2650
aV'
aVs
aVtrack
p2651
aV.
aVrecord
p2652
aVof
p2653
aVgay
p2654
aV.
aVrgts
p2655
aV.
aVsupports
p2656
aVsince
p2657
aVthe
p2658
aV1980
p2659
aVs
aV.
aVu
aVshould
p2660
aV.
aVhv
p2661
aVstayed
p2662
aVout
p2663
aVof
p2664
aVthis
p2665
aV.
asg16
g17
(S'\x07\xe0\x01\x15\x0b\x10\x01\x00\x00\x00'
tRp2666
sg19
Nsa(dp2667
g3
(lp2668
Vrt
p2669
aV@nobiggovduh
p2670
aV:
aV@hrc
p2671
aV@hillaryclinton
p2672
aVa
aVrecord
p2673
aVof
p2674
aV4
aVyears
p2675
aVinstead
p2676
aVof
p2677
aVdecades
p2678
aV.
asg16
g17
(S'\x07\xe0\x01\x15\x0b\r2\x00\x00\x00'
tRp2679
sg19
Nsa(dp2680
g3
(lp2681
Vrt
p2682
aV@jerryod
p2683
aV:
aV@hrc
p2684
aV@hillaryclinton
p2685
aVhere
p2686
aV\u2019
aVs
aVbernie
p2687
aVsanders
p2688
aVstanding
p2689
aVup
p2690
aVfor
p2691
aVgay
p2692
aVsoldiers
p2693
aVback
p2694
aVin
p2695
aV1995
p2696
aV.
aVimpressive
p2697
aV.
aVhttps://t.co/olkkwvsu0e
p2698
aV\u2026
asg16
g17
(S'\x07\xe0\x01\x15\x0b\r,\x00\x00\x00'
tRp2699
sg19
Nsa(dp2700
g3
(lp2701
Vrt
p2702
aV@goobersnattch
p2703
aV:
aV@hrc
p2704
aVsuffers
p2705
aVfrom
p2706
aVamnesia
p2707
aV.
aVit
p2708
aVwas
p2709
aV@hillaryclinton
p2710
aVwho
p2711
aVwas
p2712
aVagainst
p2713
aVmarriage
p2714
aVand
p2715
aVpro
p2716
aVmarriage
p2717
aVwhen
p2718
aVit
p2719
aVwas
p2720
aVconvenient
p2721
aVto
p2722
aVdo
p2723
aV\u2026
asg16
g17
(S'\x07\xe0\x01\x15\x0b\r(\x00\x00\x00'
tRp2724
sg19
Nsa(dp2725
g3
(lp2726
Vrt
p2727
aV@omanreagan
p2728
aV:
aV@hrc
p2729
aVhahahahhahahahahhhahaha
p2730
aV.
aVoh
p2731
aVgosh
p2732
aV,
aVlet
p2733
aVme
p2734
aVcatch
p2735
aVmy
p2736
aVbreath
p2737
aV.
aVhahahhahahahahhahahahaha
p2738
aV.
aVoh
p2739
aV,
aVgood
p2740
aVone
p2741
aV,
aVhahha
p2742
aV.
aV\U0001f602
asg16
g17
(S'\x07\xe0\x01\x15\x0b\r"\x00\x00\x00'
tRp2743
sg19
Nsa(dp2744
g3
(lp2745
Vrt
p2746
aV@setjeff
p2747
aV:
aV@hrc
p2748
aV@hillaryclinton
p2749
aVsure
p2750
aV.
aVyou
p2751
aVguys
p2752
aVhave
p2753
aVcompletely
p2754
aVsold
p2755
aVout
p2756
aVor
p2757
aVhave
p2758
aVvery
p2759
aVshort
p2760
aVmemories
p2761
aV.
aVlikely
p2762
aVthe
p2763
aVformer
p2764
aV.
aV.
aVhttps://t.co/drv
p2765
aV\u2026
asg16
g17
(S'\x07\xe0\x01\x15\x0b\r\x1d\x00\x00\x00'
tRp2766
sg19
Nsa(dp2767
g3
(lp2768
Vrt
p2769
aV@thesfgresearch
p2770
aV:
aV@hrc
p2771
aV@marcylauren
p2772
aV@hillaryclinton
p2773
aVsnds
p2774
aVlik
p2775
aVmore
p2776
aVspeechifying
p2777
aVto
p2778
aVme
p2779
aV,
aVhrc
p2780
aV.
asg16
g17
(S'\x07\xe0\x01\x15\x0b\r\x19\x00\x00\x00'
tRp2781
sg19
Nsa(dp2782
g3
(lp2783
Vrt
p2784
aV@ronworthdubbs
p2785
aV:
aV@hrc
p2786
aV@hillaryclinton
p2787
aVi
aVwonder
p2788
aVhow
p2789
aVmuch
p2790
aV$
aVshe
p2791
aVpaid
p2792
aVyou
p2793
aVguys
p2794
aV.
asg16
g17
(S'\x07\xe0\x01\x15\x0b\r\x16\x00\x00\x00'
tRp2795
sg19
Nsa(dp2796
g3
(lp2797
Vrt
p2798
aV@joshuakconnelly
p2799
aV:
aV@hrc
p2800
aV@hillaryclinton
p2801
aVhillary
p2802
aVdidn't
p2803
aVsupport
p2804
aVsame-sex
p2805
aVmarriage
p2806
aVuntil
p2807
aV2013
p2808
aV.
asg16
g17
(S'\x07\xe0\x01\x15\x0b\r\x13\x00\x00\x00'
tRp2809
sg19
Nsa(dp2810
g3
(lp2811
Vrt
p2812
aV@vprnet
p2813
aV:
aVsanders
p2814
aVsupporters
p2815
aV'
aVchallenge
p2816
aVof
p2817
aVdnc
p2818
aVleadership
p2819
aVreflects
p2820
aVa
aVgrowing
p2821
aVparty
p2822
aVdivide
p2823
aVhttps://t.co/g86gxuahja
p2824
aV#vprnews
p2825
aVhttps://t.co/u
p2826
aV\u2026
asg16
g17
(S'\x07\xe0\x01\x15\n\x17\x0f\x00\x00\x00'
tRp2827
sg19
Nsa(dp2828
g3
(lp2829
Vrt
p2830
aV@nbcnews
p2831
aV:
aVvets
p2832
aVto
p2833
aV@sarahpalinusa
p2834
aV:
aVdon't
p2835
aVblame
p2836
aVobama
p2837
aVfor
p2838
aVson's
p2839
aVbehavior
p2840
aVhttps://t.co/8v0k8szkji
p2841
aVhttps://t.co/bi4gcm4xl9
p2842
asg16
g17
(S'\x07\xe0\x01\x15\n\x139\x00\x00\x00'
tRp2843
sg19
Nsa(dp2844
g3
(lp2845
V.
aV@samkalidi
p2846
aVdivide
p2847
aV&
aVamp
p2848
aV;
aVconquer
p2849
aV.
aVpit
p2850
aV1
aVgroup
p2851
aVvs
p2852
aVanother
p2853
aV.
aVnot
p2854
aVjust
p2855
aVracial
p2856
aV~
aVdowntrodden
p2857
aV.
aVgays
p2858
aV.
aVpoor
p2859
aV.
aValways
p2860
aVsomeone
p2861
aVto
p2862
aVsee
p2863
aV"
aVbeneath
p2864
aV"
aVu
asg16
g17
(S'\x07\xe0\x01\x15\t\x02\x1a\x00\x00\x00'
tRp2865
sg19
Nsa(dp2866
g3
(lp2867
Vthe
p2868
aV'
aVmurican
p2869
aVthing
p2870
aV-
aVconquer
p2871
aVand
p2872
aVdivide
p2873
aV.
aVby
p2874
aVpitting
p2875
aVone
p2876
aVdisadvantaged
p2877
aVgroup
p2878
aVvs
p2879
aVanother
p2880
aVhttps://t.co/qzqzsj2bxj
p2881
asg16
g17
(S'\x07\xe0\x01\x15\x08:\x12\x00\x00\x00'
tRp2882
sg19
Nsa(dp2883
g3
(lp2884
V@lawrence
p2885
aV@bwdoherty
p2886
aVhave
p2887
aVu
aVseen
p2888
aVthis
p2889
aVharvard
p2890
aVlaw
p2891
aVreview
p2892
aVmar
p2893
aV2015
p2894
aV?
aVsays
p2895
aVcruz
p2896
aVis
p2897
aVelig
p2898
aV.
aVhttps://t.co/l3n9oshgxc
p2899
asg16
g17
(S'\x07\xe0\x01\x15\x06(\x05\x00\x00\x00'
tRp2900
sg19
Nsa(dp2901
g3
(lp2902
V@zebrafinch
p2903
aV@adrianmayer
p2904
aV@peterjholley
p2905
aVin
p2906
aVthe
p2907
aVarticle
p2908
aVhe
p2909
aVdoesn't
p2910
aVreally
p2911
aVsay
p2912
aVit's
p2913
aVa
aVhoax
p2914
aV.
aVbut
p2915
aVthat
p2916
aV100
p2917
aV%
aVof
p2918
aVflint
p2919
aVisn't
p2920
aVpoisoned
p2921
aV,
aV.
aVmaybe
p2922
aV3
aV%
asg16
g17
(S'\x07\xe0\x01\x15\x06\x00\n\x00\x00\x00'
tRp2923
sg19
Nsa(dp2924
g3
(lp2925
Vrt
p2926
aV@adrianmayer
p2927
aV:
aVnewest
p2928
aVbatch
p2929
aVof
p2930
aVgop
p2931
aVwhack
p2932
aVjobs
p2933
aVagain
p2934
aVignore
p2935
aVscience
p2936
aV:
aVsome
p2937
aVmichigan
p2938
aVpoliticians
p2939
aVsay
p2940
aVthe
p2941
aVflint
p2942
aVwater
p2943
aVcrisis
p2944
aVis
p2945
aVa
aVhoax
p2946
aVhttps
p2947
aV:
aV\u2026
asg16
g17
(S'\x07\xe0\x01\x15\x057\x1f\x00\x00\x00'
tRp2948
sg19
Nsa(dp2949
g3
(lp2950
Vrt
p2951
aV@gmoinside
p2952
aV:
aVdr
p2953
aV.
aVhuber
p2954
aVexplains
p2955
aVwhy
p2956
aV#gmo
p2957
aVcrops
p2958
aVstart
p2959
aVout
p2960
aVproducing
p2961
aVwell
p2962
aVfor
p2963
aVchemical
p2964
aVfarmers
p2965
aVbut
p2966
aVdecrease
p2967
aVover
p2968
aVtime
p2969
aV#ecofarm2016
p2970
aVhttps
p2971
aV:/
p2972
aV/
aV\u2026
asg16
g17
(S'\x07\xe0\x01\x15\x0569\x00\x00\x00'
tRp2973
sg19
Nsa(dp2974
g3
(lp2975
Vrt
p2976
aV@mahamosa
p2977
aV:
aV"
aVi
aVgot
p2978
aVadopted
p2979
aV!
aV"
aV:)
p2980
aVuse
p2981
aVcode
p2982
aVadopt
p2983
aV@
aVhttps://t.co/17eb84xast
p2984
aV&
aVamp
p2985
aV;
aV15
p2986
aV%
aVof
p2987
aV#tea
p2988
aVsale
p2989
aVgoes
p2990
aVto
p2991
aV#animal
p2992
aVshelters
p2993
aV!
aV#cats
p2994
aV#cat
p2995
aVhttps
p2996
aV:/
p2997
aV/
aV\u2026
asg16
g17
(S'\x07\xe0\x01\x15\x05\x1f"\x00\x00\x00'
tRp2998
sg19
Nsa(dp2999
g3
(lp3000
Vrt
p3001
aV@cascamike
p3002
aV:
aV.
aV@berniesanders
p3003
aValso
p3004
aVraised
p3005
aVbetween
p3006
aVthose
p3007
aVamounts
p3008
aVtoday
p3009
aV,
aVbut
p3010
aVfrom
p3011
aVworking
p3012
aVpeople
p3013
aVgiving
p3014
aVan
p3015
aVaverage
p3016
aVof
p3017
aV$
aV29.58
p3018
aV.
aVhttps://t.co/a
p3019
aV\u2026
asg16
g17
(S'\x07\xe0\x01\x15\x05\x17\x08\x00\x00\x00'
tRp3020
sg19
Nsa(dp3021
g3
(lp3022
V.
aV@lawrence
p3023
aV@1mdteacher
p3024
aVwhy
p3025
aV?
aV@sensanders
p3026
aVhs
p3027
aVa
aV40
p3028
aVyr
p3029
aVtrack
p3030
aVrec
p3031
aVworking
p3032
aVtoward
p3033
aVracial
p3034
aV/
aVsoc
p3035
aV/
aVecon
p3036
aVjustice
p3037
aV.
aVhrc
p3038
aVdoesn't
p3039
asg16
g17
(S'\x07\xe0\x01\x15\x05\x0f\x14\x00\x00\x00'
tRp3040
sg19
Nsa(dp3041
g3
(lp3042
Vrt
p3043
aV@lawrence
p3044
aV:
aV.
aV@kperry4
p3045
aVhmmm
p3046
aVi
aVguess
p3047
aVthat
p3048
aVexplains
p3049
aVwhy
p3050
aVbernie
p3051
aVhas
p3052
aVnever
p3053
aVbeen
p3054
aVon
p3055
aVmy
p3056
aVshow
p3057
aV.
asg16
g17
(S'\x07\xe0\x01\x15\x05\x033\x00\x00\x00'
tRp3058
sg19
Nsa(dp3059
g3
(lp3060
Vrt
p3061
aV@sfcount
p3062
aV:
aV@calicobayfarm
p3063
aV@bettybowers
p3064
aVdon't
p3065
aVbe
p3066
aVabsurd
p3067
aV.
aVnow
p3068
aVblaming
p3069
aVthe
p3070
aVpres
p3071
aVfor
p3072
aVyour
p3073
aVown
p3074
aVfailings
p3075
aVas
p3076
aVa
aVmother
p3077
aV-
aVthat's
p3078
aVgoing
p3079
aVtoo
p3080
aVfar
p3081
aV!
asg16
g17
(S"\x07\xe0\x01\x15\x05\x02'\x00\x00\x00"
tRp3082
sg19
Nsa(dp3083
g3
(lp3084
V@zebrafinch
p3085
aV@traditionalhome
p3086
aVomg
p3087
aV.
aVi
aVthought
p3088
aVit
p3089
aVwas
p3090
aVvictorian
p3091
aV!
aVsure
p3092
aV!
aVlet
p3093
aVkid
p3094
aVamd
p3095
aVcats
p3096
aV/
aVdogs
p3097
aVtorture
p3098
aVthe
p3099
aVbirds
p3100
aV!
asg16
g17
(S'\x07\xe0\x01\x15\x049\x1d\x00\x00\x00'
tRp3101
sg19
Nsa(dp3102
g3
(lp3103
V.
aV@dougdilg
p3104
aV@lawrence
p3105
aVkey
p3106
aVis
p3107
aV,
aVeligibility
p3108
aVmust
p3109
aVbe
p3110
aVdecided
p3111
aVbefore
p3112
aV.
aV.
aV.
aVthen
p3113
aV,
aVmoot
p3114
aVpoint
p3115
aV.
aVbecuz
p3116
aV,
aVif
p3117
aVhe
p3118
aV.
aVwas
p3119
aVnull
p3120
aV,
aVthe
p3121
aVcandidacy
p3122
aVwas
p3123
aVnull
p3124
aVretro
p3125
asg16
g17
(S'\x07\xe0\x01\x15\x046\x14\x00\x00\x00'
tRp3126
sg19
Nsa(dp3127
g3
(lp3128
Vbwahahahahaha
p3129
aV#jokeoftheday
p3130
aVhttps://t.co/kwak160ocm
p3131
asg16
g17
(S'\x07\xe0\x01\x15\x03)%\x00\x00\x00'
tRp3132
sg19
Nsa(dp3133
g3
(lp3134
V.
aV@mairead_sayre
p3135
aVhttps://t.co/vw3ymo7pa3
p3136
aVhttps://t.co/cjjrzd3vne
p3137
asg16
g17
(S'\x07\xe0\x01\x15\x03(\x14\x00\x00\x00'
tRp3138
sg19
Nsa(dp3139
g3
(lp3140
V.
aV@mairead_sayre
p3141
aVi
aVget
p3142
aVmy
p3143
aVlarger
p3144
aVbags
p3145
aVof
p3146
aVbeans
p3147
aVhere
p3148
aV.
aVrancho
p3149
aVhas
p3150
aV$
aV$
aVbeans
p3151
aVbut
p3152
aVheirloom
p3153
aVhttps://t.co/vw3ymo7pa3
p3154
asg16
g17
(S'\x07\xe0\x01\x15\x03%\x1c\x00\x00\x00'
tRp3155
sg19
Nsa(dp3156
g3
(lp3157
V@harajukuroxy
p3158
aVhttps://t.co/nf8esnroma
p3159
asg16
g17
(S'\x07\xe0\x01\x15\x03 \x1e\x00\x00\x00'
tRp3160
sg19
Nsa(dp3161
g3
(lp3162
Vsquee
p3163
aV!
aVfrom
p3164
aV@ranchogordo
p3165
aVhttps://t.co/klu1cklf80
p3166
asg16
g17
(S'\x07\xe0\x01\x15\x03\x11\x1d\x00\x00\x00'
tRp3167
sg19
Nsa(dp3168
g3
(lp3169
Vrt
p3170
aV@anomaly100
p3171
aV:
aVlook
p3172
aV,
aVsarah
p3173
aVpalin
p3174
aVcompleted
p3175
aVher
p3176
aVfirst
p3177
aVcrossword
p3178
aVpuzzle
p3179
aV.
aVcongrats
p3180
aV!
aVhttps://t.co/lzo2q2kr0m
p3181
asg16
g17
(S'\x07\xe0\x01\x15\x03\x065\x00\x00\x00'
tRp3182
sg19
Nsa(dp3183
g3
(lp3184
V@citystitchette
p3185
aV@erinefarley
p3186
aVwhat
p3187
aVelse
p3188
aVu
aVaallergic
p3189
aVto
p3190
aV?
asg16
g17
(S'\x07\xe0\x01\x15\x03\x06\x02\x00\x00\x00'
tRp3191
sg19
Nsa(dp3192
g3
(lp3193
V@citystitchette
p3194
aV@erinefarley
p3195
aVcarrots
p3196
aVonions
p3197
aVginger
p3198
aVbroccoli
p3199
aVred
p3200
aVpeppers
p3201
aV.
aVreplace
p3202
aVwith
p3203
aVwhatever
p3204
aVu
aVcan
p3205
aVdo
p3206
aV.
aVmushrooms
p3207
aV,
asg16
g17
(S'\x07\xe0\x01\x15\x03\x05\x17\x00\x00\x00'
tRp3208
sg19
Nsa(dp3209
g3
(lp3210
V@citystitchette
p3211
aV@erinefarley
p3212
aVlol
p3213
aV.
aVwell
p3214
aV,
aVnot
p3215
aVfor
p3216
aV.
aVu
aV,
aVso
p3217
aVuh
p3218
aV,
aV.
aVadjust
p3219
aVit
p3220
aV,
aV:-)
p3221
asg16
g17
(S'\x07\xe0\x01\x15\x03\x03\x1d\x00\x00\x00'
tRp3222
sg19
Nsa(dp3223
g3
(lp3224
Vrt
p3225
aV@ecochateas
p3226
aV:
aVaged
p3227
aVteas
p3228
aVstored
p3229
aVin
p3230
aVthis
p3231
aVshop
p3232
aVfor
p3233
aVcustomers
p3234
aV.
aVcome
p3235
aVback
p3236
aVin
p3237
aV20
p3238
aVyears
p3239
aV.
aV.
aV.
aVhttps://t.co/dy2jc1gh5h
p3240
asg16
g17
(S'\x07\xe0\x01\x15\x03\x02\x0c\x00\x00\x00'
tRp3241
sg19
Nsa(dp3242
g3
(lp3243
V@erinefarley
p3244
aV@citystitchette
p3245
aVi
aV.
aVusually
p3246
aVdon't
p3247
aVjust
p3248
aVdump
p3249
aVthem
p3250
aVon
p3251
aVfor
p3252
aVphoto
p3253
aV,
aVbut
p3254
aVthought
p3255
aVhad
p3256
aV.
aValready
p3257
aVtaken
p3258
aVphoto
p3259
aV.
aVlol
p3260
asg16
g17
(S'\x07\xe0\x01\x15\x03\x01\n\x00\x00\x00'
tRp3261
sg19
Nsa(dp3262
g3
(lp3263
V@erinefarley
p3264
aV@citystitchette
p3265
aVthese
p3266
aVweren't
p3267
aVtoasted
p3268
aVcuz
p3269
aVi
aVran
p3270
aVout
p3271
aV.
aVbut
p3272
aVjust
p3273
aVtoasted
p3274
aVa
aVbatch
p3275
aV.
aVtotally
p3276
aVdiff
p3277
aVflavor
p3278
aV!
asg16
g17
(S'\x07\xe0\x01\x15\x02;-\x00\x00\x00'
tRp3279
sg19
Nsa(dp3280
g3
(lp3281
V@erinefarley
p3282
aV@citystitchette
p3283
aVwith
p3284
aVlo
p3285
aVmein
p3286
aV,
aVpan
p3287
aVfried
p3288
aVtofu
p3289
aVother
p3290
aVveggies
p3291
aVhttps://t.co/djabrbquw5
p3292
asg16
g17
(S'\x07\xe0\x01\x15\x024\x12\x00\x00\x00'
tRp3293
sg19
Nsa(dp3294
g3
(lp3295
V@druchunas
p3296
aV@nerdytogether
p3297
aVlolol
p3298
aV!
aV!
aVexcept
p3299
aVthe
p3300
aVhot
p3301
aVoil
p3302
aVpart
p3303
asg16
g17
(S'\x07\xe0\x01\x15\x02\x1a$\x00\x00\x00'
tRp3304
sg19
Nsa(dp3305
g3
(lp3306
V@nerdytogether
p3307
aVi
aVhave
p3308
aVa
aVgreat
p3309
aVenamel
p3310
aVcast
p3311
aViron
p3312
aV.
aVset
p3313
asg16
g17
(S'\x07\xe0\x01\x15\x02\x06\x04\x00\x00\x00'
tRp3314
sg19
Nsa(dp3315
g3
(lp3316
V@nerdytogether
p3317
aVlol
p3318
aV.
aVi
aVthrew
p3319
aVaway
p3320
aVmy
p3321
aVolder
p3322
aVscratched
p3323
aVones
p3324
aVlol
p3325
asg16
g17
(S'\x07\xe0\x01\x15\x02\x00\x01\x00\x00\x00'
tRp3326
sg19
Nsa(dp3327
g3
(lp3328
V@erinefarley
p3329
aV@citystitchette
p3330
aVu
aVwould
p3331
aVhv
p3332
aVloved
p3333
aVm
aVbroc
p3334
aVdish
p3335
aVtonight
p3336
aVhttps://t.co/ei59nqx5yj
p3337
asg16
g17
(S'\x07\xe0\x01\x15\x01;\r\x00\x00\x00'
tRp3338
sg19
Nsa(dp3339
g3
(lp3340
V@erinefarley
p3341
aV@citystitchette
p3342
aVroasted
p3343
aVcauliflower
p3344
aVmuch
p3345
aVdifferent
p3346
aV.
aV.
aV.
aVyum
p3347
aV!
asg16
g17
(S'\x07\xe0\x01\x15\x01:)\x00\x00\x00'
tRp3348
sg19
Nsa(dp3349
g3
(lp3350
V@nerdytogether
p3351
aVlol
p3352
aV.
aVme
p3353
aVtoo
p3354
aV.
aVi
aVmeant
p3355
aVnot
p3356
aVpc
p3357
aVcuz
p3358
aVthey
p3359
aVbreak
p3360
aVdown
p3361
aVand
p3362
aVr
aVtoxic
p3363
aV.
aVlol
p3364
aV.
asg16
g17
(S'\x07\xe0\x01\x15\x010\x12\x00\x00\x00'
tRp3365
sg19
Nsa(dp3366
g3
(lp3367
V@nerdytogether
p3368
aVso
p3369
aVit
p3370
aVdoesn't
p3371
aVstick
p3372
aV.
aVdo
p3373
aVthis
p3374
aV.
aVperiodically
p3375
aVin
p3376
aVthis
p3377
aVfirst
p3378
aVminute
p3379
aVtil
p3380
aVit
p3381
aVseals
p3382
asg16
g17
(S'\x07\xe0\x01\x15\x01.\x03\x00\x00\x00'
tRp3383
sg19
Nsa(dp3384
g3
(lp3385
V@nerdytogether
p3386
aVhave
p3387
aVhot
p3388
aVoil
p3389
aVbut
p3390
aVnot
p3391
aVsmoking
p3392
aV.
aVnon
p3393
aVstick
p3394
aVpan
p3395
aV(
aVi
aVknow
p3396
aVthey
p3397
aVr
aVnot
p3398
aVpc
p3399
aVthese
p3400
aVdays
p3401
aVlol
p3402
aV)
aV.
aVput
p3403
aVin
p3404
aV.
aVmove
p3405
aVaround
p3406
aVa
aVcouple
p3407
aVtimes
p3408
asg16
g17
(S'\x07\xe0\x01\x15\x01-\x0c\x00\x00\x00'
tRp3409
sg19
Nsa(dp3410
g3
(lp3411
V@nerdytogether
p3412
aVanother
p3413
aV(
aVuse
p3414
aVa
aVcotton
p3415
aVtowel
p3416
aV,
aVnot
p3417
aVa
aVthin
p3418
aVone
p3419
aV,
aVwant
p3420
aVto
p3421
aVabsorb
p3422
aVall
p3423
aVthe
p3424
aVmoisture
p3425
aV)
aVpress
p3426
aVfirmly
p3427
aVbut
p3428
aVnot
p3429
aVto
p3430
aVbreak
p3431
aV.
aVpat
p3432
aVaround
p3433
aV)
asg16
g17
(S'\x07\xe0\x01\x15\x01%\x05\x00\x00\x00'
tRp3434
sg19
Nsa(dp3435
g3
(lp3436
V@nerdytogether
p3437
aVtake
p3438
aVit
p3439
aVout
p3440
aVrinse
p3441
aVit
p3442
aV.
aVlet
p3443
aVit
p3444
aVdrain
p3445
aV/
aVrest
p3446
aVlike
p3447
aV5
aV-
aV10
p3448
aVmins
p3449
aVthen
p3450
aVpat
p3451
aVdry
p3452
aV.
aVslice
p3453
aV.
aVlay
p3454
aVslices
p3455
aVon
p3456
aVreally
p3457
aVabsorbent
p3458
aVtowel
p3459
aVcover
p3460
aVwith
p3461
asg16
g17
(S'\x07\xe0\x01\x15\x01#\x1d\x00\x00\x00'
tRp3462
sg19
Nsa.