(lp1
(dp2
S'text'
p3
(lp4
Vwashed
p5
aVand
p6
aVmostly
p7
aVdry
p8
aV.
aVlike
p9
aVth
p10
aVreverse
p11
aVside
p12
aVhttps://t.co/yrbearsqh8
p13
asS'created_at'
p14
cdatetime
datetime
p15
(S'\x07\xe0\x01\x18\x0e\x07\x08\x00\x00\x00'
tRp16
sS'lat/long'
p17
NsS'name'
p18
Vvtknitboy
p19
sa(dp20
g3
(lp21
Vquick
p22
aVlittle
p23
aVribbed
p24
aVcowl
p25
aVof
p26
aVmerino
p27
aVpaca
p28
aVwith
p29
aVhandspun
p30
aVbunny
p31
aVhttps://t.co/wujwrglhzi
p32
asg14
g15
(S'\x07\xe0\x01\x18\n\x14\x01\x00\x00\x00'
tRp33
sg17
Nsg18
Vvtknitboy
p34
sa(dp35
g3
(lp36
Vbrrr
p37
aV.
aV-
aV8
aVf
aV.
aVnot
p38
aVwindchill
p39
aV.
aV74
p40
aVinside
p41
aV.
aVwoodstove
p42
aVtoasty
p43
aVhttps://t.co/rb5jg5gqdt
p44
asg14
g15
(S'\x07\xe0\x01\x18\t%\x05\x00\x00\x00'
tRp45
sg17
Nsg18
Vvtknitboy
p46
sa(dp47
g3
(lp48
Vrt
p49
aV@darjeelingtea
p50
aV:
aVwhile
p51
aV#touring
p52
aVa
aVdarjeeling
p53
aV#tea
p54
aVestate
p55
aV,
aVone
p56
aVfinds
p57
aVsuch
p58
aVrocks
p59
aVwhich
p60
aVis
p61
aVperfect
p62
aVto
p63
aVtake
p64
aVrest
p65
aVand
p66
aVmove
p67
aVon
p68
aV.
aVhttps://t.co/jz
p69
aV\u2026
asg14
g15
(S'\x07\xe0\x01\x18\x06\x10*\x00\x00\x00'
tRp70
sg17
Nsg18
Vvtknitboy
p71
sa(dp72
g3
(lp73
V@heatherhal
p74
aV@whats4dinnermom
p75
aV@lunaraven13
p76
aVthink
p77
aVanything
p78
aVwas
p79
aVup
p80
asg14
g15
(S'\x07\xe0\x01\x18\x06\t\x1f\x00\x00\x00'
tRp81
sg17
Nsg18
Vvtknitboy
p82
sa(dp83
g3
(lp84
V@heatherhal
p85
aV@whats4dinnermom
p86
aV@lunaraven13
p87
aVi
aVthought
p88
aVth
p89
aVcough
p90
aVwas
p91
aVstrep
p92
aVit
p93
aVwas
p94
aVgetting
p95
aVnasty
p96
aV.
aVbut
p97
aVi
aVhad
p98
aVa
aVphysical
p99
aVlast
p100
aVweek
p101
aVand
p102
aVshe
p103
aVdidn't
p104
asg14
g15
(S'\x07\xe0\x01\x18\x06\t\x11\x00\x00\x00'
tRp105
sg17
Nsg18
Vvtknitboy
p106
sa(dp107
g3
(lp108
V@heatherhal
p109
aV@whats4dinnermom
p110
aV@lunaraven13
p111
aVe
aVcigs
p112
aVthe
p113
aVsmokeless
p114
aVthings
p115
asg14
g15
(S'\x07\xe0\x01\x18\x06\x07\n\x00\x00\x00'
tRp116
sg17
Nsg18
Vvtknitboy
p117
sa(dp118
g3
(lp119
V@whats4dinnermom
p120
aV@heatherhal
p121
aV@lunaraven13
p122
aVmullein
p123
aVleaf
p124
aVor
p125
aVflower
p126
aV?
asg14
g15
(S'\x07\xe0\x01\x18\x06\x02\x12\x00\x00\x00'
tRp127
sg17
Nsg18
Vvtknitboy
p128
sa(dp129
g3
(lp130
V@whats4dinnermom
p131
aV@lunaraven13
p132
aV@heatherhal
p133
aVin
p134
aVhot
p135
aVwater
p136
aVand
p137
aVthis
p138
aVhttps://t.co/ktlqykrvly
p139
asg14
g15
(S'\x07\xe0\x01\x18\x06\x01 \x00\x00\x00'
tRp140
sg17
Nsg18
Vvtknitboy
p141
sa(dp142
g3
(lp143
V@whats4dinnermom
p144
aV@lunaraven13
p145
aV@heatherhal
p146
aVdoing
p147
aVthis
p148
aV.
aVhttps://t.co/awpfyia1ff
p149
asg14
g15
(S'\x07\xe0\x01\x18\x06\x01\x11\x00\x00\x00'
tRp150
sg17
Nsg18
Vvtknitboy
p151
sa(dp152
g3
(lp153
V@whats4dinnermom
p154
aV@lunaraven13
p155
aV@heatherhal
p156
aVplus
p157
aV,
aVhad
p158
aV.
aVsick
p159
aVbunny
p160
aVwas
p161
aVup
p162
aV36
p163
aVhrs
p164
aV.
aVfinally
p165
aV.
aVsleep
p166
aV.
aVtonight
p167
asg14
g15
(S'\x07\xe0\x01\x18\x056/\x00\x00\x00'
tRp168
sg17
Nsg18
Vvtknitboy
p169
sa(dp170
g3
(lp171
V@whats4dinnermom
p172
aV@lunaraven13
p173
aV@heatherhal
p174
aVso
p175
aVit's
p176
aVa
aVnever
p177
aVending
p178
aV.
aVcycle
p179
aV,
aVso
p180
aVmaybe
p181
aVnot
p182
aVreally
p183
aVa
aVvirus
p184
aV.
aVplus
p185
aVi
aVdon't
p186
aVsleep
p187
aVso
p188
aVhard
p189
aVto
p190
aVrecoup
p191
asg14
g15
(S'\x07\xe0\x01\x18\x056\x01\x00\x00\x00'
tRp192
sg17
Nsg18
Vvtknitboy
p193
sa(dp194
g3
(lp195
V@whats4dinnermom
p196
aV@lunaraven13
p197
aV@heatherhal
p198
aVi've
p199
aVdone
p200
aVall
p201
aVth
p202
aVherbal
p203
aVhome
p204
aVstuff
p205
aV.
aVbut
p206
aVthink
p207
aVth
p208
aVcough
p209
aVstressed
p210
aVth
p211
aVvocal
p212
aVchords
p213
aV/
aVneck
p214
aVmuscles
p215
asg14
g15
(S'\x07\xe0\x01\x18\x055\x10\x00\x00\x00'
tRp216
sg17
Nsg18
Vvtknitboy
p217
sa(dp218
g3
(lp219
V@lunaraven13
p220
aV@heatherhal
p221
aVi've
p222
aVhad
p223
aVthis
p224
aVannoying
p225
aVcough
p226
aVfor
p227
aV4
aVweeks
p228
aVnow
p229
aVcan't
p230
aVget
p231
aVrid
p232
aV.
aVof
p233
aV.
aVthought
p234
aVit
p235
aVwas
p236
aVflu
p237
aVish
p238
aVthen
p239
aVjust
p240
aVcough
p241
asg14
g15
(S'\x07\xe0\x01\x18\x05-\x0b\x00\x00\x00'
tRp242
sg17
Nsg18
Vvtknitboy
p243
sa(dp244
g3
(lp245
V@heatherhal
p246
aV@lunaraven13
p247
aVor
p248
aVjust
p249
aVa
aVmug
p250
aVof
p251
aVfresh
p252
aVginger
p253
aVjuice
p254
aVhoney
p255
aVrosemary
p256
aVhot
p257
aVwater
p258
aVsoothing
p259
aV!
asg14
g15
(S'\x07\xe0\x01\x18\x046\x11\x00\x00\x00'
tRp260
sg17
Nsg18
Vvtknitboy
p261
sa(dp262
g3
(lp263
V@heatherhal
p264
aV@lunaraven13
p265
aVhmmm
p266
aVrosemary
p267
aVthyme
p268
aVhave
p269
aVantibacterial
p270
aVproperties
p271
aV.
aVmore
p272
aVhelpful
p273
asg14
g15
(S'\x07\xe0\x01\x18\x044\x03\x00\x00\x00'
tRp274
sg17
Nsg18
Vvtknitboy
p275
sa(dp276
g3
(lp277
Vrt
p278
aV@mattison
p279
aV:
aVsociopath-in-chief
p280
aV.
aVshades
p281
aVof
p282
aVcheney
p283
aV.
aVhttps://t.co/g6f8fvnjyf
p284
aV#tcot
p285
asg14
g15
(S'\x07\xe0\x01\x17\x140+\x00\x00\x00'
tRp286
sg17
Nsg18
Vvtknitboy
p287
sa(dp288
g3
(lp289
Vrt
p290
aV@mashablenews
p291
aV:
aVsledders
p292
aVhave
p293
aVinvaded
p294
aVcapitol
p295
aVhill
p296
aVhttps://t.co/wy7euocojd
p297
aV(
aV\U0001f4f8
aV:
aV@scottwongdc
p298
aV)
aV#blizzard2016
p299
aVhttps://t.co/gqt8httw0m
p300
asg14
g15
(S'\x07\xe0\x01\x17\x140\x1b\x00\x00\x00'
tRp301
sg17
Nsg18
Vvtknitboy
p302
sa(dp303
g3
(lp304
Vrt
p305
aV@bluedupage
p306
aV:
aVhalf
p307
aVthe
p308
aVforeign
p309
aVpolicy
p310
aVexperts
p311
aVbehind
p312
aVclinton
p313
aV\u2019
aVs
aVanti-sanders
p314
aVletter
p315
aVhave
p316
aVmilitary
p317
aVindustry
p318
aVties
p319
aVhttps://t.co/il1lmnceme
p320
asg14
g15
(S'\x07\xe0\x01\x17\x140\x10\x00\x00\x00'
tRp321
sg17
Nsg18
Vvtknitboy
p322
sa(dp323
g3
(lp324
Vrt
p325
aV@yesmrgilbert
p326
aV:
aV@nbcnightlynews
p327
aVdisgusting
p328
aVarrogance
p329
aV,
aVhis
p330
aVsupport
p331
aVlies
p332
aVin
p333
aVthe
p334
aVuneducated
p335
aVamerican
p336
aVpopulation
p337
asg14
g15
(S'\x07\xe0\x01\x17\x14.;\x00\x00\x00'
tRp338
sg17
Nsg18
Vvtknitboy
p339
sa(dp340
g3
(lp341
V@trumpetite
p342
aVsent
p343
aVu
aVdm
p344
aV.
aVhttps://t.co/oqtkgdd3fx
p345
aVgo
p346
aV.
aVto
p347
aVbed
p348
aV.
aVup
p349
aVall
p350
aVnight
p351
aVwith
p352
aVsick
p353
aVbunny
p354
aV.
aVok
p355
aV.
aVso
p356
aVfar
p357
aV.
aVxoxo
p358
asg14
g15
(S'\x07\xe0\x01\x17\x1387\x00\x00\x00'
tRp359
sg17
Nsg18
Vvtknitboy
p360
sa(dp361
g3
(lp362
V@trumpetite
p363
aVand
p364
aVmuch
p365
aVof
p366
aVtrump's
p367
aVamerica
p368
aV.
aV.
aV.
aVbetter
p369
aVdm
p370
aVu
aVthis
p371
aV.
aV.
aV.
asg14
g15
(S'\x07\xe0\x01\x17\x135)\x00\x00\x00'
tRp372
sg17
Nsg18
Vvtknitboy
p373
sa(dp374
g3
(lp375
V@trumpetite
p376
aVit's
p377
aVjust
p378
aVhard
p379
aVwhen
p380
aVonce
p381
aVu
aVelect
p382
aVsomeone
p383
aVthey
p384
aVgo
p385
aV.
aVto
p386
aV.
aVdc
p387
aVand
p388
aVbecome
p389
aVbeholden
p390
aVto
p391
aVlobbyists
p392
aV.
aVso
p393
aVmuch
p394
aVfor
p395
aVdemocracy
p396
asg14
g15
(S'\x07\xe0\x01\x17\x1344\x00\x00\x00'
tRp397
sg17
Nsg18
Vvtknitboy
p398
sa(dp399
g3
(lp400
V@trumpetite
p401
aVpeople
p402
aVlike
p403
aVme
p404
aVr
aVquite
p405
aVaware
p406
aVof
p407
aVour
p408
aVfaults
p409
aV.
aVlol
p410
aV.
asg14
g15
(S'\x07\xe0\x01\x17\x133(\x00\x00\x00'
tRp411
sg17
Nsg18
Vvtknitboy
p412
sa(dp413
g3
(lp414
V@trumpetite
p415
aVi
aV.
aVget
p416
aVth
p417
aVreligious
p418
aVdistinction
p419
aVlol
p420
aV.
aVsorry
p421
aVabout
p422
aVth
p423
aVoverreaction
p424
aV.
aVi
aVjust
p425
aVget
p426
aVtired
p427
aVof
p428
aVcanadians
p429
aVshitting
p430
aVon
p431
aVamerica
p432
aV.
asg14
g15
(S'\x07\xe0\x01\x17\x133\n\x00\x00\x00'
tRp433
sg17
Nsg18
Vvtknitboy
p434
sa(dp435
g3
(lp436
V@trumpetite
p437
aVwell
p438
aV.
aVthat
p439
aVpart
p440
aVis
p441
aVtrue
p442
aV.
asg14
g15
(S'\x07\xe0\x01\x17\x13-\x02\x00\x00\x00'
tRp443
sg17
Nsg18
Vvtknitboy
p444
sa(dp445
g3
(lp446
V@trumpetite
p447
aVie
p448
aVwould
p449
aVsay
p450
aVharper
p451
aVwas
p452
aVa
aVtotal
p453
aVdouche
p454
aVbag
p455
aV,
aVnot
p456
aVcanadians
p457
aV.
aV.
aV.
asg14
g15
(S'\x07\xe0\x01\x17\x13)9\x00\x00\x00'
tRp458
sg17
Nsg18
Vvtknitboy
p459
sa(dp460
g3
(lp461
V@trumpetite
p462
aVand
p463
aVit's
p464
aVusually
p465
aVnot
p466
aVthe
p467
aVpeople
p468
aV,
aVrather
p469
aVthe
p470
aVpowerful
p471
asg14
g15
(S'\x07\xe0\x01\x17\x13)\x06\x00\x00\x00'
tRp472
sg17
Nsg18
Vvtknitboy
p473
sa(dp474
g3
(lp475
V@trumpetite
p476
aVi
aVtry
p477
aVnot
p478
aVto
p479
aVmake
p480
aVdisparaging
p481
aVremarks
p482
aVabout
p483
aVcountries
p484
aVin
p485
aVgeneral
p486
aVas
p487
aVi
aVhave
p488
aVfriends
p489
aVin
p490
aVmany
p491
aVlands
p492
aV.
asg14
g15
(S'\x07\xe0\x01\x17\x13(\x1a\x00\x00\x00'
tRp493
sg17
Nsg18
Vvtknitboy
p494
sa(dp495
g3
(lp496
V@trumpetite
p497
aVit's
p498
aVnot
p499
aVall
p500
aVamericans
p501
aV.
aV.
aV.
aVand
p502
aVkinda
p503
aVhurtful
p504
aVto
p505
aVthose
p506
aVof
p507
aVus
p508
aVr
aVur
p509
aVfriends
p510
aV.
aV.
aV.
asg14
g15
(S'\x07\xe0\x01\x17\x13&*\x00\x00\x00'
tRp511
sg17
Nsg18
Vvtknitboy
p512
sa(dp513
g3
(lp514
V@trumpetite
p515
aVc'mon
p516
aV,
aVenuf
p517
aVwith
p518
aVthe
p519
aVshitting
p520
aVon
p521
aVamericans
p522
aV.
aVthere's
p523
aVonly
p524
aV30
p525
aV%
aVok
p526
aV,
aV40
p527
aV%
aVwe
p528
aVwant
p529
aVto
p530
aVkick
p531
aVout
p532
aV.
asg14
g15
(S'\x07\xe0\x01\x17\x13$\x00\x00\x00\x00'
tRp533
sg17
Nsg18
Vvtknitboy
p534
sa(dp535
g3
(lp536
V@kimu
p537
aVhttps://t.co/uz4zghkbfm
p538
asg14
g15
(S'\x07\xe0\x01\x17\x12\x1f\x10\x00\x00\x00'
tRp539
sg17
Nsg18
Vvtknitboy
p540
sa(dp541
g3
(lp542
V@kimu
p543
aVcan
p544
aValso
p545
aVget
p546
aVa
aVlb
p547
aVof
p548
aVit
p549
aVlooseleaf
p550
aVonline
p551
aV.
aV1
aV/
aV8
aVth
p552
aVcost
p553
aV/
aVbag
p554
asg14
g15
(S'\x07\xe0\x01\x17\x12\x0c\x0e\x00\x00\x00'
tRp555
sg17
Nsg18
Vvtknitboy
p556
sa(dp557
g3
(lp558
V@kimu
p559
aVu
aVgotta
p560
aVtry
p561
aVthis
p562
aVhttps://t.co/ue4lgkc0ho
p563
asg14
g15
(S'\x07\xe0\x01\x17\x12\x0b\x02\x00\x00\x00'
tRp564
sg17
Nsg18
Vvtknitboy
p565
sa(dp566
g3
(lp567
V@kimu
p568
aVahhhh
p569
aV!
aVtisanes
p570
aV!
asg14
g15
(S'\x07\xe0\x01\x17\x12\n\x07\x00\x00\x00'
tRp571
sg17
Nsg18
Vvtknitboy
p572
sa(dp573
g3
(lp574
V@kimu
p575
aVwhat
p576
aVabout
p577
aVe
aV?
aV!
asg14
g15
(S'\x07\xe0\x01\x17\x12\t\x1a\x00\x00\x00'
tRp578
sg17
Nsg18
Vvtknitboy
p579
sa(dp580
g3
(lp581
V@kimu
p582
aVhot
p583
aVchocolate
p584
aVday
p585
aV?
aV!
asg14
g15
(S'\x07\xe0\x01\x17\x12\x08%\x00\x00\x00'
tRp586
sg17
Nsg18
Vvtknitboy
p587
sa(dp588
g3
(lp589
Vrt
p590
aV@politicususa
p591
aV:
aVted
p592
aVcruz
p593
aVbusted
p594
aVfor
p595
aVlying
p596
aVabout
p597
aVnot
p598
aVhaving
p599
aVhealth
p600
aVinsurance
p601
aVhttps://t.co/vrjt3w1xwe
p602
aVvia
p603
aV@politicususa
p604
aV#p2
p605
aV#p2b
p606
aV#ctl
p607
asg14
g15
(S'\x07\xe0\x01\x17\x11\x0c!\x00\x00\x00'
tRp608
sg17
Nsg18
Vvtknitboy
p609
sa(dp610
g3
(lp611
Vrt
p612
aV@citystitchette
p613
aV:
aVa
aVbit
p614
aVof
p615
aVa
aVwhiteout
p616
aVat
p617
aVtimes
p618
aV,
aVbut
p619
aVwe
p620
aVenjoyed
p621
aVour
p622
aVsnowy
p623
aVwalk
p624
aV.
aV#centralpark
p625
aV#snowmaggedon2016
p626
aVhttps://t.co/n2ti41xj4z
p627
asg14
g15
(S'\x07\xe0\x01\x17\x11\x036\x00\x00\x00'
tRp628
sg17
Nsg18
Vvtknitboy
p629
sa(dp630
g3
(lp631
Vtigger
p632
aVenjoying
p633
aVa
aV74
p634
aVdegree
p635
aVsunny
p636
aVroom
p637
aV(
aVwoodstove
p638
aVgoing
p639
aV)
aV.
aVwas
p640
aV-
aV3
aVf
aVoutside
p641
aVthis
p642
aVmorning
p643
aV.
aV+
aV5
aVnow
p644
aVhttps://t.co/rxqqlxxxsf
p645
asg14
g15
(S'\x07\xe0\x01\x17\x10(%\x00\x00\x00'
tRp646
sg17
Nsg18
Vvtknitboy
p647
sa(dp648
g3
(lp649
V@kimu
p650
aVwhat
p651
aVdid
p652
aVu
aVguys
p653
aVdo
p654
aVtoday
p655
aV?
aV!
asg14
g15
(S'\x07\xe0\x01\x17\x10\x1a\x13\x00\x00\x00'
tRp656
sg17
Nsg18
Vvtknitboy
p657
sa(dp658
g3
(lp659
Vrt
p660
aV@nationalzoo
p661
aV:
aVtian
p662
aVtian
p663
aVwoke
p664
aVup
p665
aVthis
p666
aVmorning
p667
aVto
p668
aVa
aVlot
p669
aVof
p670
aVsnow
p671
aV,
aVand
p672
aVhe
p673
aVwas
p674
aVpretty
p675
aVexcited
p676
aVabout
p677
aVit
p678
aV.
aV\U0001f43c
aV\U0001f328
aV#blizzard2016
p679
aVhttps://t.co/grhi9t1
p680
aV\u2026
asg14
g15
(S'\x07\xe0\x01\x17\x10\x17 \x00\x00\x00'
tRp681
sg17
Nsg18
Vvtknitboy
p682
sa(dp683
g3
(lp684
V@druchunas
p685
aV@michaelpagewx
p686
aVhttps://t.co/bxirkropvl
p687
asg14
g15
(S'\x07\xe0\x01\x17\x0c8\x1e\x00\x00\x00'
tRp688
sg17
Nsg18
Vvtknitboy
p689
sa(dp690
g3
(lp691
V@druchunas
p692
aVlol
p693
aV.
aVno
p694
aVdriving
p695
aVto
p696
aVli
p697
aVtil
p698
aVsunday
p699
aV!
asg14
g15
(S'\x07\xe0\x01\x17\x0c8\x04\x00\x00\x00'
tRp700
sg17
Nsg18
Vvtknitboy
p701
sa(dp702
g3
(lp703
V@danriversitv
p704
aVc
aVor
p705
aVf
aV?
asg14
g15
(S'\x07\xe0\x01\x17\x0c\n\x1b\x00\x00\x00'
tRp706
sg17
Nsg18
Vvtknitboy
p707
sa(dp708
g3
(lp709
Vrt
p710
aV@cnnbrk
p711
aV:
aVstorm
p712
aVcauses
p713
aV35
p714
aV-
aVmile
p715
aVbackup
p716
aVon
p717
aVsouthbound
p718
aVi
aV-
aV75
p719
aVin
p720
aVkentucky
p721
aV,
aVstate
p722
aVtrooper
p723
aVtold
p724
aVcnn
p725
aV.
aVhttps://t.co/yapguvrooe
p726
aVhttps://t.co/3bxfqi
p727
aV\u2026
asg14
g15
(S'\x07\xe0\x01\x17\x0b,\r\x00\x00\x00'
tRp728
sg17
Nsg18
Vvtknitboy
p729
sa(dp730
g3
(lp731
V@edencottage
p732
aV@edinyarnfest
p733
aVahh
p734
aV.
aVjust
p735
aVmeant
p736
aVthat
p737
aVthe
p738
aV@
aVand
p739
aVmidwinter
p740
aVas
p741
aVa
aVtwitter
p742
aVhandle
p743
aVis
p744
aV.
aVtaken
p745
aVas
p746
aVa
aVmovie
p747
aVstudio
p748
aVin
p749
aVcalifornia
p750
asg14
g15
(S'\x07\xe0\x01\x17\x0b\x15\x1e\x00\x00\x00'
tRp751
sg17
Nsg18
Vvtknitboy
p752
sa(dp753
g3
(lp754
Vrt
p755
aV@shibaguyz
p756
aV:
aVno
p757
aVmore
p758
aVwonky
p759
aV#crochet
p760
aVedges
p761
aVwith
p762
aVthis
p763
aVsimple
p764
aVtechnique
p765
aV:
aVhttps://t.co/m9so7grz00
p766
aVhttps://t.co/yrpdngkiy8
p767
asg14
g15
(S'\x07\xe0\x01\x17\t97\x00\x00\x00'
tRp768
sg17
Nsg18
Vvtknitboy
p769
sa(dp770
g3
(lp771
Vrt
p772
aV@mahamosa
p773
aV:
aVhow
p774
aVand
p775
aVwhen
p776
aVto
p777
aVvote
p778
aVfor
p779
aVbernie
p780
aV(
aVby
p781
aVstate
p782
aV)
aVhttps://t.co/k7qiom9d7z
p783
aV#wearebernie
p784
aV#iowa
p785
aV#southcarolina
p786
aV#nevada
p787
aV#nh
p788
aVhttps://t
p789
aV\u2026
asg14
g15
(S"\x07\xe0\x01\x17\t('\x00\x00\x00"
tRp790
sg17
Nsg18
Vvtknitboy
p791
sa(dp792
g3
(lp793
Vrt
p794
aV@euobs
p795
aV:
aV#denmark
p796
aVto
p797
aVseize
p798
aVanything
p799
aVworth
p800
aVmore
p801
aVthan
p802
aV\u20ac
aV1,340,
p803
aVincluding
p804
aVcash
p805
aV,
aVfrom
p806
aV#refugees
p807
aV.
aVhttps://t.co/ddjeliyq66
p808
asg14
g15
(S'\x07\xe0\x01\x17\t(\x1d\x00\x00\x00'
tRp809
sg17
Nsg18
Vvtknitboy
p810
sa(dp811
g3
(lp812
V@edinyarnfest
p813
aV@edencottage
p814
aVwho
p815
aVis
p816
aVhe
p817
aV?
aV!
aV@
aVmidwinter
p818
aVis
p819
aVa
aVstudio
p820
aVin
p821
aVsanta
p822
aVmonica
p823
aVca
p824
asg14
g15
(S'\x07\xe0\x01\x17\t\x15,\x00\x00\x00'
tRp825
sg17
Nsg18
Vvtknitboy
p826
sa(dp827
g3
(lp828
Vrt
p829
aV@tommessner
p830
aV:
aVa
aVfew
p831
aVsnow
p832
aVamounts
p833
aVfrom
p834
aVthe
p835
aVhuge
p836
aVstorm
p837
aV.
aVit
p838
aVis
p839
aVvery
p840
aVearly
p841
aVin
p842
aVthe
p843
aVgame
p844
aV.
aVhttps://t.co/jrgjnzga2n
p845
asg14
g15
(S'\x07\xe0\x01\x17\x03\x1f6\x00\x00\x00'
tRp846
sg17
Nsg18
Vvtknitboy
p847
sa(dp848
g3
(lp849
Vrt
p850
aV@wcax
p851
aV:
aV#vt
p852
aVutilities
p853
aVhead
p854
aVsouth
p855
aVto
p856
aVhelp
p857
aVwith
p858
aVstorm
p859
aVoutages
p860
aVhttps://t.co/pdu8tqymsk
p861
aVhttps://t.co/bmoogxc512
p862
asg14
g15
(S'\x07\xe0\x01\x17\x03\n1\x00\x00\x00'
tRp863
sg17
Nsg18
Vvtknitboy
p864
sa(dp865
g3
(lp866
Vrt
p867
aV@cirincione
p868
aV:
aVi
aVlike
p869
aVhillary
p870
aV.
aVbut
p871
aVthis
p872
aVattack
p873
aVon
p874
aVbernie
p875
aVfor
p876
aVhis
p877
aVcommon
p878
aVsense
p879
aVdiplomacy
p880
aVwith
p881
aViran
p882
aVis
p883
aVugly
p884
aV&
aVamp
p885
aV;
aVdishonest
p886
aV.
aVhttps://t.co/1mgqvw
p887
aV\u2026
asg14
g15
(S'\x07\xe0\x01\x17\x03\x005\x00\x00\x00'
tRp888
sg17
Nsg18
Vvtknitboy
p889
sa(dp890
g3
(lp891
Vrt
p892
aV@cnn
p893
aV:
aVas
p894
aVsnow
p895
aVfalls
p896
aV,
aV@the_old_guard
p897
aVstands
p898
aVwatch
p899
aVat
p900
aVthe
p901
aVtomb
p902
aVof
p903
aVthe
p904
aVunknown
p905
aVsoldier
p906
aVhttps://t.co/az2vpihmdk
p907
aV#blizzard2016
p908
aVhttps://t.co/1
p909
aV\u2026
asg14
g15
(S'\x07\xe0\x01\x17\x02;.\x00\x00\x00'
tRp910
sg17
Nsg18
Vvtknitboy
p911
sa(dp912
g3
(lp913
Vrt
p914
aV@patbagley
p915
aV:
aVall
p916
aVthese
p917
aVpeople
p918
aVyelling
p919
aVthat
p920
aVsocialist
p921
aVbernie
p922
aVsanders
p923
aVwants
p924
aVto
p925
aVtake
p926
aVtheir
p927
aVstuff
p928
aVwhile
p929
aVwall
p930
aVst
p931
aV.
aVschemes
p932
aVto
p933
aVdo
p934
aVjust
p935
aVthat
p936
aV.
asg14
g15
(S'\x07\xe0\x01\x17\x02;\x1d\x00\x00\x00'
tRp937
sg17
Nsg18
Vvtknitboy
p938
sa(dp939
g3
(lp940
V@kimu
p941
aVno
p942
aVway
p943
aV!
aVwhat
p944
aVdo
p945
aVyou
p946
aVdo
p947
aVthere
p948
aV?
aV!
aVcool
p949
asg14
g15
(S'\x07\xe0\x01\x17\x01:"\x00\x00\x00'
tRp950
sg17
Nsg18
Vvtknitboy
p951
sa(dp952
g3
(lp953
V@kimu
p954
aVwhat
p955
aVsection
p956
aVdo
p957
aVu
aVlive
p958
aVin
p959
aV?
asg14
g15
(S'\x07\xe0\x01\x17\x01,\x0e\x00\x00\x00'
tRp960
sg17
Nsg18
Vvtknitboy
p961
sa(dp962
g3
(lp963
V@kimu
p964
aVdid
p965
aVi
aVtell
p966
aVu
aVmy
p967
aVhubby
p968
aVwent
p969
aVto
p970
aVvandy
p971
aV?
aV!
aV'
aV82
p972
asg14
g15
(S'\x07\xe0\x01\x17\x01+0\x00\x00\x00'
tRp973
sg17
Nsg18
Vvtknitboy
p974
sa(dp975
g3
(lp976
Vwoah
p977
aV!
aV10
p978
aV"
aVin
p979
aVnashville
p980
aV?
aV!
aV@kimu
p981
asg14
g15
(S"\x07\xe0\x01\x17\x01'\x15\x00\x00\x00"
tRp982
sg17
Nsg18
Vvtknitboy
p983
sa(dp984
g3
(lp985
Vwell
p986
aV,
aVchessie
p987
aVis
p988
aVacting
p989
aVpoorly
p990
aVagain
p991
aV.
aVhe
p992
aVpulled
p993
aVthru
p994
aVfrom
p995
aV2
aVweeks
p996
aVago
p997
aV,
aVbut
p998
aVhe's
p999
aVacting
p1000
aVquite
p1001
aVlethargic
p1002
aVagain
p1003
aV.
aVpreparing
p1004
aVmyself
p1005
aV.
asg14
g15
(S'\x07\xe0\x01\x17\x004\x0e\x00\x00\x00'
tRp1006
sg17
Nsg18
Vvtknitboy
p1007
sa(dp1008
g3
(lp1009
V@organicgay
p1010
aVlol
p1011
aVi
aVdon't
p1012
aVcap
p1013
aVany
p1014
aVgod
p1015
aV/
aVdess
p1016
asg14
g15
(S"\x07\xe0\x01\x16\x17\x15'\x00\x00\x00"
tRp1017
sg17
Nsg18
Vvtknitboy
p1018
sa(dp1019
g3
(lp1020
Vand
p1021
aVthe
p1022
aVcloak
p1023
aVof
p1024
aVthe
p1025
aVgoddess
p1026
aVswoops
p1027
aVover
p1028
aVthe
p1029
aVevil
p1030
aVcity
p1031
aV.
aV.
aV.
aVhttps://t.co/fmw9rv1ryt
p1032
asg14
g15
(S'\x07\xe0\x01\x16\x11\x040\x00\x00\x00'
tRp1033
sg17
Nsg18
Vvtknitboy
p1034
sa(dp1035
g3
(lp1036
Vrt
p1037
aV@watchdogsniffer
p1038
aV:
aVhillary
p1039
aVclinton
p1040
aV-
aVignores
p1041
aVthe
p1042
aVfact
p1043
aVobamacare
p1044
aV(
aVprivate
p1045
aVhealth
p1046
aVinsurance
p1047
aV)
aVremains
p1048
aVunaffordable
p1049
aVfor
p1050
aV30
p1051
aV+
aVmillion
p1052
aVamericans
p1053
aV.
aV\u2026
asg14
g15
(S'\x07\xe0\x01\x16\x10#/\x00\x00\x00'
tRp1054
sg17
Nsg18
Vvtknitboy
p1055
sa(dp1056
g3
(lp1057
Vrt
p1058
aV@philiptortora
p1059
aV:
aVoscar
p1060
aVnominee
p1061
aVcharlotte
p1062
aVrampling
p1063
aV:
aVdiversity
p1064
aVoutcry
p1065
aVis
p1066
aV'
aVracist
p1067
aVto
p1068
aVwhites
p1069
aV'
aVhttps://t.co/bzzpzv1nsd
p1070
aVvia
p1071
aV@usatoday
p1072
asg14
g15
(S'\x07\xe0\x01\x16\x10#\x16\x00\x00\x00'
tRp1073
sg17
Nsg18
Vvtknitboy
p1074
sa(dp1075
g3
(lp1076
Vrt
p1077
aV@shibaguyz
p1078
aV:
aVlearn
p1079
aVflawless
p1080
aV#crochet
p1081
aVfinishing
p1082
aVwith
p1083
aVour
p1084
aVspecial
p1085
aVend
p1086
aVcap
p1087
aVfinishing
p1088
aVstitch
p1089
aVhttps://t.co/m0kwea9sjc
p1090
aVhttps://t.co/whswmhtwcd
p1091
asg14
g15
(S'\x07\xe0\x01\x16\x10#\t\x00\x00\x00'
tRp1092
sg17
Nsg18
Vvtknitboy
p1093
sa(dp1094
g3
(lp1095
Vrt
p1096
aV@igorvolsky
p1097
aV:
aVtweeted
p1098
aVby
p1099
aVcongresswoman
p1100
aVwho
p1101
aVsupported
p1102
aVbudget
p1103
aVthat
p1104
aVwould
p1105
aVcut
p1106
aVfood
p1107
aVstamps
p1108
aVby
p1109
aV34
p1110
aV%
aVhttps://t.co/0i5gorbd8b
p1111
aVhttps://t.co/jkhgi3
p1112
aV\u2026
asg14
g15
(S'\x07\xe0\x01\x16\x10"\t\x00\x00\x00'
tRp1113
sg17
Nsg18
Vvtknitboy
p1114
sa(dp1115
g3
(lp1116
Vrt
p1117
aV@watchdogsniffer
p1118
aV:
aVhillary
p1119
aVclinton
p1120
aV-
aVagainst
p1121
aVthe
p1122
aV#fightfor15
p1123
aV-
aVbut
p1124
aVinstead
p1125
aVsupports
p1126
aV$
aV12
p1127
aVan
p1128
aVhour
p1129
aVas
p1130
aVenough
p1131
aVfor
p1132
aVthe
p1133
aVeveryday
p1134
aVamerican
p1135
aV.
aV#ou
p1136
aV\u2026
asg14
g15
(S'\x07\xe0\x01\x16\x10 \x19\x00\x00\x00'
tRp1137
sg17
Nsg18
Vvtknitboy
p1138
sa(dp1139
g3
(lp1140
Vrt
p1141
aV@franklinhabit
p1142
aV:
aVit's
p1143
aVfriday
p1144
aV,
aVand
p1145
aVit's
p1146
aVa
aVfridays
p1147
aVwith
p1148
aVfranklin
p1149
aVfriday
p1150
aV.
aVhttps://t.co/krhbbduzoq
p1151
asg14
g15
(S'\x07\xe0\x01\x16\x10 \x04\x00\x00\x00'
tRp1152
sg17
Nsg18
Vvtknitboy
p1153
sa(dp1154
g3
(lp1155
Vrt
p1156
aV@urbanbohemian
p1157
aV:
aVand
p1158
aVpossibly
p1159
aVmichael
p1160
aVcaine
p1161
aV\u2019
aVs
aVas
p1162
aVwell
p1163
aV.
aVhttps://t.co/gn3chtzd2y
p1164
asg14
g15
(S'\x07\xe0\x01\x16\x10\x1f\x11\x00\x00\x00'
tRp1165
sg17
Nsg18
Vvtknitboy
p1166
sa(dp1167
g3
(lp1168
Vrt
p1169
aV@watchdogsniffer
p1170
aV:
aVhillary
p1171
aVclinton
p1172
aV-
aVat
p1173
aVa
aVtime
p1174
aVwhen
p1175
aVthe
p1176
aV#tbtf
p1177
aVbanks
p1178
aVare
p1179
aVstill
p1180
aVinvolved
p1181
aVin
p1182
aVrisky
p1183
aVderivatives
p1184
aV-
aVwill
p1185
aVnot
p1186
aVsupport
p1187
aVreinstatin
p1188
aV\u2026
asg14
g15
(S'\x07\xe0\x01\x16\x10\x1f\x08\x00\x00\x00'
tRp1189
sg17
Nsg18
Vvtknitboy
p1190
sa(dp1191
g3
(lp1192
Vrt
p1193
aV@mattison
p1194
aV:
aV#flintwatercrisis
p1195
aVexemplifies
p1196
aVrepublican
p1197
aVanti-science
p1198
aV,
aVprofit
p1199
aVat
p1200
aVany
p1201
aVcost
p1202
aVideology
p1203
aV.
aVit
p1204
aVis
p1205
aVimmoral
p1206
aV.
aVhttps://t.co/xl8gstfzx7
p1207
aV#
aVt
aV\u2026
asg14
g15
(S'\x07\xe0\x01\x16\x10\x1e:\x00\x00\x00'
tRp1208
sg17
Nsg18
Vvtknitboy
p1209
sa(dp1210
g3
(lp1211
Vrt
p1212
aV@igorvolsky
p1213
aV:
aVevery
p1214
aVlife
p1215
aVprecious
p1216
aVexcept
p1217
aVfor
p1218
aV17.6
p1219
aVm
aVuninsured
p1220
aVwho've
p1221
aVgained
p1222
aVhealth
p1223
aVcoverage
p1224
aVthrough
p1225
aVobamacare
p1226
aVlaw
p1227
aVu
aVwant
p1228
aVto
p1229
aVrepeal
p1230
aVhttps
p1231
aV:/
p1232
aV\u2026
asg14
g15
(S'\x07\xe0\x01\x16\x10\x1e%\x00\x00\x00'
tRp1233
sg17
Nsg18
Vvtknitboy
p1234
sa(dp1235
g3
(lp1236
V@urbanbohemian
p1237
aVreally
p1238
aV.
aVi
aVwas
p1239
aVlike
p1240
aV.
aVwtfc
p1241
asg14
g15
(S'\x07\xe0\x01\x16\x10\x17\x08\x00\x00\x00'
tRp1242
sg17
Nsg18
Vvtknitboy
p1243
sa(dp1244
g3
(lp1245
Vrt
p1246
aV@urbanbohemian
p1247
aV:
aVso
p1248
aV\u2026
aVis
p1249
aVthe
p1250
aVnew
p1251
aVthing
p1252
aVgonna
p1253
aVbe
p1254
aVasking
p1255
aVold
p1256
aVwhite
p1257
aVactors
p1258
aVtheir
p1259
aVthoughts
p1260
aVon
p1261
aVthe
p1262
aVacademy
p1263
aV&
aVamp
p1264
aV;
aVindustry
p1265
aV\u2019
aVs
aVlack
p1266
aVof
p1267
aVdiversity
p1268
aV/
aVrepre
p1269
aV\u2026
asg14
g15
(S'\x07\xe0\x01\x16\x10\x16&\x00\x00\x00'
tRp1270
sg17
Nsg18
Vvtknitboy
p1271
sa(dp1272
g3
(lp1273
V@romidesigns
p1274
aV@jellidonut
p1275
aVno
p1276
aVway
p1277
aV!
aVu
aVmet
p1278
aV?
aV!
aV!
aV!
asg14
g15
(S'\x07\xe0\x01\x16\x10\x141\x00\x00\x00'
tRp1279
sg17
Nsg18
Vvtknitboy
p1280
sa(dp1281
g3
(lp1282
V.
aV@jimcantore
p1283
aVget
p1284
aVbuffalo
p1285
aVbison
p1286
aVsocks
p1287
aVfrom
p1288
aVmy
p1289
aV.
aVfriends
p1290
aVat
p1291
aV@buffalowoolco
p1292
aVron
p1293
aV:
aVjim
p1294
aVis
p1295
aVbig
p1296
aVguy
p1297
aVon
p1298
aVthe
p1299
aVweather
p1300
aVchannel
p1301
aV!
aV!
aV!
asg14
g15
(S'\x07\xe0\x01\x16\x10\x0f\x16\x00\x00\x00'
tRp1302
sg17
Nsg18
Vvtknitboy
p1303
sa(dp1304
g3
(lp1305
Vrt
p1306
aV@thetaskforce
p1307
aV:
aVmissed
p1308
aVlast
p1309
aVnight's
p1310
aV"
aVblack
p1311
aVfeminism
p1312
aV&
aVamp
p1313
aV;
aVmovement
p1314
aVfor
p1315
aVblack
p1316
aVlives
p1317
aV"
aVpanel
p1318
aV?
aVview
p1319
aVit
p1320
aVhere
p1321
aV:
aVhttps://t.co/xl7mpyinn6
p1322
aV#cc16
p1323
aVhttps
p1324
aV\u2026
asg14
g15
(S'\x07\xe0\x01\x16\x10\x0c\x05\x00\x00\x00'
tRp1325
sg17
Nsg18
Vvtknitboy
p1326
sa(dp1327
g3
(lp1328
Vwhat
p1329
aVa
aVhypocrite
p1330
aV.
aVdefending
p1331
aVthe
p1332
aVindefensible
p1333
aV.
aV@berniesanders
p1334
aV#feelthebern
p1335
aVhttps://t.co/ixpqljycbz
p1336
asg14
g15
(S'\x07\xe0\x01\x16\x10\x0b\x1a\x00\x00\x00'
tRp1337
sg17
Nsg18
Vvtknitboy
p1338
sa(dp1339
g3
(lp1340
V@urbanbohemian
p1341
aVwas
p1342
aVjust
p1343
aVlol-ing
p1344
aVgood
p1345
aVhumorously
p1346
asg14
g15
(S'\x07\xe0\x01\x16\x10\x08\x16\x00\x00\x00'
tRp1347
sg17
Nsg18
Vvtknitboy
p1348
sa(dp1349
g3
(lp1350
V@urbanbohemian
p1351
aVlol
p1352
aV.
aVi
aVdidn't
p1353
aVsay
p1354
aVit
p1355
aVwas
p1356
aVsilly
p1357
aV.
aVi
aVlove
p1358
aVit
p1359
aVlpl
p1360
asg14
g15
(S'\x07\xe0\x01\x16\x10\x06+\x00\x00\x00'
tRp1361
sg17
Nsg18
Vvtknitboy
p1362
sa(dp1363
g3
(lp1364
V@urbanbohemian
p1365
aVdo
p1366
aVlike
p1367
aVone
p1368
aVan
p1369
aVhour
p1370
aVat
p1371
aVthe
p1372
aVsame
p1373
aVspot
p1374
aVfor
p1375
aVsnow
p1376
aVtime
p1377
aVlapse
p1378
aV.
aVlol
p1379
asg14
g15
(S'\x07\xe0\x01\x16\x0f0.\x00\x00\x00'
tRp1380
sg17
Nsg18
Vvtknitboy
p1381
sa(dp1382
g3
(lp1383
Vrt
p1384
aV@chicagotribune
p1385
aV:
aVmichael
p1386
aVmoore
p1387
aV:
aV"
aVit's
p1388
aVnot
p1389
aVjust
p1390
aVa
aVwater
p1391
aVcrisis
p1392
aV.
aVit's
p1393
aVa
aVracial
p1394
aVcrisis
p1395
aV.
aVit's
p1396
aVa
aVpoverty
p1397
aVcrisis
p1398
aV.
aV"
aVhttps://t.co/fqyzuznu6z
p1399
aVhtt
p1400
aV\u2026
asg14
g15
(S'\x07\xe0\x01\x16\x0f+\x06\x00\x00\x00'
tRp1401
sg17
Nsg18
Vvtknitboy
p1402
sa(dp1403
g3
(lp1404
Vrt
p1405
aV@nerdytogether
p1406
aV:
aVhorrible
p1407
aV.
aVhow
p1408
aVdoes
p1409
aVa
aVname
p1410
aVaffect
p1411
aVthe
p1412
aVsport
p1413
aVin
p1414
aVany
p1415
aVway
p1416
aV?
aVchange
p1417
aVit
p1418
aVand
p1419
aVstop
p1420
aVbeing
p1421
aVracist
p1422
aV.
aV\U0001f622
aV\U0001f622
aV\U0001f622
aV\U0001f622
aV\U0001f622
aVhttps://t.co/8xpcmzzxv2
p1423
asg14
g15
(S'\x07\xe0\x01\x16\x0f\x1e\x13\x00\x00\x00'
tRp1424
sg17
Nsg18
Vvtknitboy
p1425
sa(dp1426
g3
(lp1427
Vrt
p1428
aV@treyyingst
p1429
aV:
aVgrocery
p1430
aVstores
p1431
aVin
p1432
aVdc
p1433
aVhave
p1434
aVlines
p1435
aVthat
p1436
aVare
p1437
aV30
p1438
aV+
aVpeople
p1439
aVlong
p1440
aV#blizzard2016
p1441
aVhttps://t.co/0ugb3zxv21
p1442
asg14
g15
(S'\x07\xe0\x01\x16\x0f\x17)\x00\x00\x00'
tRp1443
sg17
Nsg18
Vvtknitboy
p1444
sa(dp1445
g3
(lp1446
Vrt
p1447
aV@katrinanation
p1448
aV:
aVclinton
p1449
aVknocks
p1450
aVsanders
p1451
aVon
p1452
aVforeign
p1453
aVpolicy
p1454
aVexperience
p1455
aV-
aV-
aVbut
p1456
aVwhat's
p1457
aVexperience
p1458
aVif
p1459
aVleads
p1460
aVto
p1461
aVpoor
p1462
aVjudgment
p1463
aV/
aVwrong
p1464
aVlessons--htt
p1465
aV\u2026
asg14
g15
(S'\x07\xe0\x01\x16\x0f\x152\x00\x00\x00'
tRp1466
sg17
Nsg18
Vvtknitboy
p1467
sa(dp1468
g3
(lp1469
Vrt
p1470
aV@pdaclimate
p1471
aV:
aVhillary
p1472
aVclinton
p1473
aVrakes
p1474
aVin
p1475
aVmoney
p1476
aVfrom
p1477
aVfossil
p1478
aVfuel
p1479
aVinterests
p1480
aVhttps://t.co/fpgkthqn1d
p1481
asg14
g15
(S'\x07\xe0\x01\x16\x0f\x15\x1e\x00\x00\x00'
tRp1482
sg17
Nsg18
Vvtknitboy
p1483
sa(dp1484
g3
(lp1485
Vrt
p1486
aV@igorvolsky
p1487
aV:
aVgop
p1488
aVafter
p1489
aV'
aV08
p1490
aVloss
p1491
aV:
aVwe
p1492
aVmust
p1493
aVappeal
p1494
aVto
p1495
aVnew
p1496
aVdemographic
p1497
aVgroups
p1498
aVgop
p1499
aVafter
p1500
aV'
aV12
p1501
aVloss
p1502
aV:
aVwe
p1503
aVmust
p1504
aVappeal
p1505
aVto
p1506
aVnew
p1507
aVdemographic
p1508
aVgop
p1509
aVin
p1510
aV\u2026
asg14
g15
(S'\x07\xe0\x01\x16\x0f\x15\x0e\x00\x00\x00'
tRp1511
sg17
Nsg18
Vvtknitboy
p1512
sa(dp1513
g3
(lp1514
V@latimes
p1515
aVwhile
p1516
aVhe
p1517
aVwas
p1518
aVdrunk
p1519
aV.
aV.
aV.
asg14
g15
(S'\x07\xe0\x01\x16\x0e6\t\x00\x00\x00'
tRp1520
sg17
Nsg18
Vvtknitboy
p1521
sa(dp1522
g3
(lp1523
V@kimu
p1524
aVis
p1525
aVe
aVexcited
p1526
aV?
aV!
aVsnow
p1527
aVday
p1528
aVplans
p1529
aV?
asg14
g15
(S'\x07\xe0\x01\x16\x0e-\x1f\x00\x00\x00'
tRp1530
sg17
Nsg18
Vvtknitboy
p1531
sa(dp1532
g3
(lp1533
Vrt
p1534
aV@latentexistence
p1535
aV:
aV"
aVspecifically
p1536
aVdirected
p1537
aVto
p1538
aVexclude
p1539
aVthe
p1540
aVrey
p1541
aVcharacter
p1542
aVfrom
p1543
aVall
p1544
aVstar
p1545
aVwars-related
p1546
aVmerchandise
p1547
aV"
aVhttps://t.co/f06fjwbrq5
p1548
aVht
p1549
aV\u2026
asg14
g15
(S'\x07\xe0\x01\x16\x0e%\x1f\x00\x00\x00'
tRp1550
sg17
Nsg18
Vvtknitboy
p1551
sa(dp1552
g3
(lp1553
V.
aV@kimu
p1554
aVhttps://t.co/w5alz6dqec
p1555
asg14
g15
(S'\x07\xe0\x01\x16\x0e$5\x00\x00\x00'
tRp1556
sg17
Nsg18
Vvtknitboy
p1557
sa(dp1558
g3
(lp1559
Vrt
p1560
aV@jvplive
p1561
aV:
aVwhy
p1562
aVwe
p1563
aVneed
p1564
aVto
p1565
aVfight
p1566
aVfor
p1567
aV#bds
p1568
aVand
p1569
aVrally
p1570
aVagainst
p1571
aVupcoming
p1572
aVlegislation
p1573
aVtrying
p1574
aVto
p1575
aVblock
p1576
aVit
p1577
aV.
aV#bds
p1578
aVyes
p1579
aV.
aVhttps://t.co/yyr8pxziqw
p1580
asg14
g15
(S'\x07\xe0\x01\x16\x0e$\x02\x00\x00\x00'
tRp1581
sg17
Nsg18
Vvtknitboy
p1582
sa(dp1583
g3
(lp1584
Vrt
p1585
aV@kyle_feldscher
p1586
aV:
aVno
p1587
aVjoke
p1588
aV,
aVthe
p1589
aVentire
p1590
aVfirst
p1591
aVemail
p1592
aVreleased
p1593
aVby
p1594
aVmichigan
p1595
aVgov
p1596
aV.
aVrick
p1597
aVsnyder
p1598
aVis
p1599
aVredacted
p1600
aV.
aVhttps://t.co/rzpif77uet
p1601
asg14
g15
(S'\x07\xe0\x01\x16\x0e#,\x00\x00\x00'
tRp1602
sg17
Nsg18
Vvtknitboy
p1603
sa(dp1604
g3
(lp1605
Vrt
p1606
aV@bluedupage
p1607
aV:
aVclinton
p1608
aVin
p1609
aV2008
p1610
aV:
aV\u201c
aVsince
p1611
aVwhen
p1612
aVdemocrats
p1613
aVattack
p1614
aVone
p1615
aVanother
p1616
aVon
p1617
aVuniversal
p1618
aVhealth
p1619
aVcare
p1620
aV?
aV\u201d
aVhttps://t.co/fpok2uqlnv
p1621
aVhttps://t.co/
p1622
aV\u2026
asg14
g15
(S'\x07\xe0\x01\x16\x0e\t\x16\x00\x00\x00'
tRp1623
sg17
Nsg18
Vvtknitboy
p1624
sa(dp1625
g3
(lp1626
Vwow
p1627
aV.
aVeye-opening
p1628
aVarticle
p1629
aVon
p1630
aVhillary's
p1631
aVforeign
p1632
aVpolicy
p1633
aV"
aVexperience
p1634
aV"
aVvs
p1635
aVjudgment
p1636
aVhttps://t.co/e1z8ovgh0z.
p1637
aV#feelthebern
p1638
asg14
g15
(S'\x07\xe0\x01\x16\x0e\x01%\x00\x00\x00'
tRp1639
sg17
Nsg18
Vvtknitboy
p1640
sa(dp1641
g3
(lp1642
Vrt
p1643
aV@nicola_evans_ph
p1644
aV:
aVlunch
p1645
aVtoday
p1646
aV#veggie
p1647
aVmixed
p1648
aVbean
p1649
aVchilli
p1650
aV&
aVamp
p1651
aV;
aVsweet
p1652
aVcorn
p1653
aVfritter
p1654
aV,
aVinspired
p1655
aVby
p1656
aV@vegsoc_cookery
p1657
aVmexican
p1658
aVday
p1659
aVhttps://t.co/rij9f
p1660
aV\u2026
asg14
g15
(S'\x07\xe0\x01\x16\r/\x1e\x00\x00\x00'
tRp1661
sg17
Nsg18
Vvtknitboy
p1662
sa(dp1663
g3
(lp1664
V@shibaguyz
p1665
aVfor
p1666
aVme
p1667
aV,
aVit's
p1668
aVearly
p1669
aVmorning
p1670
aV!
aVstill
p1671
aVup
p1672
aVat
p1673
aV8
aV:
aV46
p1674
aVam
p1675
aV.
aV.
aV.
aValmost
p1676
aVbedtime
p1677
aV.
aVlol
p1678
asg14
g15
(S'\x07\xe0\x01\x16\r.%\x00\x00\x00'
tRp1679
sg17
Nsg18
Vvtknitboy
p1680
sa(dp1681
g3
(lp1682
Vrt
p1683
aV@jricole
p1684
aV:
aVnetanyahu
p1685
aVdemands
p1686
aVmore
p1687
aVbillions
p1688
aVfrom
p1689
aVus
p1690
aVafter
p1691
aViran
p1692
aVdeal
p1693
aV,
aVinsults
p1694
aVus
p1695
aVenvoy
p1696
aV,
aVsteals
p1697
aV.
aV.
aV.
aV-
aVhttps://t.co/excjireyow
p1698
aVhttps://t.co/c
p1699
aV\u2026
asg14
g15
(S'\x07\xe0\x01\x16\r\x12!\x00\x00\x00'
tRp1700
sg17
Nsg18
Vvtknitboy
p1701
sa(dp1702
g3
(lp1703
Vrt
p1704
aV@guardian
p1705
aV:
aVhillary
p1706
aVclinton
p1707
aVangers
p1708
aViowa
p1709
aVfans
p1710
aVwho
p1711
aVwaited
p1712
aVhours
p1713
aVfor
p1714
aVfive-minute
p1715
aVspeech
p1716
aVhttps://t.co/3jjlx4ppq0
p1717
asg14
g15
(S'\x07\xe0\x01\x16\r\x06\x12\x00\x00\x00'
tRp1718
sg17
Nsg18
Vvtknitboy
p1719
sa(dp1720
g3
(lp1721
V#roundchurch
p1722
aVin
p1723
aVrichmond
p1724
aV#vermont
p1725
aVhttps://t.co/er3i8xyyoy
p1726
asg14
g15
(S'\x07\xe0\x01\x16\x0c5\x12\x00\x00\x00'
tRp1727
sg17
Nsg18
Vvtknitboy
p1728
sa(dp1729
g3
(lp1730
V@shibaguyz
p1731
aVlol
p1732
aV.
aVmaybe
p1733
aVcuz
p1734
aVi'm
p1735
aVup
p1736
aVat
p1737
aV3
aV-
aV7
aVam
p1738
aVmy
p1739
aVtime
p1740
aV?
asg14
g15
(S'\x07\xe0\x01\x16\x0b),\x00\x00\x00'
tRp1741
sg17
Nsg18
Vvtknitboy
p1742
sa(dp1743
g3
(lp1744
V.
aV@axsinvt
p1745
aVhillary's
p1746
aVtake
p1747
aVon
p1748
aV3
aVpolls
p1749
aVwhere
p1750
aVbernie
p1751
aVgoes
p1752
aVup
p1753
aV7
aV-
aV10
p1754
aV%
aV.
aVemail
p1755
aV$
aVraiser
p1756
aV.
aV#feelthebern
p1757
aVhttps://t.co/qwwpeir08u
p1758
asg14
g15
(S'\x07\xe0\x01\x16\n3\x06\x00\x00\x00'
tRp1759
sg17
Nsg18
Vvtknitboy
p1760
sa(dp1761
g3
(lp1762
V@axsinvt
p1763
aVthat's
p1764
aVinteresting
p1765
aV.
aVi
aVsaw
p1766
aVa
aVpost
p1767
aV.
aVthat
p1768
aVsaid
p1769
aVshe
p1770
aV.
aVdidn't
p1771
aVmention
p1772
aVhim
p1773
aV.
aVyesterday
p1774
aV.
aVshe
p1775
aV.
aVdid
p1776
aV.
aVthe
p1777
aVday
p1778
aVbefore
p1779
aVtho
p1780
aV.
asg14
g15
(S'\x07\xe0\x01\x16\n/-\x00\x00\x00'
tRp1781
sg17
Nsg18
Vvtknitboy
p1782
sa(dp1783
g3
(lp1784
V@shibaguyz
p1785
aVfigured
p1786
aVit
p1787
aVwas
p1788
aVdue
p1789
aVto
p1790
aVpolitics
p1791
aVlol
p1792
aV.
aVfeel
p1793
aVfree
p1794
aVto
p1795
aVunfoll
p1796
aVme
p1797
aV.
aVi
aVthink
p1798
aVi
aVgot
p1799
aVyou
p1800
aVon
p1801
aVfb
p1802
asg14
g15
(S'\x07\xe0\x01\x16\n\x16 \x00\x00\x00'
tRp1803
sg17
Nsg18
Vvtknitboy
p1804
sa(dp1805
g3
(lp1806
V@shibaguyz
p1807
aVhey
p1808
aV!
aVdid
p1809
aVyou
p1810
aVguys
p1811
aVmute
p1812
aVme
p1813
aVor
p1814
aVturn
p1815
aVmy
p1816
aVretweets
p1817
aVoff
p1818
aV?
aVcuz
p1819
aVu
aVused
p1820
aVto
p1821
aVthank
p1822
aVme
p1823
aVwhen
p1824
aVi
aVrt
p1825
aVur
p1826
aVstuff
p1827
aVand
p1828
aVall
p1829
aVof
p1830
aVa
aVsudden
p1831
aVit
p1832
aVstopped
p1833
asg14
g15
(S'\x07\xe0\x01\x16\n\x15\x04\x00\x00\x00'
tRp1834
sg17
Nsg18
Vvtknitboy
p1835
sa(dp1836
g3
(lp1837
Vrt
p1838
aV@hughnaylor
p1839
aV:
aVthe
p1840
aVpaper
p1841
aVof
p1842
aVrecord
p1843
aVin
p1844
aVisrael
p1845
aVcalling
p1846
aVown
p1847
aVcounty
p1848
aVapartheid
p1849
aVstate
p1850
aVand
p1851
aVfor
p1852
aVeffective
p1853
aVsanctions
p1854
aVto
p1855
aVend
p1856
aVits
p1857
aVoccupation
p1858
aVhttps
p1859
aV:/
p1860
aV\u2026
asg14
g15
(S'\x07\xe0\x01\x16\x084\x04\x00\x00\x00'
tRp1861
sg17
Nsg18
Vvtknitboy
p1862
sa(dp1863
g3
(lp1864
Vrt
p1865
aV@derekmarkham
p1866
aV:
aVso
p1867
aVwhat
p1868
aVexactly
p1869
aVis
p1870
aVthe
p1871
aVholdup
p1872
aVwith
p1873
aVthe
p1874
aVfeds
p1875
aVremoving
p1876
aVthe
p1877
aVasshat
p1878
aVarmed
p1879
aVoccupiers
p1880
aVfrom
p1881
aVmalheur
p1882
aV?
aVi
aVhave
p1883
aVyet
p1884
aVto
p1885
aVread
p1886
aVa
aVclear
p1887
aV\u2026
asg14
g15
(S'\x07\xe0\x01\x16\x04$5\x00\x00\x00'
tRp1888
sg17
Nsg18
Vvtknitboy
p1889
sa(dp1890
g3
(lp1891
V@msnbc
p1892
aVhow
p1893
aV.
aVis
p1894
aVthis
p1895
aVnews
p1896
aV?
asg14
g15
(S'\x07\xe0\x01\x16\x04"\x1c\x00\x00\x00'
tRp1897
sg17
Nsg18
Vvtknitboy
p1898
sa(dp1899
g3
(lp1900
Vrt
p1901
aV@bernieshomie
p1902
aV:
aVbernie's
p1903
aVcongressional
p1904
aVreport
p1905
aVcard
p1906
aV:
aV#feelthebern
p1907
aVhttps://t.co/3udzayuuqr
p1908
asg14
g15
(S'\x07\xe0\x01\x16\x03\x14\x1e\x00\x00\x00'
tRp1909
sg17
Nsg18
Vvtknitboy
p1910
sa(dp1911
g3
(lp1912
Vrt
p1913
aV@yamiche
p1914
aV:
aVhere's
p1915
aVmy
p1916
aVstory
p1917
aVagain
p1918
aVon
p1919
aVwhat
p1920
aV@sensanders
p1921
aVis
p1922
aVdoing
p1923
aVto
p1924
aVget
p1925
aVmore
p1926
aVblacks
p1927
aVto
p1928
aVsupport
p1929
aVhim
p1930
aV.
aVsuper
p1931
aVrelevant
p1932
aVin
p1933
aVrecent
p1934
aVdays
p1935
aV.
aVhttps://t
p1936
aV\u2026
asg14
g15
(S'\x07\xe0\x01\x16\x022"\x00\x00\x00'
tRp1937
sg17
Nsg18
Vvtknitboy
p1938
sa(dp1939
g3
(lp1940
Vrt
p1941
aV@ktnicoll87
p1942
aV:
aV@maddow
p1943
aV@berniesanders
p1944
aV@ppact
p1945
aV@naral
p1946
aV@hrc
p1947
aVwhen
p1948
aVthe
p1949
aVboard
p1950
aVmembers
p1951
aVmake
p1952
aVthe
p1953
aVendorsement
p1954
aVwithout
p1955
aVconsidering
p1956
aVtheir
p1957
aVmembers
p1958
aVtha
p1959
aV\u2026
asg14
g15
(S'\x07\xe0\x01\x16\x02\x1c$\x00\x00\x00'
tRp1960
sg17
Nsg18
Vvtknitboy
p1961
sa(dp1962
g3
(lp1963
Vrt
p1964
aV@ktnicoll87
p1965
aV:
aV@maddow
p1966
aV@berniesanders
p1967
aV@ppact
p1968
aV@naral
p1969
aV@hrc
p1970
aVbecause
p1971
aVof
p1972
aVthe
p1973
aVties
p1974
aVto
p1975
aVclinton
p1976
aVeach
p1977
aVendorsement
p1978
aVis
p1979
aVa
aVconflict
p1980
aVof
p1981
aVinterest
p1982
aV!
aV#feelt
p1983
aV\u2026
asg14
g15
(S'\x07\xe0\x01\x16\x02\x1b"\x00\x00\x00'
tRp1984
sg17
Nsg18
Vvtknitboy
p1985
sa(dp1986
g3
(lp1987
Vrt
p1988
aV@andrewcicchetti
p1989
aV:
aV.
aV@mitchellreports
p1990
aVthe
p1991
aVbernie
p1992
aVsanders
p1993
aVad
p1994
aVeveryone
p1995
aVis
p1996
aVtalking
p1997
aVabout
p1998
aVand
p1999
aVthat
p2000
aVhillary
p2001
aVdoesn't
p2002
aVwant
p2003
aVyou
p2004
aVto
p2005
aVsee
p2006
aV:
aVamerica
p2007
aVh
aV\u2026
asg14
g15
(S'\x07\xe0\x01\x15\x13)%\x00\x00\x00'
tRp2008
sg17
Nsg18
Vvtknitboy
p2009
sa(dp2010
g3
(lp2011
Vrt
p2012
aV@ajstream
p2013
aV:
aVflint's
p2014
aVwater
p2015
aVsmells
p2016
aV"
aVlike
p2017
aVan
p2018
aVopen
p2019
aVsewer
p2020
aV.
aV.
aVmy
p2021
aVhand
p2022
aVstarted
p2023
aVto
p2024
aVswell
p2025
aVafter
p2026
aVwashing
p2027
aVdishes
p2028
aV"
aV,
aVsays
p2029
aV@nayyirahshariff
p2030
aV.
aV#flintwaterc
p2031
aV\u2026
asg14
g15
(S'\x07\xe0\x01\x15\x13)\x1f\x00\x00\x00'
tRp2032
sg17
Nsg18
Vvtknitboy
p2033
sa(dp2034
g3
(lp2035
Vastute
p2036
aVanalysis
p2037
aVwhy
p2038
aV@hrc
p2039
aVproves
p2040
aV(
aVand
p2041
aVcontinues
p2042
aV)
aV@berniesanders
p2043
aVpoint
p2044
aV.
aVhttps://t.co/vxbuw5nyfv
p2045
aV#feelthebern
p2046
asg14
g15
(S'\x07\xe0\x01\x15\x13(,\x00\x00\x00'
tRp2047
sg17
Nsg18
Vvtknitboy
p2048
sa(dp2049
g3
(lp2050
V.
aV@ppact
p2051
aVso
p2052
aVhow
p2053
aVdid
p2054
aVyou
p2055
aVdecide
p2056
aVur
p2057
aVendorsement
p2058
aV?
aVonline
p2059
aVpoll
p2060
aV,
aVdonor
p2061
aVmail-in
p2062
aV,
aVa
aVmember
p2063
aVsurvey
p2064
aV?
aVa
aVcorp
p2065
aVestablishment
p2066
aVbod
p2067
aVvote
p2068
aV?
aV#feelthebern
p2069
asg14
g15
(S'\x07\xe0\x01\x15\x13 \x1a\x00\x00\x00'
tRp2070
sg17
Nsg18
Vvtknitboy
p2071
sa(dp2072
g3
(lp2073
V.
aV@hrc
p2074
aVso
p2075
aVhow
p2076
aVdid
p2077
aVyou
p2078
aVdecide
p2079
aVur
p2080
aVendorsement
p2081
aV?
aVonline
p2082
aVpoll
p2083
aV,
aVdonor
p2084
aVmail-in
p2085
aV,
aVa
aVmember
p2086
aVsurvey
p2087
aV?
aVa
aVcorp
p2088
aVestablishment
p2089
aVbod
p2090
aVvote
p2091
aV?
aV#feelthebern
p2092
asg14
g15
(S'\x07\xe0\x01\x15\x13\x1f,\x00\x00\x00'
tRp2093
sg17
Nsg18
Vvtknitboy
p2094
sa(dp2095
g3
(lp2096
Vrt
p2097
aV@treehugger1605
p2098
aV:
aV@pdx_for_bernie
p2099
aV@hrc
p2100
aVi
aVdon't
p2101
aVunderstand
p2102
aV?
aVdid
p2103
aVthe
p2104
aV1.5
p2105
aVm
aVmembers
p2106
aVof
p2107
aVhumanrights
p2108
aVdecide
p2109
aVwho
p2110
aVto
p2111
aVendorse
p2112
aV?
asg14
g15
(S'\x07\xe0\x01\x15\x13\x18\x15\x00\x00\x00'
tRp2113
sg17
Nsg18
Vvtknitboy
p2114
sa(dp2115
g3
(lp2116
V@labellabodycare
p2117
aVur
p2118
aVgoing
p2119
aVout
p2120
aVof
p2121
aVbiz
p2122
aV,
aVright
p2123
aV?
aVsurprised
p2124
aVat
p2125
aVthe
p2126
aVflurry
p2127
aVof
p2128
aVads
p2129
aVpromoting
p2130
aVmore
p2131
aVsales
p2132
aV.
aVnothing
p2133
aVwill
p2134
aVbe
p2135
aVavailable
p2136
aV.
aVrgt
p2137
aV?
asg14
g15
(S'\x07\xe0\x01\x15\x13\x06\x0c\x00\x00\x00'
tRp2138
sg17
Nsg18
Vvtknitboy
p2139
sa(dp2140
g3
(lp2141
V@citystitchette
p2142
aV@lunaraven13
p2143
aV@heatherhal
p2144
aVjust
p2145
aVrealized
p2146
aVwas
p2147
aV2014
p2148
asg14
g15
(S'\x07\xe0\x01\x15\x13\x03\t\x00\x00\x00'
tRp2149
sg17
Nsg18
Vvtknitboy
p2150
sa(dp2151
g3
(lp2152
Vrt
p2153
aV@latimes
p2154
aV:
aVno
p2155
aVasian
p2156
aVactress
p2157
aVhas
p2158
aVwon
p2159
aVan
p2160
aV#oscar
p2161
aVin
p2162
aV58
p2163
aVyears
p2164
aV,
aVand
p2165
aVit
p2166
aV\u2019
aVs
aVbeen
p2167
aV54
p2168
aVyears
p2169
aVsince
p2170
aVa
aVlatina
p2171
aVtook
p2172
aVhome
p2173
aVan
p2174
aVacademy
p2175
aVaward
p2176
aVhttps://t.co/
p2177
aV\u2026
asg14
g15
(S'\x07\xe0\x01\x15\x123\r\x00\x00\x00'
tRp2178
sg17
Nsg18
Vvtknitboy
p2179
sa(dp2180
g3
(lp2181
V@rebelcapitalist
p2182
aV@bluedupage
p2183
aV@nationofchange
p2184
aVapril
p2185
aV2015
p2186
aVfor
p2187
aVher
p2188
aVsuperpac
p2189
aV.
aVi
aVcan't
p2190
aVstand
p2191
aVher
p2192
aV,
aVbut
p2193
aVcheck
p2194
aVthe
p2195
aVdates
p2196
asg14
g15
(S'\x07\xe0\x01\x15\x120-\x00\x00\x00'
tRp2197
sg17
Nsg18
Vvtknitboy
p2198
sa(dp2199
g3
(lp2200
Vas
p2201
aVa
aV#vermonter
p2202
aV,
aVthis
p2203
aVis
p2204
aVa
aVsellout
p2205
aVand
p2206
aVa
aVdisappointment
p2207
aV@govhowarddean
p2208
aV.
aV@shaytotten
p2209
aV#btv
p2210
aV#feelthebern
p2211
aVhttps://t.co/qkh9mmkrqf
p2212
asg14
g15
(S"\x07\xe0\x01\x15\x12'\x08\x00\x00\x00"
tRp2213
sg17
Nsg18
Vvtknitboy
p2214
sa(dp2215
g3
(lp2216
Vrt
p2217
aV@sahilkapur
p2218
aV:
aVin
p2219
aVemail
p2220
aV,
aV@emilyslist
p2221
aVattacks
p2222
aVsanders
p2223
aVwith
p2224
aVrhetoric
p2225
aVthey
p2226
aVnormally
p2227
aVreserve
p2228
aVfor
p2229
aVrepublicans
p2230
aV:
aV\u201c
aVto
p2231
aVsanders
p2232
aVwomen
p2233
aV\u2019
aVs
aVhealth
p2234
aVis
p2235
aVan
p2236
aV\u2026
asg14
g15
(S'\x07\xe0\x01\x15\x12 \x15\x00\x00\x00'
tRp2237
sg17
Nsg18
Vvtknitboy
p2238
sa(dp2239
g3
(lp2240
Vrt
p2241
aV@sahilkapur
p2242
aV:
aV@rachelsklar
p2243
aVi
aVthink
p2244
aVhe
p2245
aVstepped
p2246
aVin
p2247
aVit
p2248
aVrhetorically
p2249
aV,
aVbut
p2250
aVhe's
p2251
aVnot
p2252
aVwrong
p2253
aVthat
p2254
aVppfa
p2255
aVis
p2256
aVensconced
p2257
aVin
p2258
aVa
aVdem
p2259
aVhierarchy
p2260
aVthat's
p2261
aVbac
p2262
aV\u2026
asg14
g15
(S'\x07\xe0\x01\x15\x12\x1f8\x00\x00\x00'
tRp2263
sg17
Nsg18
Vvtknitboy
p2264
sa(dp2265
g3
(lp2266
Vrt
p2267
aV@keeponpolling
p2268
aV:
aV@sahilkapur
p2269
aV@emilyslist
p2270
aVthis
p2271
aVis
p2272
aVa
aVnasty
p2273
aV,
aVdivisive
p2274
aVthing
p2275
aVto
p2276
aVsay
p2277
aV.
aVhe
p2278
aVhas
p2279
aVa
aVperfect
p2280
aVrecord
p2281
aVon
p2282
aVwomen's
p2283
aVhealth
p2284
aVissues
p2285
aV.
aVdisgus
p2286
aV\u2026
asg14
g15
(S'\x07\xe0\x01\x15\x12\x1c\x08\x00\x00\x00'
tRp2287
sg17
Nsg18
Vvtknitboy
p2288
sa(dp2289
g3
(lp2290
Vrt
p2291
aV@yeayourite
p2292
aV:
aV@sahilkapur
p2293
aVare
p2294
aVpeople
p2295
aVgoing
p2296
aVto
p2297
aVargue
p2298
aV@emilyslist
p2299
aVisn't
p2300
aVestablishment
p2301
aVnow
p2302
aV?
asg14
g15
(S'\x07\xe0\x01\x15\x12\x1b;\x00\x00\x00'
tRp2303
sg17
Nsg18
Vvtknitboy
p2304
sa(dp2305
g3
(lp2306
Vrt
p2307
aV@chicago4bernie
p2308
aV:
aV.
aV@sahilkapur
p2309
aV@emilyslist
p2310
aVbullshit
p2311
aV.
aVbernie
p2312
aVhas
p2313
aVa
aV100
p2314
aV%
aVrating
p2315
aVfrom
p2316
aVplanned
p2317
aVparenthood
p2318
aV.
aVthis
p2319
aVis
p2320
aVa
aVflat
p2321
aVout
p2322
aVlie
p2323
aVand
p2324
aVclear
p2325
aVs
aV\u2026
asg14
g15
(S'\x07\xe0\x01\x15\x12\x1b \x00\x00\x00'
tRp2326
sg17
Nsg18
Vvtknitboy
p2327
sa(dp2328
g3
(lp2329
Vrt
p2330
aV@judgenathan
p2331
aV:
aV@rachelsklar
p2332
aV@sahilkapur
p2333
aV@ppfa
p2334
aVhe
p2335
aVmeant
p2336
aV"
aVdem
p2337
aV.
aVparty
p2338
aV/
aVelectability
p2339
aV/
aVetc
p2340
aV"
aVestablishment
p2341
aV.
aVit's
p2342
aVobvious
p2343
aVhe
p2344
aVor
p2345
aVhillary
p2346
aVwld
p2347
aVbe
p2348
aVmos
p2349
aV\u2026
asg14
g15
(S'\x07\xe0\x01\x15\x12\x1b\x0b\x00\x00\x00'
tRp2350
sg17
Nsg18
Vvtknitboy
p2351
sa(dp2352
g3
(lp2353
Vrt
p2354
aV@lapared
p2355
aV:
aV@sahilkapur
p2356
aV@emilyslist
p2357
aV-
aVtotal
p2358
aVbs
p2359
aV.
aVsanders's
p2360
aVwork
p2361
aVon
p2362
aVaca
p2363
aVmade
p2364
aVbill
p2365
aVstronger
p2366
aV&
aVamp
p2367
aV;
aVincreased
p2368
aVwomen's
p2369
aVaccess
p2370
aVto
p2371
aVhealthcare
p2372
aV.
asg14
g15
(S'\x07\xe0\x01\x15\x12\x1b\x05\x00\x00\x00'
tRp2373
sg17
Nsg18
Vvtknitboy
p2374
sa(dp2375
g3
(lp2376
Vrt
p2377
aV@breenewsome
p2378
aV:
aVobserve
p2379
aVwhere
p2380
aVthis
p2381
aVnation
p2382
aVplaces
p2383
aVits
p2384
aVpriorities
p2385
aV.
aVcan't
p2386
aVfind
p2387
aVmoney
p2388
aVfor
p2389
aVschools
p2390
aV,
aVhealth
p2391
aVcare
p2392
aVor
p2393
aVwater
p2394
aVbut
p2395
aVendless
p2396
aVfunds
p2397
aVfor
p2398
aV\u2026
asg14
g15
(S'\x07\xe0\x01\x15\x12\x126\x00\x00\x00'
tRp2399
sg17
Nsg18
Vvtknitboy
p2400
sa(dp2401
g3
(lp2402
Vrt
p2403
aV@breenewsome
p2404
aV:
aVpoverty
p2405
aVmake
p2406
aVme
p2407
aVsooooooo
p2408
aVangry
p2409
aV.
aV.
aV.
aVlike
p2410
aVto
p2411
aVthe
p2412
aVmarrow
p2413
aVof
p2414
aVmy
p2415
aVbones
p2416
aV.
aVthe
p2417
aVsituation
p2418
aVin
p2419
aVmichigan
p2420
aVis
p2421
aVa
aVdisgrace
p2422
aVto
p2423
aVthe
p2424
aVentire
p2425
aVna
p2426
aV\u2026
asg14
g15
(S'\x07\xe0\x01\x15\x114/\x00\x00\x00'
tRp2427
sg17
Nsg18
Vvtknitboy
p2428
sa(dp2429
g3
(lp2430
V.
aV@citystitchette
p2431
aVdid
p2432
aVu
aVsee
p2433
aVthis
p2434
aV?
aVhttps://t.co/rriobgsmyp
p2435
asg14
g15
(S'\x07\xe0\x01\x15\x113\x03\x00\x00\x00'
tRp2436
sg17
Nsg18
Vvtknitboy
p2437
sa(dp2438
g3
(lp2439
V@axsinvt
p2440
aVi
aVdon't
p2441
aVknow
p2442
aVif
p2443
aVmika
p2444
aVcould
p2445
aVreally
p2446
aVever
p2447
aVhave
p2448
aVher
p2449
aVown
p2450
aVshow
p2451
aV.
aVshe'll
p2452
aValways
p2453
aVbe
p2454
aVseen
p2455
aVas
p2456
aVthe
p2457
aVwimp
p2458
aVwho
p2459
aVwouldn't
p2460
aVstand
p2461
aVup
p2462
aV.
aVto
p2463
aVdouchebag
p2464
aVjoke
p2465
asg14
g15
(S'\x07\xe0\x01\x15\x0b4\x1b\x00\x00\x00'
tRp2466
sg17
Nsg18
Vvtknitboy
p2467
sa(dp2468
g3
(lp2469
V@axsinvt
p2470
aVlolol
p2471
aV.
aVmy
p2472
aVbp
p2473
aVwould
p2474
aVbe
p2475
aVthrough
p2476
aVth
p2477
aVroof
p2478
aV.
asg14
g15
(S'\x07\xe0\x01\x15\x0b2"\x00\x00\x00'
tRp2479
sg17
Nsg18
Vvtknitboy
p2480
sa(dp2481
g3
(lp2482
V@axsinvt
p2483
aVdoes
p2484
aVshe
p2485
aVhear
p2486
aVu
aVyelling
p2487
aVat
p2488
aVmorning
p2489
aVjoke
p2490
aVevery
p2491
aVday
p2492
aV?
aV!
asg14
g15
(S'\x07\xe0\x01\x15\x0b,\x11\x00\x00\x00'
tRp2493
sg17
Nsg18
Vvtknitboy
p2494
sa(dp2495
g3
(lp2496
V@axsinvt
p2497
aVdid
p2498
aVshe
p2499
aVsee
p2500
aVthat
p2501
aVpalin
p2502
aVclip
p2503
aVwith
p2504
aVdonald
p2505
aVtrump
p2506
aV?
aV!
asg14
g15
(S'\x07\xe0\x01\x15\x0b+/\x00\x00\x00'
tRp2507
sg17
Nsg18
Vvtknitboy
p2508
sa(dp2509
g3
(lp2510
V@axsinvt
p2511
aVwho
p2512
aVdoes
p2513
aVur
p2514
aVmom
p2515
aVlike
p2516
aV?
asg14
g15
(S'\x07\xe0\x01\x15\x0b*:\x00\x00\x00'
tRp2517
sg17
Nsg18
Vvtknitboy
p2518
sa(dp2519
g3
(lp2520
V@axsinvt
p2521
aVjust
p2522
aVthink
p2523
aVit's
p2524
aVunnecessary
p2525
aVfor
p2526
aVthem
p2527
aVto
p2528
aVjump
p2529
aVin
p2530
aVat
p2531
aVall
p2532
asg14
g15
(S'\x07\xe0\x01\x15\x0b*\x13\x00\x00\x00'
tRp2533
sg17
Nsg18
Vvtknitboy
p2534
sa(dp2535
g3
(lp2536
V@axsinvt
p2537
aVor
p2538
aVnot
p2539
aVat
p2540
aVall
p2541
aV.
aVnot
p2542
aVlike
p2543
aVcompeting
p2544
aVagainst
p2545
aVthose
p2546
aVlog
p2547
aVcabin
p2548
aVrepugs
p2549
aV.
aVlol
p2550
asg14
g15
(S'\x07\xe0\x01\x15\x0b)/\x00\x00\x00'
tRp2551
sg17
Nsg18
Vvtknitboy
p2552
sa(dp2553
g3
(lp2554
V.
aV@axsinvt
p2555
aV@hrc
p2556
aV&
aVlt
p2557
aV;
aV-
aV-
aVslander
p2558
aVattacks
p2559
aVwill
p2560
aVdrive
p2561
aVaway
p2562
aVbernie
p2563
aVbots
p2564
aV"
aVshould
p2565
aV"
aVshe
p2566
aVwin
p2567
aVnom
p2568
aV.
aVcan't
p2569
aVwin
p2570
aVge
p2571
aVw
aV/
aV20
p2572
aV%
aVloss
p2573
aVof
p2574
aVhis
p2575
aVvoters
p2576
aV.
aVnot
p2577
aVsmart
p2578
aVplan
p2579
asg14
g15
(S'\x07\xe0\x01\x15\x0b(1\x00\x00\x00'
tRp2580
sg17
Nsg18
Vvtknitboy
p2581
sa(dp2582
g3
(lp2583
Vrt
p2584
aV@axsinvt
p2585
aV:
aV@vtknitboy
p2586
aVand
p2587
aVyet
p2588
aV@hrc
p2589
aVis
p2590
aVmad
p2591
aVabout
p2592
aVbeing
p2593
aVcalled
p2594
aVestablishment
p2595
aV.
aVyou
p2596
aVare
p2597
aV,
aVblanche
p2598
aV.
aVyou
p2599
aVare
p2600
aVthe
p2601
aVestablishment
p2602
aV.
aV#hrc
p2603
aV#hillary
p2604
aV#
aVb
aV\u2026
asg14
g15
(S'\x07\xe0\x01\x15\x0b#\x0e\x00\x00\x00'
tRp2605
sg17
Nsg18
Vvtknitboy
p2606
sa(dp2607
g3
(lp2608
V@axsinvt
p2609
aVu
aVcan
p2610
aVrt
p2611
aVmy
p2612
aVlast
p2613
aVtweets
p2614
aVand
p2615
aVadd
p2616
aV@berniesanders
p2617
aVand
p2618
aVhrc
p2619
aV.
aVtags
p2620
aVif
p2621
aVu
aVwant
p2622
aV.
aVfuk
p2623
aV.
aVem
p2624
aVlol
p2625
asg14
g15
(S'\x07\xe0\x01\x15\x0b#\x02\x00\x00\x00'
tRp2626
sg17
Nsg18
Vvtknitboy
p2627
sa(dp2628
g3
(lp2629
V,
aV@axsinvt
p2630
aVright
p2631
aV.
aVand
p2632
aVsome
p2633
aVgays
p2634
aVhave
p2635
aVbeen
p2636
aVcomplaining
p2637
aVabout
p2638
aV@hrc
p2639
aVfor
p2640
aVyears
p2641
asg14
g15
(S'\x07\xe0\x01\x15\x0b!0\x00\x00\x00'
tRp2642
sg17
Nsg18
Vvtknitboy
p2643
sa(dp2644
g3
(lp2645
V@axsinvt
p2646
aVand
p2647
aVtheir
p2648
aVbod
p2649
aVis
p2650
aVmade
p2651
aVup
p2652
aVof
p2653
aVcorp
p2654
aVamerica
p2655
asg14
g15
(S'\x07\xe0\x01\x15\x0b \x1d\x00\x00\x00'
tRp2656
sg17
Nsg18
Vvtknitboy
p2657
sa(dp2658
g3
(lp2659
V@axsinvt
p2660
aVestablishment
p2661
aV.
aVit's
p2662
aVstill
p2663
aVabout
p2664
aVmoney
p2665
aVand
p2666
aVorg
p2667
asg14
g15
(S'\x07\xe0\x01\x15\x0b\x1f+\x00\x00\x00'
tRp2668
sg17
Nsg18
Vvtknitboy
p2669
sa(dp2670
g3
(lp2671
V@axsinvt
p2672
aVi
aVfollowed
p2673
aVsome
p2674
aVof
p2675
aVth
p2676
aVtwitter
p2677
aVwars
p2678
aVth
p2679
aVfirst
p2680
aVnight
p2681
aV.
aVthey
p2682
aVare
p2683
aVclueless
p2684
aV.
aVeven
p2685
aVif
p2686
aVthey
p2687
aVbacked
p2688
aVbernie
p2689
aVthey
p2690
aVwould
p2691
aVbe
p2692
aVpart
p2693
aVof
p2694
aVth
p2695
aVpolitical
p2696
asg14
g15
(S'\x07\xe0\x01\x15\x0b\x1e*\x00\x00\x00'
tRp2697
sg17
Nsg18
Vvtknitboy
p2698
sa(dp2699
g3
(lp2700
V@axsinvt
p2701
aVtwitter
p2702
aVwar
p2703
asg14
g15
(S'\x07\xe0\x01\x15\x0b\x19(\x00\x00\x00'
tRp2704
sg17
Nsg18
Vvtknitboy
p2705
sa(dp2706
g3
(lp2707
Vrt
p2708
aV@angryredhead86
p2709
aV:
aV@thehill
p2710
aVshe
p2711
aVis
p2712
aVhurting
p2713
aVthe
p2714
aVparty
p2715
aVand
p2716
aValso
p2717
aVis
p2718
aVdoing
p2719
aVher
p2720
aVbest
p2721
aVto
p2722
aVhand
p2723
aVthe
p2724
aVnomination
p2725
aVto
p2726
aVhillary
p2727
aVclinton
p2728
aV.
asg14
g15
(S'\x07\xe0\x01\x15\x0b\x18\x1d\x00\x00\x00'
tRp2729
sg17
Nsg18
Vvtknitboy
p2730
sa(dp2731
g3
(lp2732
Vhill's
p2733
aVshill
p2734
aV~
aVgotta
p2735
aVgo
p2736
aV.
aV.
aV.
aVhttps://t.co/cg8tcfjx5c
p2737
asg14
g15
(S'\x07\xe0\x01\x15\x0b\x18\x14\x00\x00\x00'
tRp2738
sg17
Nsg18
Vvtknitboy
p2739
sa(dp2740
g3
(lp2741
V@axsinvt
p2742
aVlol
p2743
aV.
aVthey
p2744
aVdon't
p2745
aVrealize
p2746
aVthat
p2747
aVby
p2748
aVjumping
p2749
aVin
p2750
aVthey
p2751
aVprove
p2752
aVbernie
p2753
aVright
p2754
aVand
p2755
aVby
p2756
aV.
aVengaging
p2757
aVin
p2758
aVcontinuous
p2759
aVtwitter
p2760
aVwas
p2761
aVthey
p2762
aVr
aVmaking
p2763
aVit
p2764
aVworse
p2765
asg14
g15
(S'\x07\xe0\x01\x15\x0b\x15\x1d\x00\x00\x00'
tRp2766
sg17
Nsg18
Vvtknitboy
p2767
sa(dp2768
g3
(lp2769
V.
aV@hrc
p2770
aV@hillaryclinton
p2771
aVu
aVknow
p2772
aV,
aVbcuz
p2773
aVu
aVjumped
p2774
aVin
p2775
aVthis
p2776
aVu
aVproved
p2777
aV@berniesanders
p2778
aVright
p2779
aV?
aVevery
p2780
aVtweet
p2781
aVcontinues
p2782
aVto
p2783
aVdo
p2784
aVso
p2785
aV.
aV#feelthebern
p2786
asg14
g15
(S'\x07\xe0\x01\x15\x0b\x112\x00\x00\x00'
tRp2787
sg17
Nsg18
Vvtknitboy
p2788
sa(dp2789
g3
(lp2790
Vrt
p2791
aV@axsinvt
p2792
aV:
aV@hrc
p2793
aV@hillaryclinton
p2794
aVrecently
p2795
aV,
aVyes
p2796
aV.
aV#bernie
p2797
aVwas
p2798
aVwith
p2799
aVus
p2800
aVin
p2801
aV#vt
p2802
aVin
p2803
aV1985
p2804
aV.
aVwhere
p2805
aVwas
p2806
aVshe
p2807
aVthen
p2808
aV?
aVhttps://t.co/xacs13rh1v
p2809
asg14
g15
(S'\x07\xe0\x01\x15\x0b\x10\x0f\x00\x00\x00'
tRp2810
sg17
Nsg18
Vvtknitboy
p2811
sa(dp2812
g3
(lp2813
V.
aV@hrc
p2814
aV@hillaryclinton
p2815
aVlol
p2816
aV,
aV@sensanders
p2817
aV'
aVs
aVtrack
p2818
aV.
aVrecord
p2819
aVof
p2820
aVgay
p2821
aV.
aVrgts
p2822
aV.
aVsupports
p2823
aVsince
p2824
aVthe
p2825
aV1980
p2826
aVs
aV.
aVu
aVshould
p2827
aV.
aVhv
p2828
aVstayed
p2829
aVout
p2830
aVof
p2831
aVthis
p2832
aV.
asg14
g15
(S'\x07\xe0\x01\x15\x0b\x10\x01\x00\x00\x00'
tRp2833
sg17
Nsg18
Vvtknitboy
p2834
sa(dp2835
g3
(lp2836
Vrt
p2837
aV@nobiggovduh
p2838
aV:
aV@hrc
p2839
aV@hillaryclinton
p2840
aVa
aVrecord
p2841
aVof
p2842
aV4
aVyears
p2843
aVinstead
p2844
aVof
p2845
aVdecades
p2846
aV.
asg14
g15
(S'\x07\xe0\x01\x15\x0b\r2\x00\x00\x00'
tRp2847
sg17
Nsg18
Vvtknitboy
p2848
sa(dp2849
g3
(lp2850
Vrt
p2851
aV@jerryod
p2852
aV:
aV@hrc
p2853
aV@hillaryclinton
p2854
aVhere
p2855
aV\u2019
aVs
aVbernie
p2856
aVsanders
p2857
aVstanding
p2858
aVup
p2859
aVfor
p2860
aVgay
p2861
aVsoldiers
p2862
aVback
p2863
aVin
p2864
aV1995
p2865
aV.
aVimpressive
p2866
aV.
aVhttps://t.co/olkkwvsu0e
p2867
aV\u2026
asg14
g15
(S'\x07\xe0\x01\x15\x0b\r,\x00\x00\x00'
tRp2868
sg17
Nsg18
Vvtknitboy
p2869
sa(dp2870
g3
(lp2871
Vrt
p2872
aV@goobersnattch
p2873
aV:
aV@hrc
p2874
aVsuffers
p2875
aVfrom
p2876
aVamnesia
p2877
aV.
aVit
p2878
aVwas
p2879
aV@hillaryclinton
p2880
aVwho
p2881
aVwas
p2882
aVagainst
p2883
aVmarriage
p2884
aVand
p2885
aVpro
p2886
aVmarriage
p2887
aVwhen
p2888
aVit
p2889
aVwas
p2890
aVconvenient
p2891
aVto
p2892
aVdo
p2893
aV\u2026
asg14
g15
(S'\x07\xe0\x01\x15\x0b\r(\x00\x00\x00'
tRp2894
sg17
Nsg18
Vvtknitboy
p2895
sa(dp2896
g3
(lp2897
Vrt
p2898
aV@omanreagan
p2899
aV:
aV@hrc
p2900
aVhahahahhahahahahhhahaha
p2901
aV.
aVoh
p2902
aVgosh
p2903
aV,
aVlet
p2904
aVme
p2905
aVcatch
p2906
aVmy
p2907
aVbreath
p2908
aV.
aVhahahhahahahahhahahahaha
p2909
aV.
aVoh
p2910
aV,
aVgood
p2911
aVone
p2912
aV,
aVhahha
p2913
aV.
aV\U0001f602
asg14
g15
(S'\x07\xe0\x01\x15\x0b\r"\x00\x00\x00'
tRp2914
sg17
Nsg18
Vvtknitboy
p2915
sa(dp2916
g3
(lp2917
Vrt
p2918
aV@setjeff
p2919
aV:
aV@hrc
p2920
aV@hillaryclinton
p2921
aVsure
p2922
aV.
aVyou
p2923
aVguys
p2924
aVhave
p2925
aVcompletely
p2926
aVsold
p2927
aVout
p2928
aVor
p2929
aVhave
p2930
aVvery
p2931
aVshort
p2932
aVmemories
p2933
aV.
aVlikely
p2934
aVthe
p2935
aVformer
p2936
aV.
aV.
aVhttps://t.co/drv
p2937
aV\u2026
asg14
g15
(S'\x07\xe0\x01\x15\x0b\r\x1d\x00\x00\x00'
tRp2938
sg17
Nsg18
Vvtknitboy
p2939
sa(dp2940
g3
(lp2941
Vrt
p2942
aV@thesfgresearch
p2943
aV:
aV@hrc
p2944
aV@marcylauren
p2945
aV@hillaryclinton
p2946
aVsnds
p2947
aVlik
p2948
aVmore
p2949
aVspeechifying
p2950
aVto
p2951
aVme
p2952
aV,
aVhrc
p2953
aV.
asg14
g15
(S'\x07\xe0\x01\x15\x0b\r\x19\x00\x00\x00'
tRp2954
sg17
Nsg18
Vvtknitboy
p2955
sa(dp2956
g3
(lp2957
Vrt
p2958
aV@ronworthdubbs
p2959
aV:
aV@hrc
p2960
aV@hillaryclinton
p2961
aVi
aVwonder
p2962
aVhow
p2963
aVmuch
p2964
aV$
aVshe
p2965
aVpaid
p2966
aVyou
p2967
aVguys
p2968
aV.
asg14
g15
(S'\x07\xe0\x01\x15\x0b\r\x16\x00\x00\x00'
tRp2969
sg17
Nsg18
Vvtknitboy
p2970
sa(dp2971
g3
(lp2972
Vrt
p2973
aV@joshuakconnelly
p2974
aV:
aV@hrc
p2975
aV@hillaryclinton
p2976
aVhillary
p2977
aVdidn't
p2978
aVsupport
p2979
aVsame-sex
p2980
aVmarriage
p2981
aVuntil
p2982
aV2013
p2983
aV.
asg14
g15
(S'\x07\xe0\x01\x15\x0b\r\x13\x00\x00\x00'
tRp2984
sg17
Nsg18
Vvtknitboy
p2985
sa(dp2986
g3
(lp2987
Vrt
p2988
aV@vprnet
p2989
aV:
aVsanders
p2990
aVsupporters
p2991
aV'
aVchallenge
p2992
aVof
p2993
aVdnc
p2994
aVleadership
p2995
aVreflects
p2996
aVa
aVgrowing
p2997
aVparty
p2998
aVdivide
p2999
aVhttps://t.co/g86gxuahja
p3000
aV#vprnews
p3001
aVhttps://t.co/u
p3002
aV\u2026
asg14
g15
(S'\x07\xe0\x01\x15\n\x17\x0f\x00\x00\x00'
tRp3003
sg17
Nsg18
Vvtknitboy
p3004
sa(dp3005
g3
(lp3006
Vrt
p3007
aV@nbcnews
p3008
aV:
aVvets
p3009
aVto
p3010
aV@sarahpalinusa
p3011
aV:
aVdon't
p3012
aVblame
p3013
aVobama
p3014
aVfor
p3015
aVson's
p3016
aVbehavior
p3017
aVhttps://t.co/8v0k8szkji
p3018
aVhttps://t.co/bi4gcm4xl9
p3019
asg14
g15
(S'\x07\xe0\x01\x15\n\x139\x00\x00\x00'
tRp3020
sg17
Nsg18
Vvtknitboy
p3021
sa(dp3022
g3
(lp3023
V.
aV@samkalidi
p3024
aVdivide
p3025
aV&
aVamp
p3026
aV;
aVconquer
p3027
aV.
aVpit
p3028
aV1
aVgroup
p3029
aVvs
p3030
aVanother
p3031
aV.
aVnot
p3032
aVjust
p3033
aVracial
p3034
aV~
aVdowntrodden
p3035
aV.
aVgays
p3036
aV.
aVpoor
p3037
aV.
aValways
p3038
aVsomeone
p3039
aVto
p3040
aVsee
p3041
aV"
aVbeneath
p3042
aV"
aVu
asg14
g15
(S'\x07\xe0\x01\x15\t\x02\x1a\x00\x00\x00'
tRp3043
sg17
Nsg18
Vvtknitboy
p3044
sa(dp3045
g3
(lp3046
Vthe
p3047
aV'
aVmurican
p3048
aVthing
p3049
aV-
aVconquer
p3050
aVand
p3051
aVdivide
p3052
aV.
aVby
p3053
aVpitting
p3054
aVone
p3055
aVdisadvantaged
p3056
aVgroup
p3057
aVvs
p3058
aVanother
p3059
aVhttps://t.co/qzqzsj2bxj
p3060
asg14
g15
(S'\x07\xe0\x01\x15\x08:\x12\x00\x00\x00'
tRp3061
sg17
Nsg18
Vvtknitboy
p3062
sa(dp3063
g3
(lp3064
V@lawrence
p3065
aV@bwdoherty
p3066
aVhave
p3067
aVu
aVseen
p3068
aVthis
p3069
aVharvard
p3070
aVlaw
p3071
aVreview
p3072
aVmar
p3073
aV2015
p3074
aV?
aVsays
p3075
aVcruz
p3076
aVis
p3077
aVelig
p3078
aV.
aVhttps://t.co/l3n9oshgxc
p3079
asg14
g15
(S'\x07\xe0\x01\x15\x06(\x05\x00\x00\x00'
tRp3080
sg17
Nsg18
Vvtknitboy
p3081
sa(dp3082
g3
(lp3083
V@zebrafinch
p3084
aV@adrianmayer
p3085
aV@peterjholley
p3086
aVin
p3087
aVthe
p3088
aVarticle
p3089
aVhe
p3090
aVdoesn't
p3091
aVreally
p3092
aVsay
p3093
aVit's
p3094
aVa
aVhoax
p3095
aV.
aVbut
p3096
aVthat
p3097
aV100
p3098
aV%
aVof
p3099
aVflint
p3100
aVisn't
p3101
aVpoisoned
p3102
aV,
aV.
aVmaybe
p3103
aV3
aV%
asg14
g15
(S'\x07\xe0\x01\x15\x06\x00\n\x00\x00\x00'
tRp3104
sg17
Nsg18
Vvtknitboy
p3105
sa(dp3106
g3
(lp3107
Vrt
p3108
aV@adrianmayer
p3109
aV:
aVnewest
p3110
aVbatch
p3111
aVof
p3112
aVgop
p3113
aVwhack
p3114
aVjobs
p3115
aVagain
p3116
aVignore
p3117
aVscience
p3118
aV:
aVsome
p3119
aVmichigan
p3120
aVpoliticians
p3121
aVsay
p3122
aVthe
p3123
aVflint
p3124
aVwater
p3125
aVcrisis
p3126
aVis
p3127
aVa
aVhoax
p3128
aVhttps
p3129
aV:
aV\u2026
asg14
g15
(S'\x07\xe0\x01\x15\x057\x1f\x00\x00\x00'
tRp3130
sg17
Nsg18
Vvtknitboy
p3131
sa(dp3132
g3
(lp3133
Vrt
p3134
aV@gmoinside
p3135
aV:
aVdr
p3136
aV.
aVhuber
p3137
aVexplains
p3138
aVwhy
p3139
aV#gmo
p3140
aVcrops
p3141
aVstart
p3142
aVout
p3143
aVproducing
p3144
aVwell
p3145
aVfor
p3146
aVchemical
p3147
aVfarmers
p3148
aVbut
p3149
aVdecrease
p3150
aVover
p3151
aVtime
p3152
aV#ecofarm2016
p3153
aVhttps
p3154
aV:/
p3155
aV/
aV\u2026
asg14
g15
(S'\x07\xe0\x01\x15\x0569\x00\x00\x00'
tRp3156
sg17
Nsg18
Vvtknitboy
p3157
sa(dp3158
g3
(lp3159
Vrt
p3160
aV@mahamosa
p3161
aV:
aV"
aVi
aVgot
p3162
aVadopted
p3163
aV!
aV"
aV:)
p3164
aVuse
p3165
aVcode
p3166
aVadopt
p3167
aV@
aVhttps://t.co/17eb84xast
p3168
aV&
aVamp
p3169
aV;
aV15
p3170
aV%
aVof
p3171
aV#tea
p3172
aVsale
p3173
aVgoes
p3174
aVto
p3175
aV#animal
p3176
aVshelters
p3177
aV!
aV#cats
p3178
aV#cat
p3179
aVhttps
p3180
aV:/
p3181
aV/
aV\u2026
asg14
g15
(S'\x07\xe0\x01\x15\x05\x1f"\x00\x00\x00'
tRp3182
sg17
Nsg18
Vvtknitboy
p3183
sa(dp3184
g3
(lp3185
Vrt
p3186
aV@cascamike
p3187
aV:
aV.
aV@berniesanders
p3188
aValso
p3189
aVraised
p3190
aVbetween
p3191
aVthose
p3192
aVamounts
p3193
aVtoday
p3194
aV,
aVbut
p3195
aVfrom
p3196
aVworking
p3197
aVpeople
p3198
aVgiving
p3199
aVan
p3200
aVaverage
p3201
aVof
p3202
aV$
aV29.58
p3203
aV.
aVhttps://t.co/a
p3204
aV\u2026
asg14
g15
(S'\x07\xe0\x01\x15\x05\x17\x08\x00\x00\x00'
tRp3205
sg17
Nsg18
Vvtknitboy
p3206
sa(dp3207
g3
(lp3208
V.
aV@lawrence
p3209
aV@1mdteacher
p3210
aVwhy
p3211
aV?
aV@sensanders
p3212
aVhs
p3213
aVa
aV40
p3214
aVyr
p3215
aVtrack
p3216
aVrec
p3217
aVworking
p3218
aVtoward
p3219
aVracial
p3220
aV/
aVsoc
p3221
aV/
aVecon
p3222
aVjustice
p3223
aV.
aVhrc
p3224
aVdoesn't
p3225
asg14
g15
(S'\x07\xe0\x01\x15\x05\x0f\x14\x00\x00\x00'
tRp3226
sg17
Nsg18
Vvtknitboy
p3227
sa(dp3228
g3
(lp3229
Vrt
p3230
aV@lawrence
p3231
aV:
aV.
aV@kperry4
p3232
aVhmmm
p3233
aVi
aVguess
p3234
aVthat
p3235
aVexplains
p3236
aVwhy
p3237
aVbernie
p3238
aVhas
p3239
aVnever
p3240
aVbeen
p3241
aVon
p3242
aVmy
p3243
aVshow
p3244
aV.
asg14
g15
(S'\x07\xe0\x01\x15\x05\x033\x00\x00\x00'
tRp3245
sg17
Nsg18
Vvtknitboy
p3246
sa(dp3247
g3
(lp3248
Vrt
p3249
aV@sfcount
p3250
aV:
aV@calicobayfarm
p3251
aV@bettybowers
p3252
aVdon't
p3253
aVbe
p3254
aVabsurd
p3255
aV.
aVnow
p3256
aVblaming
p3257
aVthe
p3258
aVpres
p3259
aVfor
p3260
aVyour
p3261
aVown
p3262
aVfailings
p3263
aVas
p3264
aVa
aVmother
p3265
aV-
aVthat's
p3266
aVgoing
p3267
aVtoo
p3268
aVfar
p3269
aV!
asg14
g15
(S"\x07\xe0\x01\x15\x05\x02'\x00\x00\x00"
tRp3270
sg17
Nsg18
Vvtknitboy
p3271
sa(dp3272
g3
(lp3273
V@zebrafinch
p3274
aV@traditionalhome
p3275
aVomg
p3276
aV.
aVi
aVthought
p3277
aVit
p3278
aVwas
p3279
aVvictorian
p3280
aV!
aVsure
p3281
aV!
aVlet
p3282
aVkid
p3283
aVamd
p3284
aVcats
p3285
aV/
aVdogs
p3286
aVtorture
p3287
aVthe
p3288
aVbirds
p3289
aV!
asg14
g15
(S'\x07\xe0\x01\x15\x049\x1d\x00\x00\x00'
tRp3290
sg17
Nsg18
Vvtknitboy
p3291
sa(dp3292
g3
(lp3293
V.
aV@dougdilg
p3294
aV@lawrence
p3295
aVkey
p3296
aVis
p3297
aV,
aVeligibility
p3298
aVmust
p3299
aVbe
p3300
aVdecided
p3301
aVbefore
p3302
aV.
aV.
aV.
aVthen
p3303
aV,
aVmoot
p3304
aVpoint
p3305
aV.
aVbecuz
p3306
aV,
aVif
p3307
aVhe
p3308
aV.
aVwas
p3309
aVnull
p3310
aV,
aVthe
p3311
aVcandidacy
p3312
aVwas
p3313
aVnull
p3314
aVretro
p3315
asg14
g15
(S'\x07\xe0\x01\x15\x046\x14\x00\x00\x00'
tRp3316
sg17
Nsg18
Vvtknitboy
p3317
sa(dp3318
g3
(lp3319
Vbwahahahahaha
p3320
aV#jokeoftheday
p3321
aVhttps://t.co/kwak160ocm
p3322
asg14
g15
(S'\x07\xe0\x01\x15\x03)%\x00\x00\x00'
tRp3323
sg17
Nsg18
Vvtknitboy
p3324
sa(dp3325
g3
(lp3326
V.
aV@mairead_sayre
p3327
aVhttps://t.co/vw3ymo7pa3
p3328
aVhttps://t.co/cjjrzd3vne
p3329
asg14
g15
(S'\x07\xe0\x01\x15\x03(\x14\x00\x00\x00'
tRp3330
sg17
Nsg18
Vvtknitboy
p3331
sa(dp3332
g3
(lp3333
V.
aV@mairead_sayre
p3334
aVi
aVget
p3335
aVmy
p3336
aVlarger
p3337
aVbags
p3338
aVof
p3339
aVbeans
p3340
aVhere
p3341
aV.
aVrancho
p3342
aVhas
p3343
aV$
aV$
aVbeans
p3344
aVbut
p3345
aVheirloom
p3346
aVhttps://t.co/vw3ymo7pa3
p3347
asg14
g15
(S'\x07\xe0\x01\x15\x03%\x1c\x00\x00\x00'
tRp3348
sg17
Nsg18
Vvtknitboy
p3349
sa(dp3350
g3
(lp3351
V@harajukuroxy
p3352
aVhttps://t.co/nf8esnroma
p3353
asg14
g15
(S'\x07\xe0\x01\x15\x03 \x1e\x00\x00\x00'
tRp3354
sg17
Nsg18
Vvtknitboy
p3355
sa(dp3356
g3
(lp3357
Vsquee
p3358
aV!
aVfrom
p3359
aV@ranchogordo
p3360
aVhttps://t.co/klu1cklf80
p3361
asg14
g15
(S'\x07\xe0\x01\x15\x03\x11\x1d\x00\x00\x00'
tRp3362
sg17
Nsg18
Vvtknitboy
p3363
sa(dp3364
g3
(lp3365
Vrt
p3366
aV@anomaly100
p3367
aV:
aVlook
p3368
aV,
aVsarah
p3369
aVpalin
p3370
aVcompleted
p3371
aVher
p3372
aVfirst
p3373
aVcrossword
p3374
aVpuzzle
p3375
aV.
aVcongrats
p3376
aV!
aVhttps://t.co/lzo2q2kr0m
p3377
asg14
g15
(S'\x07\xe0\x01\x15\x03\x065\x00\x00\x00'
tRp3378
sg17
Nsg18
Vvtknitboy
p3379
sa(dp3380
g3
(lp3381
V@citystitchette
p3382
aV@erinefarley
p3383
aVwhat
p3384
aVelse
p3385
aVu
aVaallergic
p3386
aVto
p3387
aV?
asg14
g15
(S'\x07\xe0\x01\x15\x03\x06\x02\x00\x00\x00'
tRp3388
sg17
Nsg18
Vvtknitboy
p3389
sa(dp3390
g3
(lp3391
V@citystitchette
p3392
aV@erinefarley
p3393
aVcarrots
p3394
aVonions
p3395
aVginger
p3396
aVbroccoli
p3397
aVred
p3398
aVpeppers
p3399
aV.
aVreplace
p3400
aVwith
p3401
aVwhatever
p3402
aVu
aVcan
p3403
aVdo
p3404
aV.
aVmushrooms
p3405
aV,
asg14
g15
(S'\x07\xe0\x01\x15\x03\x05\x17\x00\x00\x00'
tRp3406
sg17
Nsg18
Vvtknitboy
p3407
sa(dp3408
g3
(lp3409
V@citystitchette
p3410
aV@erinefarley
p3411
aVlol
p3412
aV.
aVwell
p3413
aV,
aVnot
p3414
aVfor
p3415
aV.
aVu
aV,
aVso
p3416
aVuh
p3417
aV,
aV.
aVadjust
p3418
aVit
p3419
aV,
aV:-)
p3420
asg14
g15
(S'\x07\xe0\x01\x15\x03\x03\x1d\x00\x00\x00'
tRp3421
sg17
Nsg18
Vvtknitboy
p3422
sa(dp3423
g3
(lp3424
Vrt
p3425
aV@ecochateas
p3426
aV:
aVaged
p3427
aVteas
p3428
aVstored
p3429
aVin
p3430
aVthis
p3431
aVshop
p3432
aVfor
p3433
aVcustomers
p3434
aV.
aVcome
p3435
aVback
p3436
aVin
p3437
aV20
p3438
aVyears
p3439
aV.
aV.
aV.
aVhttps://t.co/dy2jc1gh5h
p3440
asg14
g15
(S'\x07\xe0\x01\x15\x03\x02\x0c\x00\x00\x00'
tRp3441
sg17
Nsg18
Vvtknitboy
p3442
sa(dp3443
g3
(lp3444
V@erinefarley
p3445
aV@citystitchette
p3446
aVi
aV.
aVusually
p3447
aVdon't
p3448
aVjust
p3449
aVdump
p3450
aVthem
p3451
aVon
p3452
aVfor
p3453
aVphoto
p3454
aV,
aVbut
p3455
aVthought
p3456
aVhad
p3457
aV.
aValready
p3458
aVtaken
p3459
aVphoto
p3460
aV.
aVlol
p3461
asg14
g15
(S'\x07\xe0\x01\x15\x03\x01\n\x00\x00\x00'
tRp3462
sg17
Nsg18
Vvtknitboy
p3463
sa(dp3464
g3
(lp3465
V@erinefarley
p3466
aV@citystitchette
p3467
aVthese
p3468
aVweren't
p3469
aVtoasted
p3470
aVcuz
p3471
aVi
aVran
p3472
aVout
p3473
aV.
aVbut
p3474
aVjust
p3475
aVtoasted
p3476
aVa
aVbatch
p3477
aV.
aVtotally
p3478
aVdiff
p3479
aVflavor
p3480
aV!
asg14
g15
(S'\x07\xe0\x01\x15\x02;-\x00\x00\x00'
tRp3481
sg17
Nsg18
Vvtknitboy
p3482
sa(dp3483
g3
(lp3484
V@erinefarley
p3485
aV@citystitchette
p3486
aVwith
p3487
aVlo
p3488
aVmein
p3489
aV,
aVpan
p3490
aVfried
p3491
aVtofu
p3492
aVother
p3493
aVveggies
p3494
aVhttps://t.co/djabrbquw5
p3495
asg14
g15
(S'\x07\xe0\x01\x15\x024\x12\x00\x00\x00'
tRp3496
sg17
Nsg18
Vvtknitboy
p3497
sa(dp3498
g3
(lp3499
V@druchunas
p3500
aV@nerdytogether
p3501
aVlolol
p3502
aV!
aV!
aVexcept
p3503
aVthe
p3504
aVhot
p3505
aVoil
p3506
aVpart
p3507
asg14
g15
(S'\x07\xe0\x01\x15\x02\x1a$\x00\x00\x00'
tRp3508
sg17
Nsg18
Vvtknitboy
p3509
sa(dp3510
g3
(lp3511
V@nerdytogether
p3512
aVi
aVhave
p3513
aVa
aVgreat
p3514
aVenamel
p3515
aVcast
p3516
aViron
p3517
aV.
aVset
p3518
asg14
g15
(S'\x07\xe0\x01\x15\x02\x06\x04\x00\x00\x00'
tRp3519
sg17
Nsg18
Vvtknitboy
p3520
sa(dp3521
g3
(lp3522
V@nerdytogether
p3523
aVlol
p3524
aV.
aVi
aVthrew
p3525
aVaway
p3526
aVmy
p3527
aVolder
p3528
aVscratched
p3529
aVones
p3530
aVlol
p3531
asg14
g15
(S'\x07\xe0\x01\x15\x02\x00\x01\x00\x00\x00'
tRp3532
sg17
Nsg18
Vvtknitboy
p3533
sa(dp3534
g3
(lp3535
V@erinefarley
p3536
aV@citystitchette
p3537
aVu
aVwould
p3538
aVhv
p3539
aVloved
p3540
aVm
aVbroc
p3541
aVdish
p3542
aVtonight
p3543
aVhttps://t.co/ei59nqx5yj
p3544
asg14
g15
(S'\x07\xe0\x01\x15\x01;\r\x00\x00\x00'
tRp3545
sg17
Nsg18
Vvtknitboy
p3546
sa(dp3547
g3
(lp3548
V@erinefarley
p3549
aV@citystitchette
p3550
aVroasted
p3551
aVcauliflower
p3552
aVmuch
p3553
aVdifferent
p3554
aV.
aV.
aV.
aVyum
p3555
aV!
asg14
g15
(S'\x07\xe0\x01\x15\x01:)\x00\x00\x00'
tRp3556
sg17
Nsg18
Vvtknitboy
p3557
sa(dp3558
g3
(lp3559
V@nerdytogether
p3560
aVlol
p3561
aV.
aVme
p3562
aVtoo
p3563
aV.
aVi
aVmeant
p3564
aVnot
p3565
aVpc
p3566
aVcuz
p3567
aVthey
p3568
aVbreak
p3569
aVdown
p3570
aVand
p3571
aVr
aVtoxic
p3572
aV.
aVlol
p3573
aV.
asg14
g15
(S'\x07\xe0\x01\x15\x010\x12\x00\x00\x00'
tRp3574
sg17
Nsg18
Vvtknitboy
p3575
sa(dp3576
g3
(lp3577
V@nerdytogether
p3578
aVso
p3579
aVit
p3580
aVdoesn't
p3581
aVstick
p3582
aV.
aVdo
p3583
aVthis
p3584
aV.
aVperiodically
p3585
aVin
p3586
aVthis
p3587
aVfirst
p3588
aVminute
p3589
aVtil
p3590
aVit
p3591
aVseals
p3592
asg14
g15
(S'\x07\xe0\x01\x15\x01.\x03\x00\x00\x00'
tRp3593
sg17
Nsg18
Vvtknitboy
p3594
sa(dp3595
g3
(lp3596
V@nerdytogether
p3597
aVhave
p3598
aVhot
p3599
aVoil
p3600
aVbut
p3601
aVnot
p3602
aVsmoking
p3603
aV.
aVnon
p3604
aVstick
p3605
aVpan
p3606
aV(
aVi
aVknow
p3607
aVthey
p3608
aVr
aVnot
p3609
aVpc
p3610
aVthese
p3611
aVdays
p3612
aVlol
p3613
aV)
aV.
aVput
p3614
aVin
p3615
aV.
aVmove
p3616
aVaround
p3617
aVa
aVcouple
p3618
aVtimes
p3619
asg14
g15
(S'\x07\xe0\x01\x15\x01-\x0c\x00\x00\x00'
tRp3620
sg17
Nsg18
Vvtknitboy
p3621
sa(dp3622
g3
(lp3623
V@nerdytogether
p3624
aVanother
p3625
aV(
aVuse
p3626
aVa
aVcotton
p3627
aVtowel
p3628
aV,
aVnot
p3629
aVa
aVthin
p3630
aVone
p3631
aV,
aVwant
p3632
aVto
p3633
aVabsorb
p3634
aVall
p3635
aVthe
p3636
aVmoisture
p3637
aV)
aVpress
p3638
aVfirmly
p3639
aVbut
p3640
aVnot
p3641
aVto
p3642
aVbreak
p3643
aV.
aVpat
p3644
aVaround
p3645
aV)
asg14
g15
(S'\x07\xe0\x01\x15\x01%\x05\x00\x00\x00'
tRp3646
sg17
Nsg18
Vvtknitboy
p3647
sa.