(lp1
(lp2
V@heatherhal
p3
aV@whats4dinnermom
p4
aV@lunaraven13
p5
aVi
aVthought
p6
aVth
p7
aVcough
p8
aVwas
p9
aVstrep
p10
aVit
p11
aVwas
p12
aVgetting
p13
aVnasty
p14
aV.
aVbut
p15
aVi
aVhad
p16
aVa
aVphysical
p17
aVlast
p18
aVweek
p19
aVand
p20
aVshe
p21
aVdidn't
p22
aa(lp23
V@whats4dinnermom
p24
aV@lunaraven13
p25
aV@heatherhal
p26
aVi've
p27
aVdone
p28
aVall
p29
aVth
p30
aVherbal
p31
aVhome
p32
aVstuff
p33
aV.
aVbut
p34
aVthink
p35
aVth
p36
aVcough
p37
aVstressed
p38
aVth
p39
aVvocal
p40
aVchords
p41
aV/
aVneck
p42
aVmuscles
p43
aa(lp44
V@lunaraven13
p45
aV@heatherhal
p46
aVi've
p47
aVhad
p48
aVthis
p49
aVannoying
p50
aVcough
p51
aVfor
p52
aV4
aVweeks
p53
aVnow
p54
aVcan't
p55
aVget
p56
aVrid
p57
aV.
aVof
p58
aV.
aVthought
p59
aVit
p60
aVwas
p61
aVflu
p62
aVish
p63
aVthen
p64
aVjust
p65
aVcough
p66
aa.