(lp1
(dp2
a(dp3
Vflu
p4
(dp5
S'exam_week'
p6
F1.2
sS'stress'
p7
F1.2
sS'hiking'
p8
F1.2
sS'drugs'
p9
F1.2
sS'insomnia'
p10
F1.2
sS'parenting'
p11
F1.2
sS'alcoholics'
p12
F1
sS'polluted_area'
p13
F1.2
sS'coldWeather'
p14
F1.2
sS'pregnancy'
p15
F1.2
sS'travelling'
p16
F1.2
ssa.