(lp1
(dp2
Vflu
p3
S'[-122.44595203, 37.77322396]'
p4
sa(dp5
Vasthma
p6
(dp7
S'exam_week'
p8
F1.3500000000000005
sS'stress'
p9
F1.3000000000000005
sS'hiking'
p10
F1.3500000000000005
sS'drugs'
p11
F1.3500000000000005
sS'insomnia'
p12
F1.3500000000000005
sS'parenting'
p13
F1.3500000000000005
sS'alcoholics'
p14
F1.3000000000000005
sS'polluted_area'
p15
F1.3500000000000005
sS'coldWeather'
p16
F1.3500000000000005
sS'pregnancy'
p17
F1.3500000000000005
sS'travelling'
p18
F1.3000000000000005
ssVcough
p19
(dp20
g8
F0
sg9
F0
sg10
F0
sg11
F0
sg12
F0
sg13
F0
sg14
F0
sg15
F0
sg16
F0
sg17
F0
sg18
F0
ssVflu
p21
(dp22
g8
F9.1000000000000014
sg9
F9.1000000000000014
sg10
F9.1000000000000014
sg11
F9.1000000000000014
sg12
F9.1000000000000014
sg13
F9.1000000000000014
sg14
F9.1000000000000014
sg15
F9.1000000000000014
sg16
F9.1000000000000014
sg17
F9.1000000000000014
sg18
F9.1000000000000014
ssa.