(lp1
(dp2
Vcough
p3
S'[-122.4084244, 37.7876015]'
p4
sVflu
p5
S'[-122.44595203, 37.77322396]'
p6
sVnause
p7
S'[-122.494183, 37.779801]'
p8
sa(dp9
Vvomit
p10
(dp11
S'exam_week'
p12
F1.5000000000000007
sS'stress'
p13
F1.4500000000000006
sS'hiking'
p14
F1.5000000000000007
sS'drugs'
p15
F1.5000000000000007
sS'insomnia'
p16
F1.5000000000000007
sS'parenting'
p17
F1.5000000000000007
sS'alcoholics'
p18
F1.4500000000000006
sS'polluted_area'
p19
F1.5000000000000007
sS'coldWeather'
p20
F1.5000000000000007
sS'pregnancy'
p21
F1.5000000000000007
sS'travelling'
p22
F1.4500000000000006
ssVstomachache
p23
(dp24
g12
F0
sg13
F0
sg14
F0
sg15
F0
sg16
F0
sg17
F0
sg18
F0
sg19
F0
sg20
F0
sg21
F0
sg22
F0
ssVasthma
p25
(dp26
g12
F1.4000000000000006
sg13
F1.3500000000000005
sg14
F1.4000000000000006
sg15
F1.4000000000000006
sg16
F1.4000000000000006
sg17
F1.4000000000000006
sg18
F1.3500000000000005
sg19
F1.4000000000000006
sg20
F1.4000000000000006
sg21
F1.4000000000000006
sg22
F1.3500000000000005
ssVcough
p27
(dp28
g12
F0
sg13
F0
sg14
F0
sg15
F0
sg16
F0
sg17
F0
sg18
F0
sg19
F0
sg20
F0
sg21
F0
sg22
F0
ssVflu
p29
(dp30
g12
F9.1000000000000014
sg13
F9.1000000000000014
sg14
F9.1000000000000014
sg15
F9.1000000000000014
sg16
F9.1000000000000014
sg17
F9.1000000000000014
sg18
F9.1000000000000014
sg19
F9.1000000000000014
sg20
F9.1000000000000014
sg21
F9.1000000000000014
sg22
F9.1000000000000014
ssg7
(dp31
g12
F0
sg13
F0
sg14
F0
sg15
F0
sg16
F0
sg17
F0
sg18
F0
sg19
F0
sg20
F0
sg21
F0
sg22
F0
ssa.