(lp1
(dp2
Vflu
p3
S'[-122.44595203, 37.77322396]'
p4
sa(dp5
Vvomit
p6
(dp7
S'exam_week'
p8
F1.5000000000000007
sS'stress'
p9
F1.4500000000000006
sS'hiking'
p10
F1.5000000000000007
sS'drugs'
p11
F1.5000000000000007
sS'insomnia'
p12
F1.5000000000000007
sS'parenting'
p13
F1.5000000000000007
sS'alcoholics'
p14
F1.4500000000000006
sS'polluted_area'
p15
F1.5000000000000007
sS'coldWeather'
p16
F1.5000000000000007
sS'pregnancy'
p17
F1.5000000000000007
sS'travelling'
p18
F1.4500000000000006
ssVasthma
p19
(dp20
g8
F1.4000000000000006
sg9
F1.3500000000000005
sg10
F1.4000000000000006
sg11
F1.4000000000000006
sg12
F1.4000000000000006
sg13
F1.4000000000000006
sg14
F1.3500000000000005
sg15
F1.4000000000000006
sg16
F1.4000000000000006
sg17
F1.4000000000000006
sg18
F1.3500000000000005
ssVcough
p21
(dp22
g8
F0
sg9
F0
sg10
F0
sg11
F0
sg12
F0
sg13
F0
sg14
F0
sg15
F0
sg16
F0
sg17
F0
sg18
F0
ssVflu
p23
(dp24
g8
F9.1000000000000014
sg9
F9.1000000000000014
sg10
F9.1000000000000014
sg11
F9.1000000000000014
sg12
F9.1000000000000014
sg13
F9.1000000000000014
sg14
F9.1000000000000014
sg15
F9.1000000000000014
sg16
F9.1000000000000014
sg17
F9.1000000000000014
sg18
F9.1000000000000014
ssa.