(lp1
(dp2
a(dp3
Vcough
p4
(dp5
S'exam_week'
p6
F0
sS'stress'
p7
F0
sS'hiking'
p8
F0
sS'drugs'
p9
F0
sS'insomnia'
p10
F0
sS'parenting'
p11
F0
sS'alcoholics'
p12
F0
sS'polluted_area'
p13
F0
sS'coldWeather'
p14
F0
sS'pregnancy'
p15
F0
sS'travelling'
p16
F0
ssVflu
p17
(dp18
g6
F0
sg7
F0
sg8
F0
sg9
F0
sg10
F0
sg11
F0
sg12
F0
sg13
F0
sg14
F0
sg15
F0
sg16
F0
ssa.