(lp1
(dp2
Vcough
p3
S'[-122.4084244, 37.7876015]'
p4
sVflu
p5
S'[-122.44595203, 37.77322396]'
p6
sa(dp7
Vvomit
p8
(dp9
S'exam_week'
p10
F1.5000000000000007
sS'stress'
p11
F1.4500000000000006
sS'hiking'
p12
F1.5000000000000007
sS'drugs'
p13
F1.5000000000000007
sS'insomnia'
p14
F1.5000000000000007
sS'parenting'
p15
F1.5000000000000007
sS'alcoholics'
p16
F1.4500000000000006
sS'polluted_area'
p17
F1.5000000000000007
sS'coldWeather'
p18
F1.5000000000000007
sS'pregnancy'
p19
F1.5000000000000007
sS'travelling'
p20
F1.4500000000000006
ssVasthma
p21
(dp22
g10
F1.4000000000000006
sg11
F1.3500000000000005
sg12
F1.4000000000000006
sg13
F1.4000000000000006
sg14
F1.4000000000000006
sg15
F1.4000000000000006
sg16
F1.3500000000000005
sg17
F1.4000000000000006
sg18
F1.4000000000000006
sg19
F1.4000000000000006
sg20
F1.3500000000000005
ssVcough
p23
(dp24
g10
F0
sg11
F0
sg12
F0
sg13
F0
sg14
F0
sg15
F0
sg16
F0
sg17
F0
sg18
F0
sg19
F0
sg20
F0
ssVflu
p25
(dp26
g10
F9.1000000000000014
sg11
F9.1000000000000014
sg12
F9.1000000000000014
sg13
F9.1000000000000014
sg14
F9.1000000000000014
sg15
F9.1000000000000014
sg16
F9.1000000000000014
sg17
F9.1000000000000014
sg18
F9.1000000000000014
sg19
F9.1000000000000014
sg20
F9.1000000000000014
ssa.