(lp1
(dp2
Vflu
p3
S'[-122.41065878, 37.81058078]'
p4
sa(dp5
Vcough
p6
(dp7
S'exam_week'
p8
F0
sS'stress'
p9
F0
sS'hiking'
p10
F0
sS'drugs'
p11
F0
sS'insomnia'
p12
F0
sS'parenting'
p13
F0
sS'alcoholics'
p14
F0
sS'polluted_area'
p15
F0
sS'coldWeather'
p16
F0
sS'pregnancy'
p17
F0
sS'travelling'
p18
F0
ssVflu
p19
(dp20
g8
F0
sg9
F0
sg10
F0
sg11
F0
sg12
F0
sg13
F0
sg14
F0
sg15
F0
sg16
F0
sg17
F0
sg18
F0
ssa.